 UPIM_kh

 Timestamp is 57679c8b (Mon Jun 20 15:34:35 2016)

 Preferred load address is 00400000

 Start         Length     Name                   Class
 0001:00000000 000dc442H .textbss                DATA
 0002:00000000 001b3e6cH .text                   CODE
 0002:001b3e70 0001806eH .text$x                 CODE
 0002:001cbee0 00002552H .text$yc                CODE
 0002:001ce440 00001b48H .text$yd                CODE
 0003:00000000 00000104H .CRT$XCA                DATA
 0003:00000104 00000104H .CRT$XCAA               DATA
 0003:00000208 0000010eH .CRT$XCC                DATA
 0003:00000318 0000018aH .CRT$XCL                DATA
 0003:000004a4 000001d4H .CRT$XCU                DATA
 0003:00000678 00000104H .CRT$XCZ                DATA
 0003:0000077c 00000104H .CRT$XIA                DATA
 0003:00000880 00000104H .CRT$XIAA               DATA
 0003:00000984 00000104H .CRT$XIC                DATA
 0003:00000a88 00000104H .CRT$XIY                DATA
 0003:00000b8c 00000104H .CRT$XIZ                DATA
 0003:00000c90 0000fd42H .rdata                  DATA
 0003:000109d4 00000149H .rdata$debug            DATA
 0003:00010b20 000035d1H .rdata$r                DATA
 0003:000140f4 00000104H .rtc$IAA                DATA
 0003:000141f8 00000229H .rtc$IMZ                DATA
 0003:00014424 00000104H .rtc$IZZ                DATA
 0003:00014528 00000104H .rtc$TAA                DATA
 0003:0001462c 00000229H .rtc$TMZ                DATA
 0003:00014858 00000104H .rtc$TZZ                DATA
 0003:00014960 00011faaH .xdata$x                DATA
 0003:0002690c 00000104H ATL$__a                 DATA
 0003:00026a10 00000104H ATL$__z                 DATA
 0003:00026b14 00000000H .edata                  DATA
 0004:00000000 00001993H .data                   DATA
 0004:00001998 00011cf0H .bss                    DATA
 0005:00000000 0000017cH .idata$2                DATA
 0005:0000017c 00000014H .idata$3                DATA
 0005:00000190 0000192cH .idata$4                DATA
 0005:00001abc 0000192cH .idata$5                DATA
 0005:000033e8 0000879fH .idata$6                DATA
 0006:00000000 00000829H .rsrc$01                DATA
 0006:00000830 0030ae70H .rsrc$02                DATA

  Address         Publics by Value              Rva+Base       Lib:Object

 0000:00000000       ___safe_se_handler_count   00000000     <absolute>
 0000:00000000       ___safe_se_handler_table   00000000     <absolute>
 0000:00000000       __except_list              00000000     <absolute>
 0000:00009876       __ldused                   00009876     <absolute>
 0000:00009876       __fltused                  00009876     <absolute>
 0000:00000000       ___ImageBase               00400000     <linker-defined>
 0001:00000000       __enc$textbss$begin        00401000     <linker-defined>
 0001:000dc442       __enc$textbss$end          004dd442     <linker-defined>
 0002:00013f80       ??0Features@Json@@QAE@XZ   004f1f80 f   json_reader.obj
 0002:00013fe0       ?all@Features@Json@@SA?AV12@XZ 004f1fe0 f   json_reader.obj
 0002:00014030       ?strictMode@Features@Json@@SA?AV12@XZ 004f2030 f   json_reader.obj
 0002:000140e0       ??0Reader@Json@@QAE@XZ     004f20e0 f   json_reader.obj
 0002:00014210       ??1?$stack@PAVValue@Json@@V?$deque@PAVValue@Json@@V?$allocator@PAVValue@Json@@@std@@@std@@@std@@QAE@XZ 004f2210 f i json_reader.obj
 0002:00014260       ??0Reader@Json@@QAE@ABVFeatures@1@@Z 004f2260 f   json_reader.obj
 0002:00014390       ?parse@Reader@Json@@QAE_NABV?$basic_string@DU?$char_traits@D@std@@V?$allocator@D@2@@std@@AAVValue@2@_N@Z 004f2390 f   json_reader.obj
 0002:00014430       ?parse@Reader@Json@@QAE_NAAV?$basic_istream@DU?$char_traits@D@std@@@std@@AAVValue@2@_N@Z 004f2430 f   json_reader.obj
 0002:00014560       ?parse@Reader@Json@@QAE_NPBD0AAVValue@2@_N@Z 004f2560 f   json_reader.obj
 0002:000147d0       ?readValue@Reader@Json@@AAE_NXZ 004f27d0 f   json_reader.obj
 0002:00014dc0       ?skipCommentTokens@Reader@Json@@AAEXAAVToken@12@@Z 004f2dc0 f   json_reader.obj
 0002:00014e40       ?expectToken@Reader@Json@@AAE_NW4TokenType@12@AAVToken@12@PBD@Z 004f2e40 f   json_reader.obj
 0002:00014f50       ?readToken@Reader@Json@@AAE_NAAVToken@12@@Z 004f2f50 f   json_reader.obj
 0002:00015240       ?skipSpaces@Reader@Json@@AAEXXZ 004f3240 f   json_reader.obj
 0002:000152e0       ?match@Reader@Json@@AAE_NPBDH@Z 004f32e0 f   json_reader.obj
 0002:000153a0       ?readComment@Reader@Json@@AAE_NXZ 004f33a0 f   json_reader.obj
 0002:00015560       ?addComment@Reader@Json@@AAEXPBD0W4CommentPlacement@2@@Z 004f3560 f   json_reader.obj
 0002:00015750       ?readCStyleComment@Reader@Json@@AAE_NXZ 004f3750 f   json_reader.obj
 0002:000157f0       ?readCppStyleComment@Reader@Json@@AAE_NXZ 004f37f0 f   json_reader.obj
 0002:00015880       ?readNumber@Reader@Json@@AAEXXZ 004f3880 f   json_reader.obj
 0002:000159e0       ?readString@Reader@Json@@AAE_NXZ 004f39e0 f   json_reader.obj
 0002:00015a90       ?readObject@Reader@Json@@AAE_NAAVToken@12@@Z 004f3a90 f   json_reader.obj
 0002:00016110       ?readArray@Reader@Json@@AAE_NAAVToken@12@@Z 004f4110 f   json_reader.obj
 0002:00016430       ?decodeNumber@Reader@Json@@AAE_NAAVToken@12@@Z 004f4430 f   json_reader.obj
 0002:00016600       ?decodeNumber@Reader@Json@@AAE_NAAVToken@12@AAVValue@2@@Z 004f4600 f   json_reader.obj
 0002:00016c10       ?decodeDouble@Reader@Json@@AAE_NAAVToken@12@@Z 004f4c10 f   json_reader.obj
 0002:00016de0       ?decodeDouble@Reader@Json@@AAE_NAAVToken@12@AAVValue@2@@Z 004f4de0 f   json_reader.obj
 0002:000171c0       ?decodeString@Reader@Json@@AAE_NAAVToken@12@@Z 004f51c0 f   json_reader.obj
 0002:000173a0       ?decodeString@Reader@Json@@AAE_NAAVToken@12@AAV?$basic_string@DU?$char_traits@D@std@@V?$allocator@D@2@@std@@@Z 004f53a0 f   json_reader.obj
 0002:00017ae0       ?decodeUnicodeCodePoint@Reader@Json@@AAE_NAAVToken@12@AAPBDPBDAAI@Z 004f5ae0 f   json_reader.obj
 0002:00017dd0       ?decodeUnicodeEscapeSequence@Reader@Json@@AAE_NAAVToken@12@AAPBDPBDAAI@Z 004f5dd0 f   json_reader.obj
 0002:00018030       ?addError@Reader@Json@@AAE_NABV?$basic_string@DU?$char_traits@D@std@@V?$allocator@D@2@@std@@AAVToken@12@PBD@Z 004f6030 f   json_reader.obj
 0002:00018170       ??0ErrorInfo@Reader@Json@@QAE@XZ 004f6170 f i json_reader.obj
 0002:000181d0       ??1ErrorInfo@Reader@Json@@QAE@XZ 004f61d0 f i json_reader.obj
 0002:00018230       ?recoverFromError@Reader@Json@@AAE_NW4TokenType@12@@Z 004f6230 f   json_reader.obj
 0002:00018320       ?addErrorAndRecover@Reader@Json@@AAE_NABV?$basic_string@DU?$char_traits@D@std@@V?$allocator@D@2@@std@@AAVToken@12@W4TokenType@12@@Z 004f6320 f   json_reader.obj
 0002:00018390       ?currentValue@Reader@Json@@AAEAAVValue@2@XZ 004f6390 f   json_reader.obj
 0002:000183f0       ?getNextChar@Reader@Json@@AAEDXZ 004f63f0 f   json_reader.obj
 0002:00018470       ?getLocationLineAndColumn@Reader@Json@@ABEXPBDAAH1@Z 004f6470 f   json_reader.obj
 0002:00018580       ?getLocationLineAndColumn@Reader@Json@@ABE?AV?$basic_string@DU?$char_traits@D@std@@V?$allocator@D@2@@std@@PBD@Z 004f6580 f   json_reader.obj
 0002:000186c0       ?getFormatedErrorMessages@Reader@Json@@QBE?AV?$basic_string@DU?$char_traits@D@std@@V?$allocator@D@2@@std@@XZ 004f66c0 f   json_reader.obj
 0002:00018740       ?getFormattedErrorMessages@Reader@Json@@QBE?AV?$basic_string@DU?$char_traits@D@std@@V?$allocator@D@2@@std@@XZ 004f6740 f   json_reader.obj
 0002:00018c00       ??1?$_Deque_const_iterator@VErrorInfo@Reader@Json@@V?$allocator@VErrorInfo@Reader@Json@@@std@@@std@@QAE@XZ 004f6c00 f i json_reader.obj
 0002:00018c50       ?getStructuredErrors@Reader@Json@@QBE?AV?$vector@UStructuredError@Reader@Json@@V?$allocator@UStructuredError@Reader@Json@@@std@@@std@@XZ 004f6c50 f   json_reader.obj
 0002:00018ec0       ??0StructuredError@Reader@Json@@QAE@XZ 004f6ec0 f i json_reader.obj
 0002:00018f20       ??1StructuredError@Reader@Json@@QAE@XZ 004f6f20 f i json_reader.obj
 0002:00018f80       ?pushError@Reader@Json@@QAE_NABVValue@2@ABV?$basic_string@DU?$char_traits@D@std@@V?$allocator@D@2@@std@@@Z 004f6f80 f   json_reader.obj
 0002:00019150       ?pushError@Reader@Json@@QAE_NABVValue@2@ABV?$basic_string@DU?$char_traits@D@std@@V?$allocator@D@2@@std@@0@Z 004f7150 f   json_reader.obj
 0002:00019350       ?good@Reader@Json@@QBE_NXZ 004f7350 f   json_reader.obj
 0002:000193b0       ??5Json@@YAAAV?$basic_istream@DU?$char_traits@D@std@@@std@@AAV12@AAVValue@0@@Z 004f73b0 f   json_reader.obj
 0002:000195a0       ??1Reader@Json@@QAE@XZ     004f75a0 f i json_reader.obj
 0002:00019670       ??0?$basic_string@DU?$char_traits@D@std@@V?$allocator@D@2@@std@@QAE@PBD0@Z 004f7670 f i json_reader.obj
 0002:00019750       ??4?$basic_string@DU?$char_traits@D@std@@V?$allocator@D@2@@std@@QAEAAV01@$$QAV01@@Z 004f7750 f i json_reader.obj
 0002:000197c0       ?clear@?$basic_string@DU?$char_traits@D@std@@V?$allocator@D@2@@std@@QAEXXZ 004f77c0 f i json_reader.obj
 0002:00019820       ?length@?$basic_string@DU?$char_traits@D@std@@V?$allocator@D@2@@std@@QBEIXZ 004f7820 f i json_reader.obj
 0002:00019860       ?resize@?$basic_string@DU?$char_traits@D@std@@V?$allocator@D@2@@std@@QAEXI@Z 004f7860 f i json_reader.obj
 0002:000198c0       ?reserve@?$basic_string@DU?$char_traits@D@std@@V?$allocator@D@2@@std@@QAEXI@Z 004f78c0 f i json_reader.obj
 0002:00019960       ?empty@?$basic_string@DU?$char_traits@D@std@@V?$allocator@D@2@@std@@QBE_NXZ 004f7960 f i json_reader.obj
 0002:000199b0       ?find_last_not_of@?$basic_string@DU?$char_traits@D@std@@V?$allocator@D@2@@std@@QBEIPBDI@Z 004f79b0 f i json_reader.obj
 0002:00019a20       ??0?$stack@PAVValue@Json@@V?$deque@PAVValue@Json@@V?$allocator@PAVValue@Json@@@std@@@std@@@std@@QAE@XZ 004f7a20 f i json_reader.obj
 0002:00019a80       ?push@?$stack@PAVValue@Json@@V?$deque@PAVValue@Json@@V?$allocator@PAVValue@Json@@@std@@@std@@@std@@QAEX$$QAPAVValue@Json@@@Z 004f7a80 f i json_reader.obj
 0002:00019af0       ?empty@?$stack@PAVValue@Json@@V?$deque@PAVValue@Json@@V?$allocator@PAVValue@Json@@@std@@@std@@@std@@QBE_NXZ 004f7af0 f i json_reader.obj
 0002:00019b40       ?top@?$stack@PAVValue@Json@@V?$deque@PAVValue@Json@@V?$allocator@PAVValue@Json@@@std@@@std@@@std@@QAEAAPAVValue@Json@@XZ 004f7b40 f i json_reader.obj
 0002:00019b90       ?pop@?$stack@PAVValue@Json@@V?$deque@PAVValue@Json@@V?$allocator@PAVValue@Json@@@std@@@std@@@std@@QAEXXZ 004f7b90 f i json_reader.obj
 0002:00019be0       ??1?$deque@PAVValue@Json@@V?$allocator@PAVValue@Json@@@std@@@std@@QAE@XZ 004f7be0 f i json_reader.obj
 0002:00019c80       ??0?$deque@VErrorInfo@Reader@Json@@V?$allocator@VErrorInfo@Reader@Json@@@std@@@std@@QAE@XZ 004f7c80 f i json_reader.obj
 0002:00019cf0       ??1?$deque@VErrorInfo@Reader@Json@@V?$allocator@VErrorInfo@Reader@Json@@@std@@@std@@QAE@XZ 004f7cf0 f i json_reader.obj
 0002:00019d90       ?begin@?$deque@VErrorInfo@Reader@Json@@V?$allocator@VErrorInfo@Reader@Json@@@std@@@std@@QBE?AV?$_Deque_const_iterator@VErrorInfo@Reader@Json@@V?$allocator@VErrorInfo@Reader@Json@@@std@@@2@XZ 004f7d90 f i json_reader.obj
 0002:00019e20       ?end@?$deque@VErrorInfo@Reader@Json@@V?$allocator@VErrorInfo@Reader@Json@@@std@@@std@@QBE?AV?$_Deque_const_iterator@VErrorInfo@Reader@Json@@V?$allocator@VErrorInfo@Reader@Json@@@std@@@2@XZ 004f7e20 f i json_reader.obj
 0002:00019eb0       ?resize@?$deque@VErrorInfo@Reader@Json@@V?$allocator@VErrorInfo@Reader@Json@@@std@@@std@@QAEXI@Z 004f7eb0 f i json_reader.obj
 0002:0001a1e0       ?size@?$deque@VErrorInfo@Reader@Json@@V?$allocator@VErrorInfo@Reader@Json@@@std@@@std@@QBEIXZ 004f81e0 f i json_reader.obj
 0002:0001a220       ?push_back@?$deque@VErrorInfo@Reader@Json@@V?$allocator@VErrorInfo@Reader@Json@@@std@@@std@@QAEXABVErrorInfo@Reader@Json@@@Z 004f8220 f i json_reader.obj
 0002:0001a380       ?clear@?$deque@VErrorInfo@Reader@Json@@V?$allocator@VErrorInfo@Reader@Json@@@std@@@std@@QAEXXZ 004f8380 f i json_reader.obj
 0002:0001a3d0       ??D?$_Deque_const_iterator@VErrorInfo@Reader@Json@@V?$allocator@VErrorInfo@Reader@Json@@@std@@@std@@QBEABVErrorInfo@Reader@Json@@XZ 004f83d0 f i json_reader.obj
 0002:0001a480       ??E?$_Deque_const_iterator@VErrorInfo@Reader@Json@@V?$allocator@VErrorInfo@Reader@Json@@@std@@@std@@QAEAAV01@XZ 004f8480 f i json_reader.obj
 0002:0001a4d0       ??9?$_Deque_const_iterator@VErrorInfo@Reader@Json@@V?$allocator@VErrorInfo@Reader@Json@@@std@@@std@@QBE_NABV01@@Z 004f84d0 f i json_reader.obj
 0002:0001a540       ??0?$vector@UStructuredError@Reader@Json@@V?$allocator@UStructuredError@Reader@Json@@@std@@@std@@QAE@XZ 004f8540 f i json_reader.obj
 0002:0001a5b0       ??0?$vector@UStructuredError@Reader@Json@@V?$allocator@UStructuredError@Reader@Json@@@std@@@std@@QAE@$$QAV01@@Z 004f85b0 f i json_reader.obj
 0002:0001a680       ??1?$vector@UStructuredError@Reader@Json@@V?$allocator@UStructuredError@Reader@Json@@@std@@@std@@QAE@XZ 004f8680 f i json_reader.obj
 0002:0001a720       ?push_back@?$vector@UStructuredError@Reader@Json@@V?$allocator@UStructuredError@Reader@Json@@@std@@@std@@QAEXABUStructuredError@Reader@Json@@@Z 004f8720 f i json_reader.obj
 0002:0001a8a0       ??1?$_Deque_iterator@VErrorInfo@Reader@Json@@V?$allocator@VErrorInfo@Reader@Json@@@std@@@std@@QAE@XZ 004f88a0 f i json_reader.obj
 0002:0001a8f0       ??0?$_Deque_const_iterator@VErrorInfo@Reader@Json@@V?$allocator@VErrorInfo@Reader@Json@@@std@@@std@@QAE@ABV01@@Z 004f88f0 f i json_reader.obj
 0002:0001a960       ?resize@?$basic_string@DU?$char_traits@D@std@@V?$allocator@D@2@@std@@QAEXID@Z 004f8960 f i json_reader.obj
 0002:0001a9f0       ?find_last_not_of@?$basic_string@DU?$char_traits@D@std@@V?$allocator@D@2@@std@@QBEIPBDII@Z 004f89f0 f i json_reader.obj
 0002:0001aaf0       ??0?$deque@PAVValue@Json@@V?$allocator@PAVValue@Json@@@std@@@std@@QAE@XZ 004f8af0 f i json_reader.obj
 0002:0001ab60       ?push_back@?$deque@PAVValue@Json@@V?$allocator@PAVValue@Json@@@std@@@std@@QAEX$$QAPAVValue@Json@@@Z 004f8b60 f i json_reader.obj
 0002:0001acd0       ?empty@?$deque@PAVValue@Json@@V?$allocator@PAVValue@Json@@@std@@@std@@QBE_NXZ 004f8cd0 f i json_reader.obj
 0002:0001ad20       ?back@?$deque@PAVValue@Json@@V?$allocator@PAVValue@Json@@@std@@@std@@QAEAAPAVValue@Json@@XZ 004f8d20 f i json_reader.obj
 0002:0001ae50       ?pop_back@?$deque@PAVValue@Json@@V?$allocator@PAVValue@Json@@@std@@@std@@QAEXXZ 004f8e50 f i json_reader.obj
 0002:0001af60       ?_Tidy@?$deque@PAVValue@Json@@V?$allocator@PAVValue@Json@@@std@@@std@@IAEXXZ 004f8f60 f i json_reader.obj
 0002:0001b080       ??1?$_Deque_val@PAVValue@Json@@V?$allocator@PAVValue@Json@@@std@@@std@@QAE@XZ 004f9080 f i json_reader.obj
 0002:0001b1c0       ?begin@?$deque@VErrorInfo@Reader@Json@@V?$allocator@VErrorInfo@Reader@Json@@@std@@@std@@QAE?AV?$_Deque_iterator@VErrorInfo@Reader@Json@@V?$allocator@VErrorInfo@Reader@Json@@@std@@@2@XZ 004f91c0 f i json_reader.obj
 0002:0001b250       ?end@?$deque@VErrorInfo@Reader@Json@@V?$allocator@VErrorInfo@Reader@Json@@@std@@@std@@QAE?AV?$_Deque_iterator@VErrorInfo@Reader@Json@@V?$allocator@VErrorInfo@Reader@Json@@@std@@@2@XZ 004f9250 f i json_reader.obj
 0002:0001b2e0       ?erase@?$deque@VErrorInfo@Reader@Json@@V?$allocator@VErrorInfo@Reader@Json@@@std@@@std@@QAE?AV?$_Deque_iterator@VErrorInfo@Reader@Json@@V?$allocator@VErrorInfo@Reader@Json@@@std@@@2@V?$_Deque_const_iterator@VErrorInfo@Reader@Json@@V?$allocator@VErrorInfo@Reader@Json@@@std@@@2@0@Z 004f92e0 f i json_reader.obj
 0002:0001b780       ?_Growmap@?$deque@VErrorInfo@Reader@Json@@V?$allocator@VErrorInfo@Reader@Json@@@std@@@std@@IAEXI@Z 004f9780 f i json_reader.obj
 0002:0001ba40       ?_Tidy@?$deque@VErrorInfo@Reader@Json@@V?$allocator@VErrorInfo@Reader@Json@@@std@@@std@@IAEXXZ 004f9a40 f i json_reader.obj
 0002:0001bb60       ??0?$_Deque_val@VErrorInfo@Reader@Json@@V?$allocator@VErrorInfo@Reader@Json@@@std@@@std@@QAE@V?$allocator@VErrorInfo@Reader@Json@@@1@@Z 004f9b60 f i json_reader.obj
 0002:0001bd00       ??1?$_Deque_val@VErrorInfo@Reader@Json@@V?$allocator@VErrorInfo@Reader@Json@@@std@@@std@@QAE@XZ 004f9d00 f i json_reader.obj
 0002:0001be40       ??0?$allocator@VErrorInfo@Reader@Json@@@std@@QAE@XZ 004f9e40 f i json_reader.obj
 0002:0001be80       ?allocate@?$allocator@VErrorInfo@Reader@Json@@@std@@QAEPAVErrorInfo@Reader@Json@@I@Z 004f9e80 f i json_reader.obj
 0002:0001bee0       ??0?$_Deque_const_iterator@VErrorInfo@Reader@Json@@V?$allocator@VErrorInfo@Reader@Json@@@std@@@std@@QAE@IPBU_Container_base12@1@@Z 004f9ee0 f i json_reader.obj
 0002:0001bfa0       ??8?$_Deque_const_iterator@VErrorInfo@Reader@Json@@V?$allocator@VErrorInfo@Reader@Json@@@std@@@std@@QBE_NABV01@@Z 004f9fa0 f i json_reader.obj
 0002:0001c010       ?_Assign_rv@?$vector@UStructuredError@Reader@Json@@V?$allocator@UStructuredError@Reader@Json@@@std@@@std@@QAEX$$QAV12@@Z 004fa010 f i json_reader.obj
 0002:0001c1c0       ?_Inside@?$vector@UStructuredError@Reader@Json@@V?$allocator@UStructuredError@Reader@Json@@@std@@@std@@IBE_NPBUStructuredError@Reader@Json@@@Z 004fa1c0 f i json_reader.obj
 0002:0001c240       ?_Reserve@?$vector@UStructuredError@Reader@Json@@V?$allocator@UStructuredError@Reader@Json@@@std@@@std@@IAEXI@Z 004fa240 f i json_reader.obj
 0002:0001c2f0       ?_Tidy@?$vector@UStructuredError@Reader@Json@@V?$allocator@UStructuredError@Reader@Json@@@std@@@std@@IAEXXZ 004fa2f0 f i json_reader.obj
 0002:0001c3d0       ?_Orphan_range@?$vector@UStructuredError@Reader@Json@@V?$allocator@UStructuredError@Reader@Json@@@std@@@std@@IBEXPAUStructuredError@Reader@Json@@0@Z 004fa3d0 f i json_reader.obj
 0002:0001c410       ??0?$_Vector_val@UStructuredError@Reader@Json@@V?$allocator@UStructuredError@Reader@Json@@@std@@@std@@QAE@V?$allocator@UStructuredError@Reader@Json@@@1@@Z 004fa410 f i json_reader.obj
 0002:0001c4a0       ??1?$_Vector_val@UStructuredError@Reader@Json@@V?$allocator@UStructuredError@Reader@Json@@@std@@@std@@QAE@XZ 004fa4a0 f i json_reader.obj
 0002:0001c4e0       ??0?$allocator@UStructuredError@Reader@Json@@@std@@QAE@XZ 004fa4e0 f i json_reader.obj
 0002:0001c520       ??0?$allocator@UStructuredError@Reader@Json@@@std@@QAE@ABV01@@Z 004fa520 f i json_reader.obj
 0002:0001c560       ??H?$_Deque_iterator@VErrorInfo@Reader@Json@@V?$allocator@VErrorInfo@Reader@Json@@@std@@@std@@QBE?AV01@H@Z 004fa560 f i json_reader.obj
 0002:0001c680       ??1?$_Deque_iterator@PAVValue@Json@@V?$allocator@PAVValue@Json@@@std@@@std@@QAE@XZ 004fa680 f i json_reader.obj
 0002:0001c6d0       ??0?$_Deque_iterator@VErrorInfo@Reader@Json@@V?$allocator@VErrorInfo@Reader@Json@@@std@@@std@@QAE@ABV01@@Z 004fa6d0 f i json_reader.obj
 0002:0001c730       ??1?$_Deque_const_iterator@PAVValue@Json@@V?$allocator@PAVValue@Json@@@std@@@std@@QAE@XZ 004fa730 f i json_reader.obj
 0002:0001c780       ?end@?$deque@PAVValue@Json@@V?$allocator@PAVValue@Json@@@std@@@std@@QAE?AV?$_Deque_iterator@PAVValue@Json@@V?$allocator@PAVValue@Json@@@std@@@2@XZ 004fa780 f i json_reader.obj
 0002:0001c810       ?_Growmap@?$deque@PAVValue@Json@@V?$allocator@PAVValue@Json@@@std@@@std@@IAEXI@Z 004fa810 f i json_reader.obj
 0002:0001cae0       ??0?$_Deque_val@PAVValue@Json@@V?$allocator@PAVValue@Json@@@std@@@std@@QAE@V?$allocator@PAVValue@Json@@@1@@Z 004faae0 f i json_reader.obj
 0002:0001cc80       ??0?$allocator@PAVValue@Json@@@std@@QAE@XZ 004fac80 f i json_reader.obj
 0002:0001ccc0       ?deallocate@?$allocator@PAVValue@Json@@@std@@QAEXPAPAVValue@Json@@I@Z 004facc0 f i json_reader.obj
 0002:0001cd20       ?allocate@?$allocator@PAVValue@Json@@@std@@QAEPAPAVValue@Json@@I@Z 004fad20 f i json_reader.obj
 0002:0001cd80       ?deallocate@?$allocator@PAPAVValue@Json@@@std@@QAEXPAPAPAVValue@Json@@I@Z 004fad80 f i json_reader.obj
 0002:0001cde0       ?_Make_iter@?$deque@VErrorInfo@Reader@Json@@V?$allocator@VErrorInfo@Reader@Json@@@std@@@std@@QBE?AV?$_Deque_iterator@VErrorInfo@Reader@Json@@V?$allocator@VErrorInfo@Reader@Json@@@std@@@2@V?$_Deque_const_iterator@VErrorInfo@Reader@Json@@V?$allocator@VErrorInfo@Reader@Json@@@std@@@2@@Z 004fade0 f i json_reader.obj
 0002:0001ceb0       ?max_size@?$deque@VErrorInfo@Reader@Json@@V?$allocator@VErrorInfo@Reader@Json@@@std@@@std@@QBEIXZ 004faeb0 f i json_reader.obj
 0002:0001cf10       ?empty@?$deque@VErrorInfo@Reader@Json@@V?$allocator@VErrorInfo@Reader@Json@@@std@@@std@@QBE_NXZ 004faf10 f i json_reader.obj
 0002:0001cf60       ?pop_front@?$deque@VErrorInfo@Reader@Json@@V?$allocator@VErrorInfo@Reader@Json@@@std@@@std@@QAEXXZ 004faf60 f i json_reader.obj
 0002:0001d080       ?pop_back@?$deque@VErrorInfo@Reader@Json@@V?$allocator@VErrorInfo@Reader@Json@@@std@@@std@@QAEXXZ 004fb080 f i json_reader.obj
 0002:0001d190       ?_Xlen@?$deque@VErrorInfo@Reader@Json@@V?$allocator@VErrorInfo@Reader@Json@@@std@@@std@@IBEXXZ 004fb190 f i json_reader.obj
 0002:0001d1f0       ??0?$allocator@VErrorInfo@Reader@Json@@@std@@QAE@ABV01@@Z 004fb1f0 f i json_reader.obj
 0002:0001d230       ?deallocate@?$allocator@VErrorInfo@Reader@Json@@@std@@QAEXPAVErrorInfo@Reader@Json@@I@Z 004fb230 f i json_reader.obj
 0002:0001d290       ?deallocate@?$allocator@PAVErrorInfo@Reader@Json@@@std@@QAEXPAPAVErrorInfo@Reader@Json@@I@Z 004fb290 f i json_reader.obj
 0002:0001d2f0       ?allocate@?$allocator@PAVErrorInfo@Reader@Json@@@std@@QAEPAPAVErrorInfo@Reader@Json@@I@Z 004fb2f0 f i json_reader.obj
 0002:0001d350       ?_Compat@?$_Deque_const_iterator@VErrorInfo@Reader@Json@@V?$allocator@VErrorInfo@Reader@Json@@@std@@@std@@QBEXABV12@@Z 004fb350 f i json_reader.obj
 0002:0001d390       ?_Setcont@?$_Deque_const_iterator@VErrorInfo@Reader@Json@@V?$allocator@VErrorInfo@Reader@Json@@@std@@@std@@QAEXPBV?$deque@VErrorInfo@Reader@Json@@V?$allocator@VErrorInfo@Reader@Json@@@std@@@2@@Z 004fb390 f i json_reader.obj
 0002:0001d3f0       ?push_back@?$vector@UStructuredError@Reader@Json@@V?$allocator@UStructuredError@Reader@Json@@@std@@@std@@QAEX$$QAUStructuredError@Reader@Json@@@Z 004fb3f0 f i json_reader.obj
 0002:0001d580       ?reserve@?$vector@UStructuredError@Reader@Json@@V?$allocator@UStructuredError@Reader@Json@@@std@@@std@@QAEXI@Z 004fb580 f i json_reader.obj
 0002:0001d760       ?capacity@?$vector@UStructuredError@Reader@Json@@V?$allocator@UStructuredError@Reader@Json@@@std@@@std@@QBEIXZ 004fb760 f i json_reader.obj
 0002:0001d7b0       ?begin@?$vector@UStructuredError@Reader@Json@@V?$allocator@UStructuredError@Reader@Json@@@std@@@std@@QAE?AV?$_Vector_iterator@V?$_Vector_val@UStructuredError@Reader@Json@@V?$allocator@UStructuredError@Reader@Json@@@std@@@std@@@2@XZ 004fb7b0 f i json_reader.obj
 0002:0001d820       ?end@?$vector@UStructuredError@Reader@Json@@V?$allocator@UStructuredError@Reader@Json@@@std@@@std@@QAE?AV?$_Vector_iterator@V?$_Vector_val@UStructuredError@Reader@Json@@V?$allocator@UStructuredError@Reader@Json@@@std@@@std@@@2@XZ 004fb820 f i json_reader.obj
 0002:0001d890       ?size@?$vector@UStructuredError@Reader@Json@@V?$allocator@UStructuredError@Reader@Json@@@std@@@std@@QBEIXZ 004fb890 f i json_reader.obj
 0002:0001d8e0       ?max_size@?$vector@UStructuredError@Reader@Json@@V?$allocator@UStructuredError@Reader@Json@@@std@@@std@@QBEIXZ 004fb8e0 f i json_reader.obj
 0002:0001d940       ?get_allocator@?$vector@UStructuredError@Reader@Json@@V?$allocator@UStructuredError@Reader@Json@@@std@@@std@@QBE?AV?$allocator@UStructuredError@Reader@Json@@@2@XZ 004fb940 f i json_reader.obj
 0002:0001d9a0       ?clear@?$vector@UStructuredError@Reader@Json@@V?$allocator@UStructuredError@Reader@Json@@@std@@@std@@QAEXXZ 004fb9a0 f i json_reader.obj
 0002:0001da50       ?_Destroy@?$vector@UStructuredError@Reader@Json@@V?$allocator@UStructuredError@Reader@Json@@@std@@@std@@IAEXPAUStructuredError@Reader@Json@@0@Z 004fba50 f i json_reader.obj
 0002:0001dac0       ?_Grow_to@?$vector@UStructuredError@Reader@Json@@V?$allocator@UStructuredError@Reader@Json@@@std@@@std@@IBEII@Z 004fbac0 f i json_reader.obj
 0002:0001db70       ?_Xlen@?$vector@UStructuredError@Reader@Json@@V?$allocator@UStructuredError@Reader@Json@@@std@@@std@@IBEXXZ 004fbb70 f i json_reader.obj
 0002:0001dbd0       ?deallocate@?$allocator@UStructuredError@Reader@Json@@@std@@QAEXPAUStructuredError@Reader@Json@@I@Z 004fbbd0 f i json_reader.obj
 0002:0001dc30       ??0?$_Deque_iterator@VErrorInfo@Reader@Json@@V?$allocator@VErrorInfo@Reader@Json@@@std@@@std@@QAE@IPBU_Container_base12@1@@Z 004fbc30 f i json_reader.obj
 0002:0001dc90       ??Y?$_Deque_iterator@VErrorInfo@Reader@Json@@V?$allocator@VErrorInfo@Reader@Json@@@std@@@std@@QAEAAV01@H@Z 004fbc90 f i json_reader.obj
 0002:0001dce0       ??G?$_Deque_iterator@VErrorInfo@Reader@Json@@V?$allocator@VErrorInfo@Reader@Json@@@std@@@std@@QBEHABV?$_Deque_const_iterator@VErrorInfo@Reader@Json@@V?$allocator@VErrorInfo@Reader@Json@@@std@@@1@@Z 004fbce0 f i json_reader.obj
 0002:0001dd40       ??D?$_Deque_iterator@PAVValue@Json@@V?$allocator@PAVValue@Json@@@std@@@std@@QBEAAPAVValue@Json@@XZ 004fbd40 f i json_reader.obj
 0002:0001dd90       ??G?$_Deque_iterator@PAVValue@Json@@V?$allocator@PAVValue@Json@@@std@@@std@@QBE?AV01@H@Z 004fbd90 f i json_reader.obj
 0002:0001deb0       ?deallocate@?$allocator@U_Container_proxy@std@@@std@@QAEXPAU_Container_proxy@2@I@Z 004fbeb0 f i json_reader.obj
 0002:0001df10       ?allocate@?$allocator@U_Container_proxy@std@@@std@@QAEPAU_Container_proxy@2@I@Z 004fbf10 f i json_reader.obj
 0002:0001df70       ??D?$_Vector_iterator@V?$_Vector_val@UStructuredError@Reader@Json@@V?$allocator@UStructuredError@Reader@Json@@@std@@@std@@@std@@QBEAAUStructuredError@Reader@Json@@XZ 004fbf70 f i json_reader.obj
 0002:0001dfc0       ??E?$_Vector_iterator@V?$_Vector_val@UStructuredError@Reader@Json@@V?$allocator@UStructuredError@Reader@Json@@@std@@@std@@@std@@QAEAAV01@XZ 004fbfc0 f i json_reader.obj
 0002:0001e020       ??9?$_Vector_const_iterator@V?$_Vector_val@UStructuredError@Reader@Json@@V?$allocator@UStructuredError@Reader@Json@@@std@@@std@@@std@@QBE_NABV01@@Z 004fc020 f i json_reader.obj
 0002:0001e090       ??0?$_Deque_iterator@PAVValue@Json@@V?$allocator@PAVValue@Json@@@std@@@std@@QAE@ABV01@@Z 004fc090 f i json_reader.obj
 0002:0001e0f0       ??0?$_Deque_const_iterator@PAVValue@Json@@V?$allocator@PAVValue@Json@@@std@@@std@@QAE@ABV01@@Z 004fc0f0 f i json_reader.obj
 0002:0001e160       ?max_size@?$deque@PAVValue@Json@@V?$allocator@PAVValue@Json@@@std@@@std@@QBEIXZ 004fc160 f i json_reader.obj
 0002:0001e1c0       ?_Xlen@?$deque@PAVValue@Json@@V?$allocator@PAVValue@Json@@@std@@@std@@IBEXXZ 004fc1c0 f i json_reader.obj
 0002:0001e220       ??0?$allocator@PAVValue@Json@@@std@@QAE@ABV01@@Z 004fc220 f i json_reader.obj
 0002:0001e260       ?allocate@?$allocator@PAPAVValue@Json@@@std@@QAEPAPAPAVValue@Json@@I@Z 004fc260 f i json_reader.obj
 0002:0001e2c0       ?max_size@?$allocator@VErrorInfo@Reader@Json@@@std@@QBEIXZ 004fc2c0 f i json_reader.obj
 0002:0001e330       ??G?$_Deque_const_iterator@VErrorInfo@Reader@Json@@V?$allocator@VErrorInfo@Reader@Json@@@std@@@std@@QBEHABV01@@Z 004fc330 f i json_reader.obj
 0002:0001e3e0       ?erase@?$vector@UStructuredError@Reader@Json@@V?$allocator@UStructuredError@Reader@Json@@@std@@@std@@QAE?AV?$_Vector_iterator@V?$_Vector_val@UStructuredError@Reader@Json@@V?$allocator@UStructuredError@Reader@Json@@@std@@@std@@@2@V?$_Vector_const_iterator@V?$_Vector_val@UStructuredError@Reader@Json@@V?$allocator@UStructuredError@Reader@Json@@@std@@@std@@@2@0@Z 004fc3e0 f i json_reader.obj
 0002:0001e510       ?allocate@?$allocator@UStructuredError@Reader@Json@@@std@@QAEPAUStructuredError@Reader@Json@@I@Z 004fc510 f i json_reader.obj
 0002:0001e570       ?max_size@?$allocator@UStructuredError@Reader@Json@@@std@@QBEIXZ 004fc570 f i json_reader.obj
 0002:0001e5e0       ??0?$_Deque_iterator@PAVValue@Json@@V?$allocator@PAVValue@Json@@@std@@@std@@QAE@IPBU_Container_base12@1@@Z 004fc5e0 f i json_reader.obj
 0002:0001e640       ??Z?$_Deque_iterator@PAVValue@Json@@V?$allocator@PAVValue@Json@@@std@@@std@@QAEAAV01@H@Z 004fc640 f i json_reader.obj
 0002:0001e6a0       ??D?$_Deque_const_iterator@PAVValue@Json@@V?$allocator@PAVValue@Json@@@std@@@std@@QBEABQAVValue@Json@@XZ 004fc6a0 f i json_reader.obj
 0002:0001e750       ??0?$_Vector_iterator@V?$_Vector_val@UStructuredError@Reader@Json@@V?$allocator@UStructuredError@Reader@Json@@@std@@@std@@@std@@QAE@PAUStructuredError@Reader@Json@@PBU_Container_base0@1@@Z 004fc750 f i json_reader.obj
 0002:0001e7b0       ??D?$_Vector_const_iterator@V?$_Vector_val@UStructuredError@Reader@Json@@V?$allocator@UStructuredError@Reader@Json@@@std@@@std@@@std@@QBEABUStructuredError@Reader@Json@@XZ 004fc7b0 f i json_reader.obj
 0002:0001e7f0       ??E?$_Vector_const_iterator@V?$_Vector_val@UStructuredError@Reader@Json@@V?$allocator@UStructuredError@Reader@Json@@@std@@@std@@@std@@QAEAAV01@XZ 004fc7f0 f i json_reader.obj
 0002:0001e840       ??8?$_Vector_const_iterator@V?$_Vector_val@UStructuredError@Reader@Json@@V?$allocator@UStructuredError@Reader@Json@@@std@@@std@@@std@@QBE_NABV01@@Z 004fc840 f i json_reader.obj
 0002:0001e8b0       ?max_size@?$allocator@PAVValue@Json@@@std@@QBEIXZ 004fc8b0 f i json_reader.obj
 0002:0001e920       ?_Make_iter@?$vector@UStructuredError@Reader@Json@@V?$allocator@UStructuredError@Reader@Json@@@std@@@std@@QBE?AV?$_Vector_iterator@V?$_Vector_val@UStructuredError@Reader@Json@@V?$allocator@UStructuredError@Reader@Json@@@std@@@std@@@2@V?$_Vector_const_iterator@V?$_Vector_val@UStructuredError@Reader@Json@@V?$allocator@UStructuredError@Reader@Json@@@std@@@std@@@2@@Z 004fc920 f i json_reader.obj
 0002:0001e980       ??Y?$_Deque_iterator@PAVValue@Json@@V?$allocator@PAVValue@Json@@@std@@@std@@QAEAAV01@H@Z 004fc980 f i json_reader.obj
 0002:0001e9d0       ??0?$_Deque_const_iterator@PAVValue@Json@@V?$allocator@PAVValue@Json@@@std@@@std@@QAE@IPBU_Container_base12@1@@Z 004fc9d0 f i json_reader.obj
 0002:0001ea90       ??0?$_Vector_const_iterator@V?$_Vector_val@UStructuredError@Reader@Json@@V?$allocator@UStructuredError@Reader@Json@@@std@@@std@@@std@@QAE@PAUStructuredError@Reader@Json@@PBU_Container_base0@1@@Z 004fca90 f i json_reader.obj
 0002:0001eb00       ?_Compat@?$_Vector_const_iterator@V?$_Vector_val@UStructuredError@Reader@Json@@V?$allocator@UStructuredError@Reader@Json@@@std@@@std@@@std@@QBEXABV12@@Z 004fcb00 f i json_reader.obj
 0002:0001eb40       ?_Setcont@?$_Deque_const_iterator@PAVValue@Json@@V?$allocator@PAVValue@Json@@@std@@@std@@QAEXPBV?$deque@PAVValue@Json@@V?$allocator@PAVValue@Json@@@std@@@2@@Z 004fcb40 f i json_reader.obj
 0002:0001eba0       ??$getline@DU?$char_traits@D@std@@V?$allocator@D@2@@std@@YAAAV?$basic_istream@DU?$char_traits@D@std@@@0@AAV10@AAV?$basic_string@DU?$char_traits@D@std@@V?$allocator@D@2@@0@D@Z 004fcba0 f i json_reader.obj
 0002:0001ec10       ??$?HDU?$char_traits@D@std@@V?$allocator@D@1@@std@@YA?AV?$basic_string@DU?$char_traits@D@std@@V?$allocator@D@2@@0@PBD$$QAV10@@Z 004fcc10 f i json_reader.obj
 0002:0001eca0       ??$?HDU?$char_traits@D@std@@V?$allocator@D@1@@std@@YA?AV?$basic_string@DU?$char_traits@D@std@@V?$allocator@D@2@@0@$$QAV10@PBD@Z 004fcca0 f i json_reader.obj
 0002:0001ed30       ??$?HDU?$char_traits@D@std@@V?$allocator@D@1@@std@@YA?AV?$basic_string@DU?$char_traits@D@std@@V?$allocator@D@2@@0@PBDABV10@@Z 004fcd30 f i json_reader.obj
 0002:0001ee90       ??$move@AAPAVValue@Json@@@std@@YA$$QAPAVValue@Json@@AAPAV12@@Z 004fce90 f i json_reader.obj
 0002:0001eed0       ??$_Uninitialized_default_fill_n@PAVErrorInfo@Reader@Json@@HV123@V?$allocator@VErrorInfo@Reader@Json@@@std@@@std@@YAXPAVErrorInfo@Reader@Json@@HPBV123@AAV?$allocator@VErrorInfo@Reader@Json@@@0@@Z 004fced0 f i json_reader.obj
 0002:0001ef70       ??$_Cons_val@V?$allocator@VErrorInfo@Reader@Json@@@std@@VErrorInfo@Reader@Json@@ABV345@@std@@YAXAAV?$allocator@VErrorInfo@Reader@Json@@@0@PAVErrorInfo@Reader@Json@@ABV234@@Z 004fcf70 f i json_reader.obj
 0002:0001efd0       ??$forward@V?$vector@UStructuredError@Reader@Json@@V?$allocator@UStructuredError@Reader@Json@@@std@@@std@@@std@@YA$$QAV?$vector@UStructuredError@Reader@Json@@V?$allocator@UStructuredError@Reader@Json@@@std@@@0@AAV10@@Z 004fcfd0 f i json_reader.obj
 0002:0001f010       ??$addressof@$$CBUStructuredError@Reader@Json@@@std@@YAPBUStructuredError@Reader@Json@@ABU123@@Z 004fd010 f i json_reader.obj
 0002:0001f050       ??$_Cons_val@V?$allocator@UStructuredError@Reader@Json@@@std@@UStructuredError@Reader@Json@@AAU345@@std@@YAXAAV?$allocator@UStructuredError@Reader@Json@@@0@PAUStructuredError@Reader@Json@@AAU234@@Z 004fd050 f i json_reader.obj
 0002:0001f0b0       ??$_Cons_val@V?$allocator@UStructuredError@Reader@Json@@@std@@UStructuredError@Reader@Json@@ABU345@@std@@YAXAAV?$allocator@UStructuredError@Reader@Json@@@0@PAUStructuredError@Reader@Json@@ABU234@@Z 004fd0b0 f i json_reader.obj
 0002:0001f110       ??$forward@PAVValue@Json@@@std@@YA$$QAPAVValue@Json@@AAPAV12@@Z 004fd110 f i json_reader.obj
 0002:0001f150       ??$_Cons_val@V?$allocator@PAVValue@Json@@@std@@PAVValue@Json@@PAV34@@std@@YAXAAV?$allocator@PAVValue@Json@@@0@PAPAVValue@Json@@$$QAPAV23@@Z 004fd150 f i json_reader.obj
 0002:0001f1b0       ??$_Dest_val@V?$allocator@PAVValue@Json@@@std@@PAVValue@Json@@@std@@YAXAAV?$allocator@PAVValue@Json@@@0@PAPAVValue@Json@@@Z 004fd1b0 f i json_reader.obj
 0002:0001f200       ??$_Dest_val@V?$allocator@PAPAVValue@Json@@@std@@PAPAVValue@Json@@@std@@YAXAAV?$allocator@PAPAVValue@Json@@@0@PAPAPAVValue@Json@@@Z 004fd200 f i json_reader.obj
 0002:0001f250       ??$?0PAVValue@Json@@@?$allocator@U_Container_proxy@std@@@std@@QAE@ABV?$allocator@PAVValue@Json@@@1@@Z 004fd250 f i json_reader.obj
 0002:0001f290       ??$_Dest_val@V?$allocator@U_Container_proxy@std@@@std@@U_Container_proxy@2@@std@@YAXAAV?$allocator@U_Container_proxy@std@@@0@PAU_Container_proxy@0@@Z 004fd290 f i json_reader.obj
 0002:0001f2e0       ??$_Move_backward@V?$_Deque_iterator@VErrorInfo@Reader@Json@@V?$allocator@VErrorInfo@Reader@Json@@@std@@@std@@V12@@std@@YA?AV?$_Deque_iterator@VErrorInfo@Reader@Json@@V?$allocator@VErrorInfo@Reader@Json@@@std@@@0@V10@00@Z 004fd2e0 f i json_reader.obj
 0002:0001f480       ??$_Move@V?$_Deque_iterator@VErrorInfo@Reader@Json@@V?$allocator@VErrorInfo@Reader@Json@@@std@@@std@@V12@@std@@YA?AV?$_Deque_iterator@VErrorInfo@Reader@Json@@V?$allocator@VErrorInfo@Reader@Json@@@std@@@0@V10@00@Z 004fd480 f i json_reader.obj
 0002:0001f620       ??$_Uninitialized_copy@PAPAVErrorInfo@Reader@Json@@PAPAV123@V?$allocator@PAVErrorInfo@Reader@Json@@@std@@@std@@YAPAPAVErrorInfo@Reader@Json@@PAPAV123@00AAV?$allocator@PAVErrorInfo@Reader@Json@@@0@@Z 004fd620 f i json_reader.obj
 0002:0001f6b0       ??$_Uninitialized_default_fill_n@PAPAVErrorInfo@Reader@Json@@IPAV123@V?$allocator@PAVErrorInfo@Reader@Json@@@std@@@std@@YAXPAPAVErrorInfo@Reader@Json@@IPBQAV123@AAV?$allocator@PAVErrorInfo@Reader@Json@@@0@@Z 004fd6b0 f i json_reader.obj
 0002:0001f750       ??$_Destroy_range@V?$allocator@PAVErrorInfo@Reader@Json@@@std@@@std@@YAXPAPAVErrorInfo@Reader@Json@@0AAV?$allocator@PAVErrorInfo@Reader@Json@@@0@@Z 004fd750 f i json_reader.obj
 0002:0001f7d0       ??$_Dest_val@V?$allocator@PAVErrorInfo@Reader@Json@@@std@@PAVErrorInfo@Reader@Json@@@std@@YAXAAV?$allocator@PAVErrorInfo@Reader@Json@@@0@PAPAVErrorInfo@Reader@Json@@@Z 004fd7d0 f i json_reader.obj
 0002:0001f820       ??$?0VErrorInfo@Reader@Json@@@?$allocator@PAVErrorInfo@Reader@Json@@@std@@QAE@ABV?$allocator@VErrorInfo@Reader@Json@@@1@@Z 004fd820 f i json_reader.obj
 0002:0001f860       ??$?0VErrorInfo@Reader@Json@@@?$allocator@U_Container_proxy@std@@@std@@QAE@ABV?$allocator@VErrorInfo@Reader@Json@@@1@@Z 004fd860 f i json_reader.obj
 0002:0001f8a0       ??$_Cons_val@V?$allocator@U_Container_proxy@std@@@std@@U_Container_proxy@2@U32@@std@@YAXAAV?$allocator@U_Container_proxy@std@@@0@PAU_Container_proxy@0@$$QAU20@@Z 004fd8a0 f i json_reader.obj
 0002:0001f900       ??$_Allocate@VErrorInfo@Reader@Json@@@std@@YAPAVErrorInfo@Reader@Json@@IPAV123@@Z 004fd900 f i json_reader.obj
 0002:0001f9b0       ??$?9UStructuredError@Reader@Json@@U012@@std@@YA_NABV?$allocator@UStructuredError@Reader@Json@@@0@0@Z 004fd9b0 f i json_reader.obj
 0002:0001fa10       ??$forward@UStructuredError@Reader@Json@@@std@@YA$$QAUStructuredError@Reader@Json@@AAU123@@Z 004fda10 f i json_reader.obj
 0002:0001fa50       ??$_Uninitialized_copy@PAPAPAVValue@Json@@PAPAPAV12@V?$allocator@PAPAVValue@Json@@@std@@@std@@YAPAPAPAVValue@Json@@PAPAPAV12@00AAV?$allocator@PAPAVValue@Json@@@0@@Z 004fda50 f i json_reader.obj
 0002:0001fae0       ??$_Uninitialized_default_fill_n@PAPAPAVValue@Json@@IPAPAV12@V?$allocator@PAPAVValue@Json@@@std@@@std@@YAXPAPAPAVValue@Json@@IPBQAPAV12@AAV?$allocator@PAPAVValue@Json@@@0@@Z 004fdae0 f i json_reader.obj
 0002:0001fb80       ??$_Destroy_range@V?$allocator@PAPAVValue@Json@@@std@@@std@@YAXPAPAPAVValue@Json@@0AAV?$allocator@PAPAVValue@Json@@@0@@Z 004fdb80 f i json_reader.obj
 0002:0001fc00       ??$?0PAVValue@Json@@@?$allocator@PAPAVValue@Json@@@std@@QAE@ABV?$allocator@PAVValue@Json@@@1@@Z 004fdc00 f i json_reader.obj
 0002:0001fc40       ??$_Allocate@PAVValue@Json@@@std@@YAPAPAVValue@Json@@IPAPAV12@@Z 004fdc40 f i json_reader.obj
 0002:0001fcf0       ??$_Dest_val@V?$allocator@VErrorInfo@Reader@Json@@@std@@VErrorInfo@Reader@Json@@@std@@YAXAAV?$allocator@VErrorInfo@Reader@Json@@@0@PAVErrorInfo@Reader@Json@@@Z 004fdcf0 f i json_reader.obj
 0002:0001fd40       ??$_Allocate@PAVErrorInfo@Reader@Json@@@std@@YAPAPAVErrorInfo@Reader@Json@@IPAPAV123@@Z 004fdd40 f i json_reader.obj
 0002:0001fdf0       ??$addressof@UStructuredError@Reader@Json@@@std@@YAPAUStructuredError@Reader@Json@@AAU123@@Z 004fddf0 f i json_reader.obj
 0002:0001fe30       ??$_Cons_val@V?$allocator@UStructuredError@Reader@Json@@@std@@UStructuredError@Reader@Json@@U345@@std@@YAXAAV?$allocator@UStructuredError@Reader@Json@@@0@PAUStructuredError@Reader@Json@@$$QAU234@@Z 004fde30 f i json_reader.obj
 0002:0001fe90       ??$_Umove@PAUStructuredError@Reader@Json@@@?$vector@UStructuredError@Reader@Json@@V?$allocator@UStructuredError@Reader@Json@@@std@@@std@@IAEPAUStructuredError@Reader@Json@@PAU234@00@Z 004fde90 f i json_reader.obj
 0002:0001ff00       ??$_Destroy_range@V?$allocator@UStructuredError@Reader@Json@@@std@@@std@@YAXPAUStructuredError@Reader@Json@@0AAV?$allocator@UStructuredError@Reader@Json@@@0@@Z 004fdf00 f i json_reader.obj
 0002:0001ff80       ??$_Allocate@U_Container_proxy@std@@@std@@YAPAU_Container_proxy@0@IPAU10@@Z 004fdf80 f i json_reader.obj
 0002:00020030       ??$_Allocate@PAPAVValue@Json@@@std@@YAPAPAPAVValue@Json@@IPAPAPAV12@@Z 004fe030 f i json_reader.obj
 0002:000200e0       ??$_Move@PAUStructuredError@Reader@Json@@PAU123@@std@@YAPAUStructuredError@Reader@Json@@PAU123@00@Z 004fe0e0 f i json_reader.obj
 0002:00020160       ??$_Allocate@UStructuredError@Reader@Json@@@std@@YAPAUStructuredError@Reader@Json@@IPAU123@@Z 004fe160 f i json_reader.obj
 0002:00020210       ??Y?$basic_string@DU?$char_traits@D@std@@V?$allocator@D@2@@std@@QAEAAV01@PBD@Z 004fe210 f i json_reader.obj
 0002:00020270       ?append@?$basic_string@DU?$char_traits@D@std@@V?$allocator@D@2@@std@@QAEAAV12@PBD@Z 004fe270 f i json_reader.obj
 0002:000202e0       ?insert@?$basic_string@DU?$char_traits@D@std@@V?$allocator@D@2@@std@@QAEAAV12@IPBD@Z 004fe2e0 f i json_reader.obj
 0002:00020350       ?construct@?$allocator@PAVValue@Json@@@std@@QAEXPAPAVValue@Json@@$$QAPAV34@@Z 004fe350 f i json_reader.obj
 0002:00020450       ??2@YAPAXIPAX@Z            004fe450 f i json_reader.obj
 0002:00020490       ??3@YAXPAX0@Z              004fe490 f i json_reader.obj
 0002:000204c0       ?destroy@?$allocator@PAVValue@Json@@@std@@QAEXPAPAVValue@Json@@@Z 004fe4c0 f i json_reader.obj
 0002:00020520       ?destroy@?$allocator@PAPAVValue@Json@@@std@@QAEXPAPAPAVValue@Json@@@Z 004fe520 f i json_reader.obj
 0002:00020580       ?construct@?$allocator@VErrorInfo@Reader@Json@@@std@@QAEXPAVErrorInfo@Reader@Json@@ABV345@@Z 004fe580 f i json_reader.obj
 0002:000205e0       ?destroy@?$allocator@VErrorInfo@Reader@Json@@@std@@QAEXPAVErrorInfo@Reader@Json@@@Z 004fe5e0 f i json_reader.obj
 0002:00020640       ?destroy@?$allocator@PAVErrorInfo@Reader@Json@@@std@@QAEXPAPAVErrorInfo@Reader@Json@@@Z 004fe640 f i json_reader.obj
 0002:000206a0       ?construct@?$allocator@UStructuredError@Reader@Json@@@std@@QAEXPAUStructuredError@Reader@Json@@ABU345@@Z 004fe6a0 f i json_reader.obj
 0002:00020700       ?construct@?$allocator@UStructuredError@Reader@Json@@@std@@QAEXPAUStructuredError@Reader@Json@@$$QAU345@@Z 004fe700 f i json_reader.obj
 0002:00020800       ?construct@?$allocator@U_Container_proxy@std@@@std@@QAEXPAU_Container_proxy@2@$$QAU32@@Z 004fe800 f i json_reader.obj
 0002:00020910       ?destroy@?$allocator@U_Container_proxy@std@@@std@@QAEXPAU_Container_proxy@2@@Z 004fe910 f i json_reader.obj
 0002:00020970       ??0StructuredError@Reader@Json@@QAE@ABU012@@Z 004fe970 f i json_reader.obj
 0002:000209f0       ??0?$basic_string@DU?$char_traits@D@std@@V?$allocator@D@2@@std@@QAE@ABV01@@Z 004fe9f0 f i json_reader.obj
 0002:00020ad0       ?insert@?$basic_string@DU?$char_traits@D@std@@V?$allocator@D@2@@std@@QAEAAV12@IPBDI@Z 004fead0 f i json_reader.obj
 0002:00020c40       ?insert@?$basic_string@DU?$char_traits@D@std@@V?$allocator@D@2@@std@@QAEAAV12@IABV12@II@Z 004fec40 f i json_reader.obj
 0002:00020e10       ??$move@AAV?$basic_istream@DU?$char_traits@D@std@@@std@@@std@@YA$$QAV?$basic_istream@DU?$char_traits@D@std@@@0@AAV10@@Z 004fee10 f i json_reader.obj
 0002:00020e50       ??$getline@DU?$char_traits@D@std@@V?$allocator@D@2@@std@@YAAAV?$basic_istream@DU?$char_traits@D@std@@@0@$$QAV10@AAV?$basic_string@DU?$char_traits@D@std@@V?$allocator@D@2@@0@D@Z 004fee50 f i json_reader.obj
 0002:00021250       ??$move@AAV?$basic_string@DU?$char_traits@D@std@@V?$allocator@D@2@@std@@@std@@YA$$QAV?$basic_string@DU?$char_traits@D@std@@V?$allocator@D@2@@0@AAV10@@Z 004ff250 f i json_reader.obj
 0002:00021290       ??$_Val_type@PAVErrorInfo@Reader@Json@@@std@@YAPAVErrorInfo@Reader@Json@@PAV123@@Z 004ff290 f i json_reader.obj
 0002:000212c0       ??$_Ptr_cat@VErrorInfo@Reader@Json@@V123@@std@@YA?AU_Nonscalar_ptr_iterator_tag@0@PAVErrorInfo@Reader@Json@@0@Z 004ff2c0 f i json_reader.obj
 0002:00021330       ??$_Uninit_def_fill_n@PAVErrorInfo@Reader@Json@@HV123@V?$allocator@VErrorInfo@Reader@Json@@@std@@V123@@std@@YAXPAVErrorInfo@Reader@Json@@HPBV123@AAV?$allocator@VErrorInfo@Reader@Json@@@0@0U_Nonscalar_ptr_iterator_tag@0@@Z 004ff330 f i json_reader.obj
 0002:000214a0       ??$forward@ABVErrorInfo@Reader@Json@@@std@@YAABVErrorInfo@Reader@Json@@ABV123@@Z 004ff4a0 f i json_reader.obj
 0002:000214e0       ??$forward@AAUStructuredError@Reader@Json@@@std@@YAAAUStructuredError@Reader@Json@@AAU123@@Z 004ff4e0 f i json_reader.obj
 0002:00021520       ??$construct@AAUStructuredError@Reader@Json@@@?$allocator@UStructuredError@Reader@Json@@@std@@QAEXPAUStructuredError@Reader@Json@@AAU234@@Z 004ff520 f i json_reader.obj
 0002:00021620       ??$forward@ABUStructuredError@Reader@Json@@@std@@YAABUStructuredError@Reader@Json@@ABU123@@Z 004ff620 f i json_reader.obj
 0002:00021660       ??$_Ptr_cat@V?$_Deque_iterator@VErrorInfo@Reader@Json@@V?$allocator@VErrorInfo@Reader@Json@@@std@@@std@@V12@@std@@YA?AU_Nonscalar_ptr_iterator_tag@0@AAV?$_Deque_iterator@VErrorInfo@Reader@Json@@V?$allocator@VErrorInfo@Reader@Json@@@std@@@0@0@Z 004ff660 f i json_reader.obj
 0002:000216d0       ??$_Move_backward@V?$_Deque_iterator@VErrorInfo@Reader@Json@@V?$allocator@VErrorInfo@Reader@Json@@@std@@@std@@V12@@std@@YA?AV?$_Deque_iterator@VErrorInfo@Reader@Json@@V?$allocator@VErrorInfo@Reader@Json@@@std@@@0@V10@00U_Nonscalar_ptr_iterator_tag@0@@Z 004ff6d0 f i json_reader.obj
 0002:00021800       ??$_Move@V?$_Deque_iterator@VErrorInfo@Reader@Json@@V?$allocator@VErrorInfo@Reader@Json@@@std@@@std@@V12@@std@@YA?AV?$_Deque_iterator@VErrorInfo@Reader@Json@@V?$allocator@VErrorInfo@Reader@Json@@@std@@@0@V10@00U_Nonscalar_ptr_iterator_tag@0@@Z 004ff800 f i json_reader.obj
 0002:00021940       ??$_Ptr_cat@PAVErrorInfo@Reader@Json@@PAV123@@std@@YA?AU_Scalar_ptr_iterator_tag@0@PAPAVErrorInfo@Reader@Json@@0@Z 004ff940 f i json_reader.obj
 0002:000219b0       ??$_Uninit_copy@PAVErrorInfo@Reader@Json@@PAV123@@std@@YAPAPAVErrorInfo@Reader@Json@@PAPAV123@00AAV?$allocator@PAVErrorInfo@Reader@Json@@@0@U_Scalar_ptr_iterator_tag@0@@Z 004ff9b0 f i json_reader.obj
 0002:00021a30       ??$_Val_type@PAPAVErrorInfo@Reader@Json@@@std@@YAPAPAVErrorInfo@Reader@Json@@PAPAV123@@Z 004ffa30 f i json_reader.obj
 0002:00021a60       ??$_Uninit_def_fill_n@PAVErrorInfo@Reader@Json@@IPAV123@PAV123@@std@@YAXPAPAVErrorInfo@Reader@Json@@IPBQAV123@AAV?$allocator@PAVErrorInfo@Reader@Json@@@0@0U_Scalar_ptr_iterator_tag@0@@Z 004ffa60 f i json_reader.obj
 0002:00021ad0       ??$_Destroy_range@V?$allocator@PAVErrorInfo@Reader@Json@@@std@@@std@@YAXPAPAVErrorInfo@Reader@Json@@0AAV?$allocator@PAVErrorInfo@Reader@Json@@@0@U_Scalar_ptr_iterator_tag@0@@Z 004ffad0 f i json_reader.obj
 0002:00021b00       ??$forward@U_Container_proxy@std@@@std@@YA$$QAU_Container_proxy@0@AAU10@@Z 004ffb00 f i json_reader.obj
 0002:00021b40       ??$?8UStructuredError@Reader@Json@@U012@@std@@YA_NABV?$allocator@UStructuredError@Reader@Json@@@0@0@Z 004ffb40 f i json_reader.obj
 0002:00021b70       ??$_Ptr_cat@PAPAVValue@Json@@PAPAV12@@std@@YA?AU_Scalar_ptr_iterator_tag@0@PAPAPAVValue@Json@@0@Z 004ffb70 f i json_reader.obj
 0002:00021be0       ??$_Uninit_copy@PAPAVValue@Json@@PAPAV12@@std@@YAPAPAPAVValue@Json@@PAPAPAV12@00AAV?$allocator@PAPAVValue@Json@@@0@U_Scalar_ptr_iterator_tag@0@@Z 004ffbe0 f i json_reader.obj
 0002:00021c60       ??$_Val_type@PAPAPAVValue@Json@@@std@@YAPAPAPAVValue@Json@@PAPAPAV12@@Z 004ffc60 f i json_reader.obj
 0002:00021c90       ??$_Uninit_def_fill_n@PAPAVValue@Json@@IPAPAV12@PAPAV12@@std@@YAXPAPAPAVValue@Json@@IPBQAPAV12@AAV?$allocator@PAPAVValue@Json@@@0@0U_Scalar_ptr_iterator_tag@0@@Z 004ffc90 f i json_reader.obj
 0002:00021d00       ??$_Destroy_range@V?$allocator@PAPAVValue@Json@@@std@@@std@@YAXPAPAPAVValue@Json@@0AAV?$allocator@PAPAVValue@Json@@@0@U_Scalar_ptr_iterator_tag@0@@Z 004ffd00 f i json_reader.obj
 0002:00021d30       ??$_Uninitialized_move@PAUStructuredError@Reader@Json@@PAU123@V?$allocator@UStructuredError@Reader@Json@@@std@@@std@@YAPAUStructuredError@Reader@Json@@PAU123@00AAV?$allocator@UStructuredError@Reader@Json@@@0@@Z 004ffd30 f i json_reader.obj
 0002:00021dd0       ??$_Ptr_cat@UStructuredError@Reader@Json@@U123@@std@@YA?AU_Nonscalar_ptr_iterator_tag@0@PAUStructuredError@Reader@Json@@0@Z 004ffdd0 f i json_reader.obj
 0002:00021e40       ??$_Destroy_range@V?$allocator@UStructuredError@Reader@Json@@@std@@@std@@YAXPAUStructuredError@Reader@Json@@0AAV?$allocator@UStructuredError@Reader@Json@@@0@U_Nonscalar_ptr_iterator_tag@0@@Z 004ffe40 f i json_reader.obj
 0002:00021eb0       ??$_Move@PAUStructuredError@Reader@Json@@PAU123@@std@@YAPAUStructuredError@Reader@Json@@PAU123@00U_Nonscalar_ptr_iterator_tag@0@@Z 004ffeb0 f i json_reader.obj
 0002:00021f40       ??$_Destroy@PAVValue@Json@@@std@@YAXPAPAVValue@Json@@@Z 004fff40 f i json_reader.obj
 0002:00021f70       ??$_Destroy@PAPAVValue@Json@@@std@@YAXPAPAPAVValue@Json@@@Z 004fff70 f i json_reader.obj
 0002:00021fa0       ??$_Construct@VErrorInfo@Reader@Json@@ABV123@@std@@YAXPAVErrorInfo@Reader@Json@@ABV123@@Z 004fffa0 f i json_reader.obj
 0002:000220a0       ??$_Destroy@VErrorInfo@Reader@Json@@@std@@YAXPAVErrorInfo@Reader@Json@@@Z 005000a0 f i json_reader.obj
 0002:000220f0       ??$_Destroy@PAVErrorInfo@Reader@Json@@@std@@YAXPAPAVErrorInfo@Reader@Json@@@Z 005000f0 f i json_reader.obj
 0002:00022120       ??$_Construct@UStructuredError@Reader@Json@@ABU123@@std@@YAXPAUStructuredError@Reader@Json@@ABU123@@Z 00500120 f i json_reader.obj
 0002:00022220       ??$_Destroy@U_Container_proxy@std@@@std@@YAXPAU_Container_proxy@0@@Z 00500220 f i json_reader.obj
 0002:00022250       ??4ErrorInfo@Reader@Json@@QAEAAV012@ABV012@@Z 00500250 f i json_reader.obj
 0002:000222e0       ??4StructuredError@Reader@Json@@QAEAAU012@ABU012@@Z 005002e0 f i json_reader.obj
 0002:00022360       ??0ErrorInfo@Reader@Json@@QAE@ABV012@@Z 00500360 f i json_reader.obj
 0002:000223f0       ??_GErrorInfo@Reader@Json@@QAEPAXI@Z 005003f0 f i json_reader.obj
 0002:00022460       ??D?$_Deque_iterator@VErrorInfo@Reader@Json@@V?$allocator@VErrorInfo@Reader@Json@@@std@@@std@@QBEAAVErrorInfo@Reader@Json@@XZ 00500460 f i json_reader.obj
 0002:000224b0       ??E?$_Deque_iterator@VErrorInfo@Reader@Json@@V?$allocator@VErrorInfo@Reader@Json@@@std@@@std@@QAEAAV01@XZ 005004b0 f i json_reader.obj
 0002:00022510       ??F?$_Deque_iterator@VErrorInfo@Reader@Json@@V?$allocator@VErrorInfo@Reader@Json@@@std@@@std@@QAEAAV01@XZ 00500510 f i json_reader.obj
 0002:00022570       ??F?$_Deque_const_iterator@VErrorInfo@Reader@Json@@V?$allocator@VErrorInfo@Reader@Json@@@std@@@std@@QAEAAV01@XZ 00500570 f i json_reader.obj
 0002:000225c0       ??$_Cons_val@V?$allocator@VErrorInfo@Reader@Json@@@std@@VErrorInfo@Reader@Json@@V345@@std@@YAXAAV?$allocator@VErrorInfo@Reader@Json@@@0@PAVErrorInfo@Reader@Json@@$$QAV234@@Z 005005c0 f i json_reader.obj
 0002:00022620       ??$move@AAVErrorInfo@Reader@Json@@@std@@YA$$QAVErrorInfo@Reader@Json@@AAV123@@Z 00500620 f i json_reader.obj
 0002:00022660       ??$_Fill_n@PAPAVErrorInfo@Reader@Json@@IPAV123@@std@@YAXPAPAVErrorInfo@Reader@Json@@IABQAV123@@Z 00500660 f i json_reader.obj
 0002:000226c0       ??$_Fill_n@PAPAPAVValue@Json@@IPAPAV12@@std@@YAXPAPAPAVValue@Json@@IABQAPAV12@@Z 005006c0 f i json_reader.obj
 0002:00022720       ??$_Val_type@PAUStructuredError@Reader@Json@@@std@@YAPAUStructuredError@Reader@Json@@PAU123@@Z 00500720 f i json_reader.obj
 0002:00022750       ??$_Uninit_move@PAUStructuredError@Reader@Json@@PAU123@V?$allocator@UStructuredError@Reader@Json@@@std@@U123@@std@@YAPAUStructuredError@Reader@Json@@PAU123@00AAV?$allocator@UStructuredError@Reader@Json@@@0@0U_Nonscalar_ptr_iterator_tag@0@@Z 00500750 f i json_reader.obj
 0002:00022870       ??$_Dest_val@V?$allocator@UStructuredError@Reader@Json@@@std@@UStructuredError@Reader@Json@@@std@@YAXAAV?$allocator@UStructuredError@Reader@Json@@@0@PAUStructuredError@Reader@Json@@@Z 00500870 f i json_reader.obj
 0002:000228c0       ??$move@AAUStructuredError@Reader@Json@@@std@@YA$$QAUStructuredError@Reader@Json@@AAU123@@Z 005008c0 f i json_reader.obj
 0002:00022900       ?construct@?$allocator@VErrorInfo@Reader@Json@@@std@@QAEXPAVErrorInfo@Reader@Json@@$$QAV345@@Z 00500900 f i json_reader.obj
 0002:00022a00       ?destroy@?$allocator@UStructuredError@Reader@Json@@@std@@QAEXPAUStructuredError@Reader@Json@@@Z 00500a00 f i json_reader.obj
 0002:00022a60       ??$forward@VErrorInfo@Reader@Json@@@std@@YA$$QAVErrorInfo@Reader@Json@@AAV123@@Z 00500a60 f i json_reader.obj
 0002:00022aa0       ??$_Destroy@UStructuredError@Reader@Json@@@std@@YAXPAUStructuredError@Reader@Json@@@Z 00500aa0 f i json_reader.obj
 0002:00022af0       ??_GStructuredError@Reader@Json@@QAEPAXI@Z 00500af0 f i json_reader.obj
 0002:00022b60       ??0bad_alloc@std@@QAE@PBD@Z 00500b60 f i json_reader.obj
 0002:00022be0       ??1bad_alloc@std@@UAE@XZ   00500be0 f i json_reader.obj
 0002:00022c50       ??_Gbad_alloc@std@@UAEPAXI@Z 00500c50 f i json_reader.obj
 0002:00022c50       ??_Ebad_alloc@std@@UAEPAXI@Z 00500c50 f i json_reader.obj
 0002:00022cc0       ?length@?$char_traits@D@std@@SAIPBD@Z 00500cc0 f i json_reader.obj
 0002:00022d10       ?copy@?$char_traits@D@std@@SAPADPADPBDI@Z 00500d10 f i json_reader.obj
 0002:00022d70       ?find@?$char_traits@D@std@@SAPBDPBDIABD@Z 00500d70 f i json_reader.obj
 0002:00022de0       ?move@?$char_traits@D@std@@SAPADPADPBDI@Z 00500de0 f i json_reader.obj
 0002:00022e50       ?to_char_type@?$char_traits@D@std@@SADABH@Z 00500e50 f i json_reader.obj
 0002:00022e90       ?to_int_type@?$char_traits@D@std@@SAHABD@Z 00500e90 f i json_reader.obj
 0002:00022ed0       ?eq_int_type@?$char_traits@D@std@@SA_NABH0@Z 00500ed0 f i json_reader.obj
 0002:00022f20       ?eof@?$char_traits@D@std@@SAHXZ 00500f20 f i json_reader.obj
 0002:00022f60       ?_Adopt@_Iterator_base0@std@@QAEXPBX@Z 00500f60 f i json_reader.obj
 0002:00022fa0       ??0_Container_proxy@std@@QAE@XZ 00500fa0 f i json_reader.obj
 0002:00022ff0       ??0_Iterator_base12@std@@QAE@XZ 00500ff0 f i json_reader.obj
 0002:00023040       ??0_Iterator_base12@std@@QAE@ABU01@@Z 00501040 f i json_reader.obj
 0002:000230c0       ??4_Iterator_base12@std@@QAEAAU01@ABU01@@Z 005010c0 f i json_reader.obj
 0002:00023130       ??1_Iterator_base12@std@@QAE@XZ 00501130 f i json_reader.obj
 0002:00023170       ?_Adopt@_Iterator_base12@std@@QAEXPBU_Container_base12@2@@Z 00501170 f i json_reader.obj
 0002:000231d0       ?_Getcont@_Iterator_base12@std@@QBEPBU_Container_base12@2@XZ 005011d0 f i json_reader.obj
 0002:00023240       ??0runtime_error@std@@QAE@PBD@Z 00501240 f i json_reader.obj
 0002:000232c0       ??_Eruntime_error@std@@UAEPAXI@Z 005012c0 f i json_reader.obj
 0002:000232c0       ??_Gruntime_error@std@@UAEPAXI@Z 005012c0 f i json_reader.obj
 0002:00023330       ??1runtime_error@std@@UAE@XZ 00501330 f i json_reader.obj
 0002:00023390       ??0runtime_error@std@@QAE@ABV01@@Z 00501390 f i json_reader.obj
 0002:00023410       ??1sentry@?$basic_istream@DU?$char_traits@D@std@@@std@@QAE@XZ 00501410 f i json_reader.obj
 0002:00023460       ??0?$basic_string@DU?$char_traits@D@std@@V?$allocator@D@2@@std@@QAE@XZ 00501460 f i json_reader.obj
 0002:00023520       ??0?$basic_string@DU?$char_traits@D@std@@V?$allocator@D@2@@std@@QAE@PBD@Z 00501520 f i json_reader.obj
 0002:000235f0       ??0?$basic_string@DU?$char_traits@D@std@@V?$allocator@D@2@@std@@QAE@$$QAV01@@Z 005015f0 f i json_reader.obj
 0002:000236e0       ??1?$basic_string@DU?$char_traits@D@std@@V?$allocator@D@2@@std@@QAE@XZ 005016e0 f i json_reader.obj
 0002:00023790       ??4?$basic_string@DU?$char_traits@D@std@@V?$allocator@D@2@@std@@QAEAAV01@PBD@Z 00501790 f i json_reader.obj
 0002:000237f0       ?c_str@?$basic_string@DU?$char_traits@D@std@@V?$allocator@D@2@@std@@QBEPBDXZ 005017f0 f i json_reader.obj
 0002:00023840       ?size@?$basic_string@DU?$char_traits@D@std@@V?$allocator@D@2@@std@@QBEIXZ 00501840 f i json_reader.obj
 0002:00023880       ??0sentry@?$basic_istream@DU?$char_traits@D@std@@@std@@QAE@AAV12@_N@Z 00501880 f i json_reader.obj
 0002:00023950       ??Bsentry@?$basic_istream@DU?$char_traits@D@std@@@std@@QBEPQ_Bool_struct@2@HXZ 00501950 f i json_reader.obj
 0002:000239a0       ??1_Sentry_base@?$basic_istream@DU?$char_traits@D@std@@@std@@QAE@XZ 005019a0 f i json_reader.obj
 0002:00023a60       ?assign@?$basic_string@DU?$char_traits@D@std@@V?$allocator@D@2@@std@@QAEAAV12@$$QAV12@@Z 00501a60 f i json_reader.obj
 0002:00023ba0       ??Y?$basic_string@DU?$char_traits@D@std@@V?$allocator@D@2@@std@@QAEAAV01@ABV01@@Z 00501ba0 f i json_reader.obj
 0002:00023c00       ??Y?$basic_string@DU?$char_traits@D@std@@V?$allocator@D@2@@std@@QAEAAV01@D@Z 00501c00 f i json_reader.obj
 0002:00023c60       ?assign@?$basic_string@DU?$char_traits@D@std@@V?$allocator@D@2@@std@@QAEAAV12@PBD@Z 00501c60 f i json_reader.obj
 0002:00023cd0       ?_Tidy@?$basic_string@DU?$char_traits@D@std@@V?$allocator@D@2@@std@@QAEX_NI@Z 00501cd0 f i json_reader.obj
 0002:00023da0       ?_Myptr@?$basic_string@DU?$char_traits@D@std@@V?$allocator@D@2@@std@@QBEPBDXZ 00501da0 f i json_reader.obj
 0002:00023e10       ??0?$_String_val@DV?$allocator@D@std@@@std@@QAE@V?$allocator@D@1@@Z 00501e10 f i json_reader.obj
 0002:00023e70       ??1?$_String_val@DV?$allocator@D@std@@@std@@QAE@XZ 00501e70 f i json_reader.obj
 0002:00023eb0       ??0?$allocator@D@std@@QAE@XZ 00501eb0 f i json_reader.obj
 0002:00023ef0       ??0?$allocator@D@std@@QAE@ABV01@@Z 00501ef0 f i json_reader.obj
 0002:00023f30       ??0_Sentry_base@?$basic_istream@DU?$char_traits@D@std@@@std@@QAE@AAV12@@Z 00501f30 f i json_reader.obj
 0002:00024000       ??4?$basic_string@DU?$char_traits@D@std@@V?$allocator@D@2@@std@@QAEAAV01@ABV01@@Z 00502000 f i json_reader.obj
 0002:00024060       ?append@?$basic_string@DU?$char_traits@D@std@@V?$allocator@D@2@@std@@QAEAAV12@ABV12@@Z 00502060 f i json_reader.obj
 0002:000240c0       ?append@?$basic_string@DU?$char_traits@D@std@@V?$allocator@D@2@@std@@QAEAAV12@PBDI@Z 005020c0 f i json_reader.obj
 0002:000241d0       ?append@?$basic_string@DU?$char_traits@D@std@@V?$allocator@D@2@@std@@QAEAAV12@ID@Z 005021d0 f i json_reader.obj
 0002:000242a0       ?assign@?$basic_string@DU?$char_traits@D@std@@V?$allocator@D@2@@std@@QAEAAV12@PBDI@Z 005022a0 f i json_reader.obj
 0002:00024380       ??A?$basic_string@DU?$char_traits@D@std@@V?$allocator@D@2@@std@@QAEAADI@Z 00502380 f i json_reader.obj
 0002:000243e0       ?get_allocator@?$basic_string@DU?$char_traits@D@std@@V?$allocator@D@2@@std@@QBE?AV?$allocator@D@2@XZ 005023e0 f i json_reader.obj
 0002:00024440       ?_Eos@?$basic_string@DU?$char_traits@D@std@@V?$allocator@D@2@@std@@QAEXI@Z 00502440 f i json_reader.obj
 0002:000244c0       ?assign@?$char_traits@D@std@@SAXAADABD@Z 005024c0 f i json_reader.obj
 0002:00024500       ?_Myptr@?$basic_string@DU?$char_traits@D@std@@V?$allocator@D@2@@std@@QAEPADXZ 00502500 f i json_reader.obj
 0002:00024570       ?_Xran@?$basic_string@DU?$char_traits@D@std@@V?$allocator@D@2@@std@@QBEXXZ 00502570 f i json_reader.obj
 0002:000245d0       ?deallocate@?$allocator@D@std@@QAEXPADI@Z 005025d0 f i json_reader.obj
 0002:00024630       ?append@?$basic_string@DU?$char_traits@D@std@@V?$allocator@D@2@@std@@QAEAAV12@ABV12@II@Z 00502630 f i json_reader.obj
 0002:00024750       ?assign@?$basic_string@DU?$char_traits@D@std@@V?$allocator@D@2@@std@@QAEAAV12@ABV12@@Z 00502750 f i json_reader.obj
 0002:000247b0       ?assign@?$basic_string@DU?$char_traits@D@std@@V?$allocator@D@2@@std@@QAEAAV12@ABV12@II@Z 005027b0 f i json_reader.obj
 0002:000248d0       ?_Chassign@?$basic_string@DU?$char_traits@D@std@@V?$allocator@D@2@@std@@QAEXIID@Z 005028d0 f i json_reader.obj
 0002:00024970       ?assign@?$char_traits@D@std@@SAPADPADID@Z 00502970 f i json_reader.obj
 0002:000249d0       ?_Grow@?$basic_string@DU?$char_traits@D@std@@V?$allocator@D@2@@std@@QAE_NI_N@Z 005029d0 f i json_reader.obj
 0002:00024ad0       ?_Inside@?$basic_string@DU?$char_traits@D@std@@V?$allocator@D@2@@std@@QAE_NPBD@Z 00502ad0 f i json_reader.obj
 0002:00024b50       ?_Xlen@?$basic_string@DU?$char_traits@D@std@@V?$allocator@D@2@@std@@QBEXXZ 00502b50 f i json_reader.obj
 0002:00024bb0       ?erase@?$basic_string@DU?$char_traits@D@std@@V?$allocator@D@2@@std@@QAEAAV12@II@Z 00502bb0 f i json_reader.obj
 0002:00024ca0       ?max_size@?$basic_string@DU?$char_traits@D@std@@V?$allocator@D@2@@std@@QBEIXZ 00502ca0 f i json_reader.obj
 0002:00024d30       ?_Copy@?$basic_string@DU?$char_traits@D@std@@V?$allocator@D@2@@std@@QAEXII@Z 00502d30 f i json_reader.obj
 0002:00024f60       ?allocate@?$allocator@D@std@@QAEPADI@Z 00502f60 f i json_reader.obj
 0002:00024fc0       ?max_size@?$allocator@D@std@@QBEIXZ 00502fc0 f i json_reader.obj
 0002:00025030       ??$forward@V?$allocator@D@std@@@std@@YA$$QAV?$allocator@D@0@AAV10@@Z 00503030 f i json_reader.obj
 0002:00025070       ??$forward@V?$basic_string@DU?$char_traits@D@std@@V?$allocator@D@2@@std@@@std@@YA$$QAV?$basic_string@DU?$char_traits@D@std@@V?$allocator@D@2@@0@AAV10@@Z 00503070 f i json_reader.obj
 0002:000250b0       ??$?9DD@std@@YA_NABV?$allocator@D@0@0@Z 005030b0 f i json_reader.obj
 0002:00025110       ??$_Allocate@D@std@@YAPADIPAD@Z 00503110 f i json_reader.obj
 0002:000251c0       ??0bad_alloc@std@@QAE@ABV01@@Z 005031c0 f i json_reader.obj
 0002:00025240       ??$?8DD@std@@YA_NABV?$allocator@D@0@0@Z 00503240 f i json_reader.obj
 0002:00025270       ??0ValueIteratorBase@Json@@QAE@XZ 00503270 f   json_value.obj
 0002:000252d0       ??0ValueIteratorBase@Json@@QAE@ABV?$_Tree_iterator@V?$_Tree_val@V?$_Tmap_traits@VCZString@Value@Json@@V23@U?$less@VCZString@Value@Json@@@std@@V?$allocator@U?$pair@$$CBVCZString@Value@Json@@V23@@std@@@5@$0A@@std@@@std@@@std@@@Z 005032d0 f   json_value.obj
 0002:00025320       ?deref@ValueIteratorBase@Json@@IBEAAVValue@2@XZ 00503320 f   json_value.obj
 0002:00025380       ?increment@ValueIteratorBase@Json@@IAEXXZ 00503380 f   json_value.obj
 0002:000253d0       ?decrement@ValueIteratorBase@Json@@IAEXXZ 005033d0 f   json_value.obj
 0002:00025420       ?computeDistance@ValueIteratorBase@Json@@IBEHABV12@@Z 00503420 f   json_value.obj
 0002:00025510       ?isEqual@ValueIteratorBase@Json@@IBE_NABV12@@Z 00503510 f   json_value.obj
 0002:00025580       ?copy@ValueIteratorBase@Json@@IAEXABV12@@Z 00503580 f   json_value.obj
 0002:000255e0       ?key@ValueIteratorBase@Json@@QBE?AVValue@2@XZ 005035e0 f   json_value.obj
 0002:000257b0       ?index@ValueIteratorBase@Json@@QBEIXZ 005037b0 f   json_value.obj
 0002:000258f0       ?memberName@ValueIteratorBase@Json@@QBEPBDXZ 005038f0 f   json_value.obj
 0002:00025980       ??0ValueConstIterator@Json@@QAE@XZ 00503980 f   json_value.obj
 0002:000259e0       ??0ValueConstIterator@Json@@AAE@ABV?$_Tree_iterator@V?$_Tree_val@V?$_Tmap_traits@VCZString@Value@Json@@V23@U?$less@VCZString@Value@Json@@@std@@V?$allocator@U?$pair@$$CBVCZString@Value@Json@@V23@@std@@@5@$0A@@std@@@std@@@std@@@Z 005039e0 f   json_value.obj
 0002:00025a40       ??4ValueConstIterator@Json@@QAEAAV01@ABVValueIteratorBase@1@@Z 00503a40 f   json_value.obj
 0002:00025aa0       ??0ValueIterator@Json@@QAE@XZ 00503aa0 f   json_value.obj
 0002:00025b00       ??0ValueIterator@Json@@AAE@ABV?$_Tree_iterator@V?$_Tree_val@V?$_Tmap_traits@VCZString@Value@Json@@V23@U?$less@VCZString@Value@Json@@@std@@V?$allocator@U?$pair@$$CBVCZString@Value@Json@@V23@@std@@@5@$0A@@std@@@std@@@std@@@Z 00503b00 f   json_value.obj
 0002:00025b60       ??0ValueIterator@Json@@QAE@ABVValueConstIterator@1@@Z 00503b60 f   json_value.obj
 0002:00025bb0       ??0ValueIterator@Json@@QAE@ABV01@@Z 00503bb0 f   json_value.obj
 0002:00025c00       ??4ValueIterator@Json@@QAEAAV01@ABV01@@Z 00503c00 f   json_value.obj
 0002:00025c60       ??0CommentInfo@Value@Json@@QAE@XZ 00503c60 f   json_value.obj
 0002:00025cb0       ??1CommentInfo@Value@Json@@QAE@XZ 00503cb0 f   json_value.obj
 0002:00025d70       ?setComment@CommentInfo@Value@Json@@QAEXPBD@Z 00503d70 f   json_value.obj
 0002:00025f60       ??0CZString@Value@Json@@QAE@I@Z 00503f60 f   json_value.obj
 0002:00025fc0       ??0CZString@Value@Json@@QAE@PBDW4DuplicationPolicy@012@@Z 00503fc0 f   json_value.obj
 0002:00026060       ??0CZString@Value@Json@@QAE@ABV012@@Z 00504060 f   json_value.obj
 0002:00026140       ??1CZString@Value@Json@@QAE@XZ 00504140 f   json_value.obj
 0002:000261b0       ?swap@CZString@Value@Json@@AAEXAAV123@@Z 005041b0 f   json_value.obj
 0002:00026230       ??4CZString@Value@Json@@QAEAAV012@V012@@Z 00504230 f   json_value.obj
 0002:000262f0       ??MCZString@Value@Json@@QBE_NABV012@@Z 005042f0 f   json_value.obj
 0002:00026380       ??8CZString@Value@Json@@QBE_NABV012@@Z 00504380 f   json_value.obj
 0002:00026410       ?index@CZString@Value@Json@@QBEIXZ 00504410 f   json_value.obj
 0002:00026450       ?c_str@CZString@Value@Json@@QBEPBDXZ 00504450 f   json_value.obj
 0002:00026490       ?isStaticString@CZString@Value@Json@@QBE_NXZ 00504490 f   json_value.obj
 0002:000264e0       ??0Value@Json@@QAE@W4ValueType@1@@Z 005044e0 f   json_value.obj
 0002:00026710       ??0Value@Json@@QAE@I@Z     00504710 f   json_value.obj
 0002:000267c0       ??0Value@Json@@QAE@H@Z     005047c0 f   json_value.obj
 0002:00026860       ??0Value@Json@@QAE@_J@Z    00504860 f   json_value.obj
 0002:00026910       ??0Value@Json@@QAE@_K@Z    00504910 f   json_value.obj
 0002:000269c0       ??0Value@Json@@QAE@N@Z     005049c0 f   json_value.obj
 0002:00026a60       ??0Value@Json@@QAE@PBD@Z   00504a60 f   json_value.obj
 0002:00026b20       ??0Value@Json@@QAE@PBD0@Z  00504b20 f   json_value.obj
 0002:00026be0       ??0Value@Json@@QAE@ABV?$basic_string@DU?$char_traits@D@std@@V?$allocator@D@2@@std@@@Z 00504be0 f   json_value.obj
 0002:00026cb0       ??0Value@Json@@QAE@ABVStaticString@1@@Z 00504cb0 f   json_value.obj
 0002:00026d70       ??0Value@Json@@QAE@_N@Z    00504d70 f   json_value.obj
 0002:00026e10       ??0Value@Json@@QAE@ABV01@@Z 00504e10 f   json_value.obj
 0002:000271a0       ??_ECommentInfo@Value@Json@@QAEPAXI@Z 005051a0 f i json_value.obj
 0002:00027260       ??1Value@Json@@QAE@XZ      00505260 f   json_value.obj
 0002:00027410       ??_G?$map@VCZString@Value@Json@@V23@U?$less@VCZString@Value@Json@@@std@@V?$allocator@U?$pair@$$CBVCZString@Value@Json@@V23@@std@@@5@@std@@QAEPAXI@Z 00505410 f i json_value.obj
 0002:00027480       ??1?$map@VCZString@Value@Json@@V23@U?$less@VCZString@Value@Json@@@std@@V?$allocator@U?$pair@$$CBVCZString@Value@Json@@V23@@std@@@5@@std@@QAE@XZ 00505480 f i json_value.obj
 0002:000274d0       ??4Value@Json@@QAEAAV01@V01@@Z 005054d0 f   json_value.obj
 0002:00027590       ?swap@Value@Json@@QAEXAAV12@@Z 00505590 f   json_value.obj
 0002:000276f0       ?type@Value@Json@@QBE?AW4ValueType@2@XZ 005056f0 f   json_value.obj
 0002:00027740       ?compare@Value@Json@@QBEHABV12@@Z 00505740 f   json_value.obj
 0002:000277d0       ??MValue@Json@@QBE_NABV01@@Z 005057d0 f   json_value.obj
 0002:00027af0       ??NValue@Json@@QBE_NABV01@@Z 00505af0 f   json_value.obj
 0002:00027b60       ??PValue@Json@@QBE_NABV01@@Z 00505b60 f   json_value.obj
 0002:00027bd0       ??OValue@Json@@QBE_NABV01@@Z 00505bd0 f   json_value.obj
 0002:00027c30       ??8Value@Json@@QBE_NABV01@@Z 00505c30 f   json_value.obj
 0002:00027f60       ??9Value@Json@@QBE_NABV01@@Z 00505f60 f   json_value.obj
 0002:00027fd0       ?asCString@Value@Json@@QBEPBDXZ 00505fd0 f   json_value.obj
 0002:00028060       ?asString@Value@Json@@QBE?AV?$basic_string@DU?$char_traits@D@std@@V?$allocator@D@2@@std@@XZ 00506060 f   json_value.obj
 0002:000282b0       ?asInt@Value@Json@@QBEHXZ  005062b0 f   json_value.obj
 0002:00028490       ?asUInt@Value@Json@@QBEIXZ 00506490 f   json_value.obj
 0002:00028690       ?asInt64@Value@Json@@QBE_JXZ 00506690 f   json_value.obj
 0002:00028840       ?asUInt64@Value@Json@@QBE_KXZ 00506840 f   json_value.obj
 0002:000289e0       ?asLargestInt@Value@Json@@QBE_JXZ 005069e0 f   json_value.obj
 0002:00028a30       ?asLargestUInt@Value@Json@@QBE_KXZ 00506a30 f   json_value.obj
 0002:00028a80       ?asDouble@Value@Json@@QBENXZ 00506a80 f   json_value.obj
 0002:00028c00       ?asFloat@Value@Json@@QBEMXZ 00506c00 f   json_value.obj
 0002:00028d90       ?asBool@Value@Json@@QBE_NXZ 00506d90 f   json_value.obj
 0002:00028f20       ?isConvertibleTo@Value@Json@@QBE_NW4ValueType@2@@Z 00506f20 f   json_value.obj
 0002:00029510       ?size@Value@Json@@QBEIXZ   00507510 f   json_value.obj
 0002:00029690       ?empty@Value@Json@@QBE_NXZ 00507690 f   json_value.obj
 0002:00029730       ??7Value@Json@@QBE_NXZ     00507730 f   json_value.obj
 0002:00029780       ?clear@Value@Json@@QAEXXZ  00507780 f   json_value.obj
 0002:00029890       ?resize@Value@Json@@QAEXI@Z 00507890 f   json_value.obj
 0002:00029a90       ??AValue@Json@@QAEAAV01@I@Z 00507a90 f   json_value.obj
 0002:00029d40       ??1?$pair@$$CBVCZString@Value@Json@@V23@@std@@QAE@XZ 00507d40 f i json_value.obj
 0002:00029d90       ??1?$_Pair_base@$$CBVCZString@Value@Json@@V23@@std@@QAE@XZ 00507d90 f i json_value.obj
 0002:00029e40       ??AValue@Json@@QAEAAV01@H@Z 00507e40 f   json_value.obj
 0002:00029ed0       ??AValue@Json@@QBEABV01@I@Z 00507ed0 f   json_value.obj
 0002:0002a0d0       ??AValue@Json@@QBEABV01@H@Z 005080d0 f   json_value.obj
 0002:0002a160       ??AValue@Json@@QAEAAV01@PBD@Z 00508160 f   json_value.obj
 0002:0002a1c0       ?resolveReference@Value@Json@@AAEAAV12@PBD_N@Z 005081c0 f   json_value.obj
 0002:0002a490       ?get@Value@Json@@QBE?AV12@IABV12@@Z 00508490 f   json_value.obj
 0002:0002a560       ?isValidIndex@Value@Json@@QBE_NI@Z 00508560 f   json_value.obj
 0002:0002a5c0       ??AValue@Json@@QBEABV01@PBD@Z 005085c0 f   json_value.obj
 0002:0002a7c0       ??AValue@Json@@QAEAAV01@ABV?$basic_string@DU?$char_traits@D@std@@V?$allocator@D@2@@std@@@Z 005087c0 f   json_value.obj
 0002:0002a820       ??AValue@Json@@QBEABV01@ABV?$basic_string@DU?$char_traits@D@std@@V?$allocator@D@2@@std@@@Z 00508820 f   json_value.obj
 0002:0002a880       ??AValue@Json@@QAEAAV01@ABVStaticString@1@@Z 00508880 f   json_value.obj
 0002:0002a8e0       ?append@Value@Json@@QAEAAV12@ABV12@@Z 005088e0 f   json_value.obj
 0002:0002a9d0       ?get@Value@Json@@QBE?AV12@PBDABV12@@Z 005089d0 f   json_value.obj
 0002:0002aaa0       ?get@Value@Json@@QBE?AV12@ABV?$basic_string@DU?$char_traits@D@std@@V?$allocator@D@2@@std@@ABV12@@Z 00508aa0 f   json_value.obj
 0002:0002ab30       ?removeMember@Value@Json@@QAE?AV12@PBD@Z 00508b30 f   json_value.obj
 0002:0002ade0       ?removeMember@Value@Json@@QAE?AV12@ABV?$basic_string@DU?$char_traits@D@std@@V?$allocator@D@2@@std@@@Z 00508de0 f   json_value.obj
 0002:0002ae70       ?isMember@Value@Json@@QBE_NPBD@Z 00508e70 f   json_value.obj
 0002:0002aee0       ?isMember@Value@Json@@QBE_NABV?$basic_string@DU?$char_traits@D@std@@V?$allocator@D@2@@std@@@Z 00508ee0 f   json_value.obj
 0002:0002af40       ?getMemberNames@Value@Json@@QBE?AV?$vector@V?$basic_string@DU?$char_traits@D@std@@V?$allocator@D@2@@std@@V?$allocator@V?$basic_string@DU?$char_traits@D@std@@V?$allocator@D@2@@std@@@2@@std@@XZ 00508f40 f   json_value.obj
 0002:0002b200       ?isNull@Value@Json@@QBE_NXZ 00509200 f   json_value.obj
 0002:0002b250       ?isBool@Value@Json@@QBE_NXZ 00509250 f   json_value.obj
 0002:0002b2a0       ?isInt@Value@Json@@QBE_NXZ 005092a0 f   json_value.obj
 0002:0002b560       ?isUInt@Value@Json@@QBE_NXZ 00509560 f   json_value.obj
 0002:0002b730       ?isInt64@Value@Json@@QBE_NXZ 00509730 f   json_value.obj
 0002:0002b8c0       ?isUInt64@Value@Json@@QBE_NXZ 005098c0 f   json_value.obj
 0002:0002ba10       ?isIntegral@Value@Json@@QBE_NXZ 00509a10 f   json_value.obj
 0002:0002baa0       ?isDouble@Value@Json@@QBE_NXZ 00509aa0 f   json_value.obj
 0002:0002bb30       ?isNumeric@Value@Json@@QBE_NXZ 00509b30 f   json_value.obj
 0002:0002bbc0       ?isString@Value@Json@@QBE_NXZ 00509bc0 f   json_value.obj
 0002:0002bc10       ?isArray@Value@Json@@QBE_NXZ 00509c10 f   json_value.obj
 0002:0002bc60       ?isObject@Value@Json@@QBE_NXZ 00509c60 f   json_value.obj
 0002:0002bcb0       ?setComment@Value@Json@@QAEXPBDW4CommentPlacement@2@@Z 00509cb0 f   json_value.obj
 0002:0002be00       ?setComment@Value@Json@@QAEXABV?$basic_string@DU?$char_traits@D@std@@V?$allocator@D@2@@std@@W4CommentPlacement@2@@Z 00509e00 f   json_value.obj
 0002:0002be70       ?hasComment@Value@Json@@QBE_NW4CommentPlacement@2@@Z 00509e70 f   json_value.obj
 0002:0002bef0       ?getComment@Value@Json@@QBE?AV?$basic_string@DU?$char_traits@D@std@@V?$allocator@D@2@@std@@W4CommentPlacement@2@@Z 00509ef0 f   json_value.obj
 0002:0002bfc0       ?setOffsetStart@Value@Json@@QAEXI@Z 00509fc0 f   json_value.obj
 0002:0002c010       ?setOffsetLimit@Value@Json@@QAEXI@Z 0050a010 f   json_value.obj
 0002:0002c060       ?getOffsetStart@Value@Json@@QBEIXZ 0050a060 f   json_value.obj
 0002:0002c0a0       ?getOffsetLimit@Value@Json@@QBEIXZ 0050a0a0 f   json_value.obj
 0002:0002c0e0       ?toStyledString@Value@Json@@QBE?AV?$basic_string@DU?$char_traits@D@std@@V?$allocator@D@2@@std@@XZ 0050a0e0 f   json_value.obj
 0002:0002c200       ?begin@Value@Json@@QBE?AVValueConstIterator@2@XZ 0050a200 f   json_value.obj
 0002:0002c2c0       ?end@Value@Json@@QBE?AVValueConstIterator@2@XZ 0050a2c0 f   json_value.obj
 0002:0002c380       ?begin@Value@Json@@QAE?AVValueIterator@2@XZ 0050a380 f   json_value.obj
 0002:0002c440       ?end@Value@Json@@QAE?AVValueIterator@2@XZ 0050a440 f   json_value.obj
 0002:0002c500       ??0PathArgument@Json@@QAE@XZ 0050a500 f   json_value.obj
 0002:0002c570       ??0PathArgument@Json@@QAE@I@Z 0050a570 f   json_value.obj
 0002:0002c5e0       ??0PathArgument@Json@@QAE@PBD@Z 0050a5e0 f   json_value.obj
 0002:0002c660       ??0PathArgument@Json@@QAE@ABV?$basic_string@DU?$char_traits@D@std@@V?$allocator@D@2@@std@@@Z 0050a660 f   json_value.obj
 0002:0002c6e0       ??0Path@Json@@QAE@ABV?$basic_string@DU?$char_traits@D@std@@V?$allocator@D@2@@std@@ABVPathArgument@1@1111@Z 0050a6e0 f   json_value.obj
 0002:0002c830       ?makePath@Path@Json@@AAEXABV?$basic_string@DU?$char_traits@D@std@@V?$allocator@D@2@@std@@ABV?$vector@PBVPathArgument@Json@@V?$allocator@PBVPathArgument@Json@@@std@@@4@@Z 0050a830 f   json_value.obj
 0002:0002cbd0       ?addPathInArg@Path@Json@@AAEXABV?$basic_string@DU?$char_traits@D@std@@V?$allocator@D@2@@std@@ABV?$vector@PBVPathArgument@Json@@V?$allocator@PBVPathArgument@Json@@@std@@@4@AAV?$_Vector_const_iterator@V?$_Vector_val@PBVPathArgument@Json@@V?$allocator@PBVPathArgument@Json@@@std@@@std@@@4@W4Kind@PathArgument@2@@Z 0050abd0 f   json_value.obj
 0002:0002cc80       ?invalidPath@Path@Json@@AAEXABV?$basic_string@DU?$char_traits@D@std@@V?$allocator@D@2@@std@@H@Z 0050ac80 f   json_value.obj
 0002:0002ccc0       ?resolve@Path@Json@@QBEABVValue@2@ABV32@@Z 0050acc0 f   json_value.obj
 0002:0002ce10       ?resolve@Path@Json@@QBE?AVValue@2@ABV32@0@Z 0050ae10 f   json_value.obj
 0002:0002d030       ?make@Path@Json@@QBEAAVValue@2@AAV32@@Z 0050b030 f   json_value.obj
 0002:0002d160       ??0?$vector@PBVPathArgument@Json@@V?$allocator@PBVPathArgument@Json@@@std@@@std@@QAE@XZ 0050b160 f i json_value.obj
 0002:0002d1d0       ?push_back@?$vector@PBVPathArgument@Json@@V?$allocator@PBVPathArgument@Json@@@std@@@std@@QAEX$$QAPBVPathArgument@Json@@@Z 0050b1d0 f i json_value.obj
 0002:0002d360       ??1?$vector@PBVPathArgument@Json@@V?$allocator@PBVPathArgument@Json@@@std@@@std@@QAE@XZ 0050b360 f i json_value.obj
 0002:0002d400       ?begin@?$vector@PBVPathArgument@Json@@V?$allocator@PBVPathArgument@Json@@@std@@@std@@QBE?AV?$_Vector_const_iterator@V?$_Vector_val@PBVPathArgument@Json@@V?$allocator@PBVPathArgument@Json@@@std@@@std@@@2@XZ 0050b400 f i json_value.obj
 0002:0002d470       ?end@?$vector@PBVPathArgument@Json@@V?$allocator@PBVPathArgument@Json@@@std@@@std@@QBE?AV?$_Vector_const_iterator@V?$_Vector_val@PBVPathArgument@Json@@V?$allocator@PBVPathArgument@Json@@@std@@@std@@@2@XZ 0050b470 f i json_value.obj
 0002:0002d4e0       ??0?$vector@VPathArgument@Json@@V?$allocator@VPathArgument@Json@@@std@@@std@@QAE@XZ 0050b4e0 f i json_value.obj
 0002:0002d550       ?push_back@?$vector@VPathArgument@Json@@V?$allocator@VPathArgument@Json@@@std@@@std@@QAEX$$QAVPathArgument@Json@@@Z 0050b550 f i json_value.obj
 0002:0002d6e0       ??1?$vector@VPathArgument@Json@@V?$allocator@VPathArgument@Json@@@std@@@std@@QAE@XZ 0050b6e0 f i json_value.obj
 0002:0002d780       ?begin@?$vector@VPathArgument@Json@@V?$allocator@VPathArgument@Json@@@std@@@std@@QBE?AV?$_Vector_const_iterator@V?$_Vector_val@VPathArgument@Json@@V?$allocator@VPathArgument@Json@@@std@@@std@@@2@XZ 0050b780 f i json_value.obj
 0002:0002d7f0       ?end@?$vector@VPathArgument@Json@@V?$allocator@VPathArgument@Json@@@std@@@std@@QBE?AV?$_Vector_const_iterator@V?$_Vector_val@VPathArgument@Json@@V?$allocator@VPathArgument@Json@@@std@@@std@@@2@XZ 0050b7f0 f i json_value.obj
 0002:0002d860       ?push_back@?$vector@VPathArgument@Json@@V?$allocator@VPathArgument@Json@@@std@@@std@@QAEXABVPathArgument@Json@@@Z 0050b860 f i json_value.obj
 0002:0002d9e0       ??0?$map@VCZString@Value@Json@@V23@U?$less@VCZString@Value@Json@@@std@@V?$allocator@U?$pair@$$CBVCZString@Value@Json@@V23@@std@@@5@@std@@QAE@XZ 0050b9e0 f i json_value.obj
 0002:0002da50       ??0?$map@VCZString@Value@Json@@V23@U?$less@VCZString@Value@Json@@@std@@V?$allocator@U?$pair@$$CBVCZString@Value@Json@@V23@@std@@@5@@std@@QAE@ABV01@@Z 0050ba50 f i json_value.obj
 0002:0002dab0       ??1?$_Tree@V?$_Tmap_traits@VCZString@Value@Json@@V23@U?$less@VCZString@Value@Json@@@std@@V?$allocator@U?$pair@$$CBVCZString@Value@Json@@V23@@std@@@5@$0A@@std@@@std@@QAE@XZ 0050bab0 f i json_value.obj
 0002:0002db50       ?begin@?$_Tree@V?$_Tmap_traits@VCZString@Value@Json@@V23@U?$less@VCZString@Value@Json@@@std@@V?$allocator@U?$pair@$$CBVCZString@Value@Json@@V23@@std@@@5@$0A@@std@@@std@@QAE?AV?$_Tree_iterator@V?$_Tree_val@V?$_Tmap_traits@VCZString@Value@Json@@V23@U?$less@VCZString@Value@Json@@@std@@V?$allocator@U?$pair@$$CBVCZString@Value@Json@@V23@@std@@@5@$0A@@std@@@std@@@2@XZ 0050bb50 f i json_value.obj
 0002:0002dbc0       ?end@?$_Tree@V?$_Tmap_traits@VCZString@Value@Json@@V23@U?$less@VCZString@Value@Json@@@std@@V?$allocator@U?$pair@$$CBVCZString@Value@Json@@V23@@std@@@5@$0A@@std@@@std@@QAE?AV?$_Tree_iterator@V?$_Tree_val@V?$_Tmap_traits@VCZString@Value@Json@@V23@U?$less@VCZString@Value@Json@@@std@@V?$allocator@U?$pair@$$CBVCZString@Value@Json@@V23@@std@@@5@$0A@@std@@@std@@@2@XZ 0050bbc0 f i json_value.obj
 0002:0002dc30       ?size@?$_Tree@V?$_Tmap_traits@VCZString@Value@Json@@V23@U?$less@VCZString@Value@Json@@@std@@V?$allocator@U?$pair@$$CBVCZString@Value@Json@@V23@@std@@@5@$0A@@std@@@std@@QBEIXZ 0050bc30 f i json_value.obj
 0002:0002dc70       ?empty@?$_Tree@V?$_Tmap_traits@VCZString@Value@Json@@V23@U?$less@VCZString@Value@Json@@@std@@V?$allocator@U?$pair@$$CBVCZString@Value@Json@@V23@@std@@@5@$0A@@std@@@std@@QBE_NXZ 0050bc70 f i json_value.obj
 0002:0002dcd0       ?erase@?$_Tree@V?$_Tmap_traits@VCZString@Value@Json@@V23@U?$less@VCZString@Value@Json@@@std@@V?$allocator@U?$pair@$$CBVCZString@Value@Json@@V23@@std@@@5@$0A@@std@@@std@@QAE?AV?$_Tree_iterator@V?$_Tree_val@V?$_Tmap_traits@VCZString@Value@Json@@V23@U?$less@VCZString@Value@Json@@@std@@V?$allocator@U?$pair@$$CBVCZString@Value@Json@@V23@@std@@@5@$0A@@std@@@std@@@2@V?$_Tree_const_iterator@V?$_Tree_val@V?$_Tmap_traits@VCZString@Value@Json@@V23@U?$less@VCZString@Value@Json@@@std@@V?$allocator@U?$pair@$$CBVCZString@Value@Json@@V23@@std@@@5@$0A@@std@@@std@@@2@@Z 0050bcd0 f i json_value.obj
 0002:0002e690       ?erase@?$_Tree@V?$_Tmap_traits@VCZString@Value@Json@@V23@U?$less@VCZString@Value@Json@@@std@@V?$allocator@U?$pair@$$CBVCZString@Value@Json@@V23@@std@@@5@$0A@@std@@@std@@QAEIABVCZString@Value@Json@@@Z 0050c690 f i json_value.obj
 0002:0002e7a0       ?clear@?$_Tree@V?$_Tmap_traits@VCZString@Value@Json@@V23@U?$less@VCZString@Value@Json@@@std@@V?$allocator@U?$pair@$$CBVCZString@Value@Json@@V23@@std@@@5@$0A@@std@@@std@@QAEXXZ 0050c7a0 f i json_value.obj
 0002:0002e850       ?find@?$_Tree@V?$_Tmap_traits@VCZString@Value@Json@@V23@U?$less@VCZString@Value@Json@@@std@@V?$allocator@U?$pair@$$CBVCZString@Value@Json@@V23@@std@@@5@$0A@@std@@@std@@QAE?AV?$_Tree_iterator@V?$_Tree_val@V?$_Tmap_traits@VCZString@Value@Json@@V23@U?$less@VCZString@Value@Json@@@std@@V?$allocator@U?$pair@$$CBVCZString@Value@Json@@V23@@std@@@5@$0A@@std@@@std@@@2@ABVCZString@Value@Json@@@Z 0050c850 f i json_value.obj
 0002:0002e990       ?lower_bound@?$_Tree@V?$_Tmap_traits@VCZString@Value@Json@@V23@U?$less@VCZString@Value@Json@@@std@@V?$allocator@U?$pair@$$CBVCZString@Value@Json@@V23@@std@@@5@$0A@@std@@@std@@QAE?AV?$_Tree_iterator@V?$_Tree_val@V?$_Tmap_traits@VCZString@Value@Json@@V23@U?$less@VCZString@Value@Json@@@std@@V?$allocator@U?$pair@$$CBVCZString@Value@Json@@V23@@std@@@5@$0A@@std@@@std@@@2@ABVCZString@Value@Json@@@Z 0050c990 f i json_value.obj
 0002:0002ea00       ??0?$_Tree_iterator@V?$_Tree_val@V?$_Tmap_traits@VCZString@Value@Json@@V23@U?$less@VCZString@Value@Json@@@std@@V?$allocator@U?$pair@$$CBVCZString@Value@Json@@V23@@std@@@5@$0A@@std@@@std@@@std@@QAE@XZ 0050ca00 f i json_value.obj
 0002:0002ea60       ??D?$_Tree_iterator@V?$_Tree_val@V?$_Tmap_traits@VCZString@Value@Json@@V23@U?$less@VCZString@Value@Json@@@std@@V?$allocator@U?$pair@$$CBVCZString@Value@Json@@V23@@std@@@5@$0A@@std@@@std@@@std@@QBEAAU?$pair@$$CBVCZString@Value@Json@@V23@@1@XZ 0050ca60 f i json_value.obj
 0002:0002eab0       ??C?$_Tree_iterator@V?$_Tree_val@V?$_Tmap_traits@VCZString@Value@Json@@V23@U?$less@VCZString@Value@Json@@@std@@V?$allocator@U?$pair@$$CBVCZString@Value@Json@@V23@@std@@@5@$0A@@std@@@std@@@std@@QBEPAU?$pair@$$CBVCZString@Value@Json@@V23@@1@XZ 0050cab0 f i json_value.obj
 0002:0002eb00       ??E?$_Tree_iterator@V?$_Tree_val@V?$_Tmap_traits@VCZString@Value@Json@@V23@U?$less@VCZString@Value@Json@@@std@@V?$allocator@U?$pair@$$CBVCZString@Value@Json@@V23@@std@@@5@$0A@@std@@@std@@@std@@QAEAAV01@XZ 0050cb00 f i json_value.obj
 0002:0002eb60       ??F?$_Tree_iterator@V?$_Tree_val@V?$_Tmap_traits@VCZString@Value@Json@@V23@U?$less@VCZString@Value@Json@@@std@@V?$allocator@U?$pair@$$CBVCZString@Value@Json@@V23@@std@@@5@$0A@@std@@@std@@@std@@QAEAAV01@XZ 0050cb60 f i json_value.obj
 0002:0002ebc0       ??D?$_Tree_const_iterator@V?$_Tree_val@V?$_Tmap_traits@VCZString@Value@Json@@V23@U?$less@VCZString@Value@Json@@@std@@V?$allocator@U?$pair@$$CBVCZString@Value@Json@@V23@@std@@@5@$0A@@std@@@std@@@std@@QBEABU?$pair@$$CBVCZString@Value@Json@@V23@@1@XZ 0050cbc0 f i json_value.obj
 0002:0002ec20       ??E?$_Tree_const_iterator@V?$_Tree_val@V?$_Tmap_traits@VCZString@Value@Json@@V23@U?$less@VCZString@Value@Json@@@std@@V?$allocator@U?$pair@$$CBVCZString@Value@Json@@V23@@std@@@5@$0A@@std@@@std@@@std@@QAEAAV01@XZ 0050cc20 f i json_value.obj
 0002:0002ec80       ??F?$_Tree_const_iterator@V?$_Tree_val@V?$_Tmap_traits@VCZString@Value@Json@@V23@U?$less@VCZString@Value@Json@@@std@@V?$allocator@U?$pair@$$CBVCZString@Value@Json@@V23@@std@@@5@$0A@@std@@@std@@@std@@QAEAAV01@XZ 0050cc80 f i json_value.obj
 0002:0002ece0       ??8?$_Tree_const_iterator@V?$_Tree_val@V?$_Tmap_traits@VCZString@Value@Json@@V23@U?$less@VCZString@Value@Json@@@std@@V?$allocator@U?$pair@$$CBVCZString@Value@Json@@V23@@std@@@5@$0A@@std@@@std@@@std@@QBE_NABV01@@Z 0050cce0 f i json_value.obj
 0002:0002ed30       ??9?$_Tree_const_iterator@V?$_Tree_val@V?$_Tmap_traits@VCZString@Value@Json@@V23@U?$less@VCZString@Value@Json@@@std@@V?$allocator@U?$pair@$$CBVCZString@Value@Json@@V23@@std@@@5@$0A@@std@@@std@@@std@@QBE_NABV01@@Z 0050cd30 f i json_value.obj
 0002:0002eda0       ??0?$vector@V?$basic_string@DU?$char_traits@D@std@@V?$allocator@D@2@@std@@V?$allocator@V?$basic_string@DU?$char_traits@D@std@@V?$allocator@D@2@@std@@@2@@std@@QAE@XZ 0050cda0 f i json_value.obj
 0002:0002ee10       ??0?$vector@V?$basic_string@DU?$char_traits@D@std@@V?$allocator@D@2@@std@@V?$allocator@V?$basic_string@DU?$char_traits@D@std@@V?$allocator@D@2@@std@@@2@@std@@QAE@$$QAV01@@Z 0050ce10 f i json_value.obj
 0002:0002eee0       ?push_back@?$vector@V?$basic_string@DU?$char_traits@D@std@@V?$allocator@D@2@@std@@V?$allocator@V?$basic_string@DU?$char_traits@D@std@@V?$allocator@D@2@@std@@@2@@std@@QAEX$$QAV?$basic_string@DU?$char_traits@D@std@@V?$allocator@D@2@@2@@Z 0050cee0 f i json_value.obj
 0002:0002f070       ?reserve@?$vector@V?$basic_string@DU?$char_traits@D@std@@V?$allocator@D@2@@std@@V?$allocator@V?$basic_string@DU?$char_traits@D@std@@V?$allocator@D@2@@std@@@2@@std@@QAEXI@Z 0050d070 f i json_value.obj
 0002:0002f250       ??D?$_Vector_const_iterator@V?$_Vector_val@PBVPathArgument@Json@@V?$allocator@PBVPathArgument@Json@@@std@@@std@@@std@@QBEABQBVPathArgument@Json@@XZ 0050d250 f i json_value.obj
 0002:0002f290       ??8?$_Vector_const_iterator@V?$_Vector_val@PBVPathArgument@Json@@V?$allocator@PBVPathArgument@Json@@@std@@@std@@@std@@QBE_NABV01@@Z 0050d290 f i json_value.obj
 0002:0002f300       ??D?$_Vector_const_iterator@V?$_Vector_val@VPathArgument@Json@@V?$allocator@VPathArgument@Json@@@std@@@std@@@std@@QBEABVPathArgument@Json@@XZ 0050d300 f i json_value.obj
 0002:0002f340       ??E?$_Vector_const_iterator@V?$_Vector_val@VPathArgument@Json@@V?$allocator@VPathArgument@Json@@@std@@@std@@@std@@QAEAAV01@XZ 0050d340 f i json_value.obj
 0002:0002f390       ??9?$_Vector_const_iterator@V?$_Vector_val@VPathArgument@Json@@V?$allocator@VPathArgument@Json@@@std@@@std@@@std@@QBE_NABV01@@Z 0050d390 f i json_value.obj
 0002:0002f400       ?_Inside@?$vector@PBVPathArgument@Json@@V?$allocator@PBVPathArgument@Json@@@std@@@std@@IBE_NPBQBVPathArgument@Json@@@Z 0050d400 f i json_value.obj
 0002:0002f480       ?_Reserve@?$vector@PBVPathArgument@Json@@V?$allocator@PBVPathArgument@Json@@@std@@@std@@IAEXI@Z 0050d480 f i json_value.obj
 0002:0002f530       ?_Tidy@?$vector@PBVPathArgument@Json@@V?$allocator@PBVPathArgument@Json@@@std@@@std@@IAEXXZ 0050d530 f i json_value.obj
 0002:0002f600       ?_Orphan_range@?$vector@PBVPathArgument@Json@@V?$allocator@PBVPathArgument@Json@@@std@@@std@@IBEXPAPBVPathArgument@Json@@0@Z 0050d600 f i json_value.obj
 0002:0002f640       ??0?$_Vector_val@PBVPathArgument@Json@@V?$allocator@PBVPathArgument@Json@@@std@@@std@@QAE@V?$allocator@PBVPathArgument@Json@@@1@@Z 0050d640 f i json_value.obj
 0002:0002f6d0       ??1?$_Vector_val@PBVPathArgument@Json@@V?$allocator@PBVPathArgument@Json@@@std@@@std@@QAE@XZ 0050d6d0 f i json_value.obj
 0002:0002f710       ??0?$allocator@PBVPathArgument@Json@@@std@@QAE@XZ 0050d710 f i json_value.obj
 0002:0002f750       ?_Inside@?$vector@VPathArgument@Json@@V?$allocator@VPathArgument@Json@@@std@@@std@@IBE_NPBVPathArgument@Json@@@Z 0050d750 f i json_value.obj
 0002:0002f7d0       ?_Reserve@?$vector@VPathArgument@Json@@V?$allocator@VPathArgument@Json@@@std@@@std@@IAEXI@Z 0050d7d0 f i json_value.obj
 0002:0002f880       ?_Tidy@?$vector@VPathArgument@Json@@V?$allocator@VPathArgument@Json@@@std@@@std@@IAEXXZ 0050d880 f i json_value.obj
 0002:0002f960       ?_Orphan_range@?$vector@VPathArgument@Json@@V?$allocator@VPathArgument@Json@@@std@@@std@@IBEXPAVPathArgument@Json@@0@Z 0050d960 f i json_value.obj
 0002:0002f9a0       ??0?$_Vector_val@VPathArgument@Json@@V?$allocator@VPathArgument@Json@@@std@@@std@@QAE@V?$allocator@VPathArgument@Json@@@1@@Z 0050d9a0 f i json_value.obj
 0002:0002fa30       ??1?$_Vector_val@VPathArgument@Json@@V?$allocator@VPathArgument@Json@@@std@@@std@@QAE@XZ 0050da30 f i json_value.obj
 0002:0002fa70       ??0?$allocator@VPathArgument@Json@@@std@@QAE@XZ 0050da70 f i json_value.obj
 0002:0002fab0       ??0?$_Tree@V?$_Tmap_traits@VCZString@Value@Json@@V23@U?$less@VCZString@Value@Json@@@std@@V?$allocator@U?$pair@$$CBVCZString@Value@Json@@V23@@std@@@5@$0A@@std@@@std@@QAE@ABU?$less@VCZString@Value@Json@@@1@ABV?$allocator@U?$pair@$$CBVCZString@Value@Json@@V23@@std@@@1@@Z 0050dab0 f i json_value.obj
 0002:0002fb20       ??0?$_Tree@V?$_Tmap_traits@VCZString@Value@Json@@V23@U?$less@VCZString@Value@Json@@@std@@V?$allocator@U?$pair@$$CBVCZString@Value@Json@@V23@@std@@@5@$0A@@std@@@std@@QAE@ABV01@@Z 0050db20 f i json_value.obj
 0002:0002fc40       ?erase@?$_Tree@V?$_Tmap_traits@VCZString@Value@Json@@V23@U?$less@VCZString@Value@Json@@@std@@V?$allocator@U?$pair@$$CBVCZString@Value@Json@@V23@@std@@@5@$0A@@std@@@std@@QAE?AV?$_Tree_iterator@V?$_Tree_val@V?$_Tmap_traits@VCZString@Value@Json@@V23@U?$less@VCZString@Value@Json@@@std@@V?$allocator@U?$pair@$$CBVCZString@Value@Json@@V23@@std@@@5@$0A@@std@@@std@@@2@V?$_Tree_const_iterator@V?$_Tree_val@V?$_Tmap_traits@VCZString@Value@Json@@V23@U?$less@VCZString@Value@Json@@@std@@V?$allocator@U?$pair@$$CBVCZString@Value@Json@@V23@@std@@@5@$0A@@std@@@std@@@2@0@Z 0050dc40 f i json_value.obj
 0002:0002fd60       ?equal_range@?$_Tree@V?$_Tmap_traits@VCZString@Value@Json@@V23@U?$less@VCZString@Value@Json@@@std@@V?$allocator@U?$pair@$$CBVCZString@Value@Json@@V23@@std@@@5@$0A@@std@@@std@@QAE?AU?$pair@V?$_Tree_iterator@V?$_Tree_val@V?$_Tmap_traits@VCZString@Value@Json@@V23@U?$less@VCZString@Value@Json@@@std@@V?$allocator@U?$pair@$$CBVCZString@Value@Json@@V23@@std@@@5@$0A@@std@@@std@@@std@@V12@@2@ABVCZString@Value@Json@@@Z 0050dd60 f i json_value.obj
 0002:0002fdc0       ?_Erase@?$_Tree@V?$_Tmap_traits@VCZString@Value@Json@@V23@U?$less@VCZString@Value@Json@@@std@@V?$allocator@U?$pair@$$CBVCZString@Value@Json@@V23@@std@@@5@$0A@@std@@@std@@IAEXPAU_Node@?$_Tree_nod@V?$_Tmap_traits@VCZString@Value@Json@@V23@U?$less@VCZString@Value@Json@@@std@@V?$allocator@U?$pair@$$CBVCZString@Value@Json@@V23@@std@@@5@$0A@@std@@@2@@Z 0050ddc0 f i json_value.obj
 0002:0002feb0       ?_Lbound@?$_Tree@V?$_Tmap_traits@VCZString@Value@Json@@V23@U?$less@VCZString@Value@Json@@@std@@V?$allocator@U?$pair@$$CBVCZString@Value@Json@@V23@@std@@@5@$0A@@std@@@std@@IAEPAU_Node@?$_Tree_nod@V?$_Tmap_traits@VCZString@Value@Json@@V23@U?$less@VCZString@Value@Json@@@std@@V?$allocator@U?$pair@$$CBVCZString@Value@Json@@V23@@std@@@5@$0A@@std@@@2@ABVCZString@Value@Json@@@Z 0050deb0 f i json_value.obj
 0002:0002ff90       ?_Lmost@?$_Tree@V?$_Tmap_traits@VCZString@Value@Json@@V23@U?$less@VCZString@Value@Json@@@std@@V?$allocator@U?$pair@$$CBVCZString@Value@Json@@V23@@std@@@5@$0A@@std@@@std@@IBEAAPAU_Node@?$_Tree_nod@V?$_Tmap_traits@VCZString@Value@Json@@V23@U?$less@VCZString@Value@Json@@@std@@V?$allocator@U?$pair@$$CBVCZString@Value@Json@@V23@@std@@@5@$0A@@std@@@2@XZ 0050df90 f i json_value.obj
 0002:0002fff0       ?_Lrotate@?$_Tree@V?$_Tmap_traits@VCZString@Value@Json@@V23@U?$less@VCZString@Value@Json@@@std@@V?$allocator@U?$pair@$$CBVCZString@Value@Json@@V23@@std@@@5@$0A@@std@@@std@@IAEXPAU_Node@?$_Tree_nod@V?$_Tmap_traits@VCZString@Value@Json@@V23@U?$less@VCZString@Value@Json@@@std@@V?$allocator@U?$pair@$$CBVCZString@Value@Json@@V23@@std@@@5@$0A@@std@@@2@@Z 0050dff0 f i json_value.obj
 0002:000301a0       ?_Rmost@?$_Tree@V?$_Tmap_traits@VCZString@Value@Json@@V23@U?$less@VCZString@Value@Json@@@std@@V?$allocator@U?$pair@$$CBVCZString@Value@Json@@V23@@std@@@5@$0A@@std@@@std@@IBEAAPAU_Node@?$_Tree_nod@V?$_Tmap_traits@VCZString@Value@Json@@V23@U?$less@VCZString@Value@Json@@@std@@V?$allocator@U?$pair@$$CBVCZString@Value@Json@@V23@@std@@@5@$0A@@std@@@2@XZ 0050e1a0 f i json_value.obj
 0002:00030200       ?_Root@?$_Tree@V?$_Tmap_traits@VCZString@Value@Json@@V23@U?$less@VCZString@Value@Json@@@std@@V?$allocator@U?$pair@$$CBVCZString@Value@Json@@V23@@std@@@5@$0A@@std@@@std@@IBEAAPAU_Node@?$_Tree_nod@V?$_Tmap_traits@VCZString@Value@Json@@V23@U?$less@VCZString@Value@Json@@@std@@V?$allocator@U?$pair@$$CBVCZString@Value@Json@@V23@@std@@@5@$0A@@std@@@2@XZ 0050e200 f i json_value.obj
 0002:00030260       ?_Rrotate@?$_Tree@V?$_Tmap_traits@VCZString@Value@Json@@V23@U?$less@VCZString@Value@Json@@@std@@V?$allocator@U?$pair@$$CBVCZString@Value@Json@@V23@@std@@@5@$0A@@std@@@std@@IAEXPAU_Node@?$_Tree_nod@V?$_Tmap_traits@VCZString@Value@Json@@V23@U?$less@VCZString@Value@Json@@@std@@V?$allocator@U?$pair@$$CBVCZString@Value@Json@@V23@@std@@@5@$0A@@std@@@2@@Z 0050e260 f i json_value.obj
 0002:00030410       ?_Tidy@?$_Tree@V?$_Tmap_traits@VCZString@Value@Json@@V23@U?$less@VCZString@Value@Json@@@std@@V?$allocator@U?$pair@$$CBVCZString@Value@Json@@V23@@std@@@5@$0A@@std@@@std@@IAEXXZ 0050e410 f i json_value.obj
 0002:000304c0       ??1?$_Tree_val@V?$_Tmap_traits@VCZString@Value@Json@@V23@U?$less@VCZString@Value@Json@@@std@@V?$allocator@U?$pair@$$CBVCZString@Value@Json@@V23@@std@@@5@$0A@@std@@@std@@QAE@XZ 0050e4c0 f i json_value.obj
 0002:00030520       ?_Color@?$_Tree_val@V?$_Tmap_traits@VCZString@Value@Json@@V23@U?$less@VCZString@Value@Json@@@std@@V?$allocator@U?$pair@$$CBVCZString@Value@Json@@V23@@std@@@5@$0A@@std@@@std@@SAAADPAU_Node@?$_Tree_nod@V?$_Tmap_traits@VCZString@Value@Json@@V23@U?$less@VCZString@Value@Json@@@std@@V?$allocator@U?$pair@$$CBVCZString@Value@Json@@V23@@std@@@5@$0A@@std@@@2@@Z 0050e520 f i json_value.obj
 0002:00030560       ?_Isnil@?$_Tree_val@V?$_Tmap_traits@VCZString@Value@Json@@V23@U?$less@VCZString@Value@Json@@@std@@V?$allocator@U?$pair@$$CBVCZString@Value@Json@@V23@@std@@@5@$0A@@std@@@std@@SAAADPAU_Node@?$_Tree_nod@V?$_Tmap_traits@VCZString@Value@Json@@V23@U?$less@VCZString@Value@Json@@@std@@V?$allocator@U?$pair@$$CBVCZString@Value@Json@@V23@@std@@@5@$0A@@std@@@2@@Z 0050e560 f i json_value.obj
 0002:000305a0       ?_Key@?$_Tree_val@V?$_Tmap_traits@VCZString@Value@Json@@V23@U?$less@VCZString@Value@Json@@@std@@V?$allocator@U?$pair@$$CBVCZString@Value@Json@@V23@@std@@@5@$0A@@std@@@std@@SAAAVCZString@Value@Json@@PAU_Node@?$_Tree_nod@V?$_Tmap_traits@VCZString@Value@Json@@V23@U?$less@VCZString@Value@Json@@@std@@V?$allocator@U?$pair@$$CBVCZString@Value@Json@@V23@@std@@@5@$0A@@std@@@2@@Z 0050e5a0 f i json_value.obj
 0002:00030600       ?_Left@?$_Tree_val@V?$_Tmap_traits@VCZString@Value@Json@@V23@U?$less@VCZString@Value@Json@@@std@@V?$allocator@U?$pair@$$CBVCZString@Value@Json@@V23@@std@@@5@$0A@@std@@@std@@SAAAPAU_Node@?$_Tree_nod@V?$_Tmap_traits@VCZString@Value@Json@@V23@U?$less@VCZString@Value@Json@@@std@@V?$allocator@U?$pair@$$CBVCZString@Value@Json@@V23@@std@@@5@$0A@@std@@@2@PAU342@@Z 0050e600 f i json_value.obj
 0002:00030640       ?_Parent@?$_Tree_val@V?$_Tmap_traits@VCZString@Value@Json@@V23@U?$less@VCZString@Value@Json@@@std@@V?$allocator@U?$pair@$$CBVCZString@Value@Json@@V23@@std@@@5@$0A@@std@@@std@@SAAAPAU_Node@?$_Tree_nod@V?$_Tmap_traits@VCZString@Value@Json@@V23@U?$less@VCZString@Value@Json@@@std@@V?$allocator@U?$pair@$$CBVCZString@Value@Json@@V23@@std@@@5@$0A@@std@@@2@PAU342@@Z 0050e640 f i json_value.obj
 0002:00030680       ?_Right@?$_Tree_val@V?$_Tmap_traits@VCZString@Value@Json@@V23@U?$less@VCZString@Value@Json@@@std@@V?$allocator@U?$pair@$$CBVCZString@Value@Json@@V23@@std@@@5@$0A@@std@@@std@@SAAAPAU_Node@?$_Tree_nod@V?$_Tmap_traits@VCZString@Value@Json@@V23@U?$less@VCZString@Value@Json@@@std@@V?$allocator@U?$pair@$$CBVCZString@Value@Json@@V23@@std@@@5@$0A@@std@@@2@PAU342@@Z 0050e680 f i json_value.obj
 0002:000306c0       ?_Myval@?$_Tree_val@V?$_Tmap_traits@VCZString@Value@Json@@V23@U?$less@VCZString@Value@Json@@@std@@V?$allocator@U?$pair@$$CBVCZString@Value@Json@@V23@@std@@@5@$0A@@std@@@std@@SAAAU?$pair@$$CBVCZString@Value@Json@@V23@@2@PAU_Node@?$_Tree_nod@V?$_Tmap_traits@VCZString@Value@Json@@V23@U?$less@VCZString@Value@Json@@@std@@V?$allocator@U?$pair@$$CBVCZString@Value@Json@@V23@@std@@@5@$0A@@std@@@2@@Z 0050e6c0 f i json_value.obj
 0002:00030700       ?_Max@?$_Tree_val@V?$_Tmap_traits@VCZString@Value@Json@@V23@U?$less@VCZString@Value@Json@@@std@@V?$allocator@U?$pair@$$CBVCZString@Value@Json@@V23@@std@@@5@$0A@@std@@@std@@SAPAU_Node@?$_Tree_nod@V?$_Tmap_traits@VCZString@Value@Json@@V23@U?$less@VCZString@Value@Json@@@std@@V?$allocator@U?$pair@$$CBVCZString@Value@Json@@V23@@std@@@5@$0A@@std@@@2@PAU342@@Z 0050e700 f i json_value.obj
 0002:00030780       ?_Min@?$_Tree_val@V?$_Tmap_traits@VCZString@Value@Json@@V23@U?$less@VCZString@Value@Json@@@std@@V?$allocator@U?$pair@$$CBVCZString@Value@Json@@V23@@std@@@5@$0A@@std@@@std@@SAPAU_Node@?$_Tree_nod@V?$_Tmap_traits@VCZString@Value@Json@@V23@U?$less@VCZString@Value@Json@@@std@@V?$allocator@U?$pair@$$CBVCZString@Value@Json@@V23@@std@@@5@$0A@@std@@@2@PAU342@@Z 0050e780 f i json_value.obj
 0002:00030800       ??0?$allocator@U?$pair@$$CBVCZString@Value@Json@@V23@@std@@@std@@QAE@XZ 0050e800 f i json_value.obj
 0002:00030840       ??R?$less@VCZString@Value@Json@@@std@@QBE_NABVCZString@Value@Json@@0@Z 0050e840 f i json_value.obj
 0002:000308a0       ?deallocate@?$allocator@U_Node@?$_Tree_nod@V?$_Tmap_traits@VCZString@Value@Json@@V23@U?$less@VCZString@Value@Json@@@std@@V?$allocator@U?$pair@$$CBVCZString@Value@Json@@V23@@std@@@5@$0A@@std@@@std@@@std@@QAEXPAU_Node@?$_Tree_nod@V?$_Tmap_traits@VCZString@Value@Json@@V23@U?$less@VCZString@Value@Json@@@std@@V?$allocator@U?$pair@$$CBVCZString@Value@Json@@V23@@std@@@5@$0A@@std@@@2@I@Z 0050e8a0 f i json_value.obj
 0002:00030900       ??0?$_Tree_iterator@V?$_Tree_val@V?$_Tmap_traits@VCZString@Value@Json@@V23@U?$less@VCZString@Value@Json@@@std@@V?$allocator@U?$pair@$$CBVCZString@Value@Json@@V23@@std@@@5@$0A@@std@@@std@@@std@@QAE@PAU_Node@?$_Tree_nod@V?$_Tmap_traits@VCZString@Value@Json@@V23@U?$less@VCZString@Value@Json@@@std@@V?$allocator@U?$pair@$$CBVCZString@Value@Json@@V23@@std@@@5@$0A@@std@@@1@PBV?$_Tree_val@V?$_Tmap_traits@VCZString@Value@Json@@V23@U?$less@VCZString@Value@Json@@@std@@V?$allocator@U?$pair@$$CBVCZString@Value@Json@@V23@@std@@@5@$0A@@std@@@1@@Z 0050e900 f i json_value.obj
 0002:00030960       ??0?$_Tree_const_iterator@V?$_Tree_val@V?$_Tmap_traits@VCZString@Value@Json@@V23@U?$less@VCZString@Value@Json@@@std@@V?$allocator@U?$pair@$$CBVCZString@Value@Json@@V23@@std@@@5@$0A@@std@@@std@@@std@@QAE@XZ 0050e960 f i json_value.obj
 0002:000309c0       ??E?$_Tree_unchecked_const_iterator@V?$_Tree_val@V?$_Tmap_traits@VCZString@Value@Json@@V23@U?$less@VCZString@Value@Json@@@std@@V?$allocator@U?$pair@$$CBVCZString@Value@Json@@V23@@std@@@5@$0A@@std@@@std@@U_Iterator_base0@2@@std@@QAEAAV01@XZ 0050e9c0 f i json_value.obj
 0002:00030ae0       ??F?$_Tree_unchecked_const_iterator@V?$_Tree_val@V?$_Tmap_traits@VCZString@Value@Json@@V23@U?$less@VCZString@Value@Json@@@std@@V?$allocator@U?$pair@$$CBVCZString@Value@Json@@V23@@std@@@5@$0A@@std@@@std@@U_Iterator_base0@2@@std@@QAEAAV01@XZ 0050eae0 f i json_value.obj
 0002:00030c30       ?_Mynode@?$_Tree_unchecked_const_iterator@V?$_Tree_val@V?$_Tmap_traits@VCZString@Value@Json@@V23@U?$less@VCZString@Value@Json@@@std@@V?$allocator@U?$pair@$$CBVCZString@Value@Json@@V23@@std@@@5@$0A@@std@@@std@@U_Iterator_base0@2@@std@@QBEPAU_Node@?$_Tree_nod@V?$_Tmap_traits@VCZString@Value@Json@@V23@U?$less@VCZString@Value@Json@@@std@@V?$allocator@U?$pair@$$CBVCZString@Value@Json@@V23@@std@@@5@$0A@@std@@@2@XZ 0050ec30 f i json_value.obj
 0002:00030c70       ?_Assign_rv@?$vector@V?$basic_string@DU?$char_traits@D@std@@V?$allocator@D@2@@std@@V?$allocator@V?$basic_string@DU?$char_traits@D@std@@V?$allocator@D@2@@std@@@2@@std@@QAEX$$QAV12@@Z 0050ec70 f i json_value.obj
 0002:00030e20       ?capacity@?$vector@V?$basic_string@DU?$char_traits@D@std@@V?$allocator@D@2@@std@@V?$allocator@V?$basic_string@DU?$char_traits@D@std@@V?$allocator@D@2@@std@@@2@@std@@QBEIXZ 0050ee20 f i json_value.obj
 0002:00030e70       ?size@?$vector@V?$basic_string@DU?$char_traits@D@std@@V?$allocator@D@2@@std@@V?$allocator@V?$basic_string@DU?$char_traits@D@std@@V?$allocator@D@2@@std@@@2@@std@@QBEIXZ 0050ee70 f i json_value.obj
 0002:00030ec0       ?max_size@?$vector@V?$basic_string@DU?$char_traits@D@std@@V?$allocator@D@2@@std@@V?$allocator@V?$basic_string@DU?$char_traits@D@std@@V?$allocator@D@2@@std@@@2@@std@@QBEIXZ 0050eec0 f i json_value.obj
 0002:00030f20       ?_Inside@?$vector@V?$basic_string@DU?$char_traits@D@std@@V?$allocator@D@2@@std@@V?$allocator@V?$basic_string@DU?$char_traits@D@std@@V?$allocator@D@2@@std@@@2@@std@@IBE_NPBV?$basic_string@DU?$char_traits@D@std@@V?$allocator@D@2@@2@@Z 0050ef20 f i json_value.obj
 0002:00030fa0       ?_Reserve@?$vector@V?$basic_string@DU?$char_traits@D@std@@V?$allocator@D@2@@std@@V?$allocator@V?$basic_string@DU?$char_traits@D@std@@V?$allocator@D@2@@std@@@2@@std@@IAEXI@Z 0050efa0 f i json_value.obj
 0002:00031050       ?_Xlen@?$vector@V?$basic_string@DU?$char_traits@D@std@@V?$allocator@D@2@@std@@V?$allocator@V?$basic_string@DU?$char_traits@D@std@@V?$allocator@D@2@@std@@@2@@std@@IBEXXZ 0050f050 f i json_value.obj
 0002:000310b0       ?_Orphan_range@?$vector@V?$basic_string@DU?$char_traits@D@std@@V?$allocator@D@2@@std@@V?$allocator@V?$basic_string@DU?$char_traits@D@std@@V?$allocator@D@2@@std@@@2@@std@@IBEXPAV?$basic_string@DU?$char_traits@D@std@@V?$allocator@D@2@@2@0@Z 0050f0b0 f i json_value.obj
 0002:000310f0       ??0?$_Vector_val@V?$basic_string@DU?$char_traits@D@std@@V?$allocator@D@2@@std@@V?$allocator@V?$basic_string@DU?$char_traits@D@std@@V?$allocator@D@2@@std@@@2@@std@@QAE@V?$allocator@V?$basic_string@DU?$char_traits@D@std@@V?$allocator@D@2@@std@@@1@@Z 0050f0f0 f i json_value.obj
 0002:00031180       ??0?$allocator@V?$basic_string@DU?$char_traits@D@std@@V?$allocator@D@2@@std@@@std@@QAE@XZ 0050f180 f i json_value.obj
 0002:000311c0       ??0?$allocator@V?$basic_string@DU?$char_traits@D@std@@V?$allocator@D@2@@std@@@std@@QAE@ABV01@@Z 0050f1c0 f i json_value.obj
 0002:00031200       ?allocate@?$allocator@V?$basic_string@DU?$char_traits@D@std@@V?$allocator@D@2@@std@@@std@@QAEPAV?$basic_string@DU?$char_traits@D@std@@V?$allocator@D@2@@2@I@Z 0050f200 f i json_value.obj
 0002:00031260       ??0?$_Vector_const_iterator@V?$_Vector_val@PBVPathArgument@Json@@V?$allocator@PBVPathArgument@Json@@@std@@@std@@@std@@QAE@PAPBVPathArgument@Json@@PBU_Container_base0@1@@Z 0050f260 f i json_value.obj
 0002:000312d0       ?_Compat@?$_Vector_const_iterator@V?$_Vector_val@PBVPathArgument@Json@@V?$allocator@PBVPathArgument@Json@@@std@@@std@@@std@@QBEXABV12@@Z 0050f2d0 f i json_value.obj
 0002:00031310       ??0?$_Vector_const_iterator@V?$_Vector_val@VPathArgument@Json@@V?$allocator@VPathArgument@Json@@@std@@@std@@@std@@QAE@PAVPathArgument@Json@@PBU_Container_base0@1@@Z 0050f310 f i json_value.obj
 0002:00031380       ??8?$_Vector_const_iterator@V?$_Vector_val@VPathArgument@Json@@V?$allocator@VPathArgument@Json@@@std@@@std@@@std@@QBE_NABV01@@Z 0050f380 f i json_value.obj
 0002:000313f0       ?reserve@?$vector@PBVPathArgument@Json@@V?$allocator@PBVPathArgument@Json@@@std@@@std@@QAEXI@Z 0050f3f0 f i json_value.obj
 0002:000315d0       ?capacity@?$vector@PBVPathArgument@Json@@V?$allocator@PBVPathArgument@Json@@@std@@@std@@QBEIXZ 0050f5d0 f i json_value.obj
 0002:00031620       ?size@?$vector@PBVPathArgument@Json@@V?$allocator@PBVPathArgument@Json@@@std@@@std@@QBEIXZ 0050f620 f i json_value.obj
 0002:00031670       ?max_size@?$vector@PBVPathArgument@Json@@V?$allocator@PBVPathArgument@Json@@@std@@@std@@QBEIXZ 0050f670 f i json_value.obj
 0002:000316d0       ?_Destroy@?$vector@PBVPathArgument@Json@@V?$allocator@PBVPathArgument@Json@@@std@@@std@@IAEXPAPBVPathArgument@Json@@0@Z 0050f6d0 f i json_value.obj
 0002:00031740       ?_Grow_to@?$vector@PBVPathArgument@Json@@V?$allocator@PBVPathArgument@Json@@@std@@@std@@IBEII@Z 0050f740 f i json_value.obj
 0002:000317f0       ?_Xlen@?$vector@PBVPathArgument@Json@@V?$allocator@PBVPathArgument@Json@@@std@@@std@@IBEXXZ 0050f7f0 f i json_value.obj
 0002:00031850       ??0?$allocator@PBVPathArgument@Json@@@std@@QAE@ABV01@@Z 0050f850 f i json_value.obj
 0002:00031890       ?deallocate@?$allocator@PBVPathArgument@Json@@@std@@QAEXPAPBVPathArgument@Json@@I@Z 0050f890 f i json_value.obj
 0002:000318f0       ?reserve@?$vector@VPathArgument@Json@@V?$allocator@VPathArgument@Json@@@std@@@std@@QAEXI@Z 0050f8f0 f i json_value.obj
 0002:00031ad0       ?capacity@?$vector@VPathArgument@Json@@V?$allocator@VPathArgument@Json@@@std@@@std@@QBEIXZ 0050fad0 f i json_value.obj
 0002:00031b20       ?size@?$vector@VPathArgument@Json@@V?$allocator@VPathArgument@Json@@@std@@@std@@QBEIXZ 0050fb20 f i json_value.obj
 0002:00031b70       ?max_size@?$vector@VPathArgument@Json@@V?$allocator@VPathArgument@Json@@@std@@@std@@QBEIXZ 0050fb70 f i json_value.obj
 0002:00031bd0       ?_Destroy@?$vector@VPathArgument@Json@@V?$allocator@VPathArgument@Json@@@std@@@std@@IAEXPAVPathArgument@Json@@0@Z 0050fbd0 f i json_value.obj
 0002:00031c40       ?_Grow_to@?$vector@VPathArgument@Json@@V?$allocator@VPathArgument@Json@@@std@@@std@@IBEII@Z 0050fc40 f i json_value.obj
 0002:00031cf0       ?_Xlen@?$vector@VPathArgument@Json@@V?$allocator@VPathArgument@Json@@@std@@@std@@IBEXXZ 0050fcf0 f i json_value.obj
 0002:00031d50       ??0?$allocator@VPathArgument@Json@@@std@@QAE@ABV01@@Z 0050fd50 f i json_value.obj
 0002:00031d90       ?deallocate@?$allocator@VPathArgument@Json@@@std@@QAEXPAVPathArgument@Json@@I@Z 0050fd90 f i json_value.obj
 0002:00031df0       ?key_comp@?$_Tree@V?$_Tmap_traits@VCZString@Value@Json@@V23@U?$less@VCZString@Value@Json@@@std@@V?$allocator@U?$pair@$$CBVCZString@Value@Json@@V23@@std@@@5@$0A@@std@@@std@@QBE?AU?$less@VCZString@Value@Json@@@2@XZ 0050fdf0 f i json_value.obj
 0002:00031e30       ?_Copy@?$_Tree@V?$_Tmap_traits@VCZString@Value@Json@@V23@U?$less@VCZString@Value@Json@@@std@@V?$allocator@U?$pair@$$CBVCZString@Value@Json@@V23@@std@@@5@$0A@@std@@@std@@IAEXABV12@@Z 0050fe30 f i json_value.obj
 0002:00031f50       ?_Eqrange@?$_Tree@V?$_Tmap_traits@VCZString@Value@Json@@V23@U?$less@VCZString@Value@Json@@@std@@V?$allocator@U?$pair@$$CBVCZString@Value@Json@@V23@@std@@@5@$0A@@std@@@std@@IAE?AU?$pair@V?$_Tree_iterator@V?$_Tree_val@V?$_Tmap_traits@VCZString@Value@Json@@V23@U?$less@VCZString@Value@Json@@@std@@V?$allocator@U?$pair@$$CBVCZString@Value@Json@@V23@@std@@@5@$0A@@std@@@std@@@std@@V12@@2@ABVCZString@Value@Json@@@Z 0050ff50 f i json_value.obj
 0002:000321e0       ??0?$_Tree_val@V?$_Tmap_traits@VCZString@Value@Json@@V23@U?$less@VCZString@Value@Json@@@std@@V?$allocator@U?$pair@$$CBVCZString@Value@Json@@V23@@std@@@5@$0A@@std@@@std@@QAE@ABU?$less@VCZString@Value@Json@@@1@V?$allocator@U?$pair@$$CBVCZString@Value@Json@@V23@@std@@@1@@Z 005101e0 f i json_value.obj
 0002:000322f0       ??0?$allocator@U?$pair@$$CBVCZString@Value@Json@@V23@@std@@@std@@QAE@ABV01@@Z 005102f0 f i json_value.obj
 0002:00032330       ??0?$_Tree_const_iterator@V?$_Tree_val@V?$_Tmap_traits@VCZString@Value@Json@@V23@U?$less@VCZString@Value@Json@@@std@@V?$allocator@U?$pair@$$CBVCZString@Value@Json@@V23@@std@@@5@$0A@@std@@@std@@@std@@QAE@PAU_Node@?$_Tree_nod@V?$_Tmap_traits@VCZString@Value@Json@@V23@U?$less@VCZString@Value@Json@@@std@@V?$allocator@U?$pair@$$CBVCZString@Value@Json@@V23@@std@@@5@$0A@@std@@@1@PBV?$_Tree_val@V?$_Tmap_traits@VCZString@Value@Json@@V23@U?$less@VCZString@Value@Json@@@std@@V?$allocator@U?$pair@$$CBVCZString@Value@Json@@V23@@std@@@5@$0A@@std@@@1@@Z 00510330 f i json_value.obj
 0002:00032390       ??E?$_Tree_const_iterator@V?$_Tree_val@V?$_Tmap_traits@VCZString@Value@Json@@V23@U?$less@VCZString@Value@Json@@@std@@V?$allocator@U?$pair@$$CBVCZString@Value@Json@@V23@@std@@@5@$0A@@std@@@std@@@std@@QAE?AV01@H@Z 00510390 f i json_value.obj
 0002:00032440       ??0?$_Tree_unchecked_const_iterator@V?$_Tree_val@V?$_Tmap_traits@VCZString@Value@Json@@V23@U?$less@VCZString@Value@Json@@@std@@V?$allocator@U?$pair@$$CBVCZString@Value@Json@@V23@@std@@@5@$0A@@std@@@std@@U_Iterator_base0@2@@std@@QAE@XZ 00510440 f i json_value.obj
 0002:00032490       ?begin@?$vector@V?$basic_string@DU?$char_traits@D@std@@V?$allocator@D@2@@std@@V?$allocator@V?$basic_string@DU?$char_traits@D@std@@V?$allocator@D@2@@std@@@2@@std@@QAE?AV?$_Vector_iterator@V?$_Vector_val@V?$basic_string@DU?$char_traits@D@std@@V?$allocator@D@2@@std@@V?$allocator@V?$basic_string@DU?$char_traits@D@std@@V?$allocator@D@2@@std@@@2@@std@@@2@XZ 00510490 f i json_value.obj
 0002:00032500       ?end@?$vector@V?$basic_string@DU?$char_traits@D@std@@V?$allocator@D@2@@std@@V?$allocator@V?$basic_string@DU?$char_traits@D@std@@V?$allocator@D@2@@std@@@2@@std@@QAE?AV?$_Vector_iterator@V?$_Vector_val@V?$basic_string@DU?$char_traits@D@std@@V?$allocator@D@2@@std@@V?$allocator@V?$basic_string@DU?$char_traits@D@std@@V?$allocator@D@2@@std@@@2@@std@@@2@XZ 00510500 f i json_value.obj
 0002:00032570       ?get_allocator@?$vector@V?$basic_string@DU?$char_traits@D@std@@V?$allocator@D@2@@std@@V?$allocator@V?$basic_string@DU?$char_traits@D@std@@V?$allocator@D@2@@std@@@2@@std@@QBE?AV?$allocator@V?$basic_string@DU?$char_traits@D@std@@V?$allocator@D@2@@std@@@2@XZ 00510570 f i json_value.obj
 0002:000325d0       ?clear@?$vector@V?$basic_string@DU?$char_traits@D@std@@V?$allocator@D@2@@std@@V?$allocator@V?$basic_string@DU?$char_traits@D@std@@V?$allocator@D@2@@std@@@2@@std@@QAEXXZ 005105d0 f i json_value.obj
 0002:00032680       ?_Grow_to@?$vector@V?$basic_string@DU?$char_traits@D@std@@V?$allocator@D@2@@std@@V?$allocator@V?$basic_string@DU?$char_traits@D@std@@V?$allocator@D@2@@std@@@2@@std@@IBEII@Z 00510680 f i json_value.obj
 0002:00032730       ?max_size@?$allocator@V?$basic_string@DU?$char_traits@D@std@@V?$allocator@D@2@@std@@@std@@QBEIXZ 00510730 f i json_value.obj
 0002:000327a0       ?_Compat@?$_Vector_const_iterator@V?$_Vector_val@VPathArgument@Json@@V?$allocator@VPathArgument@Json@@@std@@@std@@@std@@QBEXABV12@@Z 005107a0 f i json_value.obj
 0002:000327e0       ??D?$_Vector_iterator@V?$_Vector_val@V?$basic_string@DU?$char_traits@D@std@@V?$allocator@D@2@@std@@V?$allocator@V?$basic_string@DU?$char_traits@D@std@@V?$allocator@D@2@@std@@@2@@std@@@std@@QBEAAV?$basic_string@DU?$char_traits@D@std@@V?$allocator@D@2@@1@XZ 005107e0 f i json_value.obj
 0002:00032830       ??E?$_Vector_iterator@V?$_Vector_val@V?$basic_string@DU?$char_traits@D@std@@V?$allocator@D@2@@std@@V?$allocator@V?$basic_string@DU?$char_traits@D@std@@V?$allocator@D@2@@std@@@2@@std@@@std@@QAEAAV01@XZ 00510830 f i json_value.obj
 0002:00032890       ??9?$_Vector_const_iterator@V?$_Vector_val@V?$basic_string@DU?$char_traits@D@std@@V?$allocator@D@2@@std@@V?$allocator@V?$basic_string@DU?$char_traits@D@std@@V?$allocator@D@2@@std@@@2@@std@@@std@@QBE_NABV01@@Z 00510890 f i json_value.obj
 0002:00032900       ?allocate@?$allocator@PBVPathArgument@Json@@@std@@QAEPAPBVPathArgument@Json@@I@Z 00510900 f i json_value.obj
 0002:00032960       ?max_size@?$allocator@PBVPathArgument@Json@@@std@@QBEIXZ 00510960 f i json_value.obj
 0002:000329d0       ?allocate@?$allocator@VPathArgument@Json@@@std@@QAEPAVPathArgument@Json@@I@Z 005109d0 f i json_value.obj
 0002:00032a30       ?max_size@?$allocator@VPathArgument@Json@@@std@@QBEIXZ 00510a30 f i json_value.obj
 0002:00032aa0       ?_Copy@?$_Tree@V?$_Tmap_traits@VCZString@Value@Json@@V23@U?$less@VCZString@Value@Json@@@std@@V?$allocator@U?$pair@$$CBVCZString@Value@Json@@V23@@std@@@5@$0A@@std@@@std@@IAEPAU_Node@?$_Tree_nod@V?$_Tmap_traits@VCZString@Value@Json@@V23@U?$less@VCZString@Value@Json@@@std@@V?$allocator@U?$pair@$$CBVCZString@Value@Json@@V23@@std@@@5@$0A@@std@@@2@PAU342@0@Z 00510aa0 f i json_value.obj
 0002:00032cb0       ??0?$_Tree_nod@V?$_Tmap_traits@VCZString@Value@Json@@V23@U?$less@VCZString@Value@Json@@@std@@V?$allocator@U?$pair@$$CBVCZString@Value@Json@@V23@@std@@@5@$0A@@std@@@std@@QAE@ABU?$less@VCZString@Value@Json@@@1@V?$allocator@U?$pair@$$CBVCZString@Value@Json@@V23@@std@@@1@@Z 00510cb0 f i json_value.obj
 0002:00032d40       ?allocate@?$allocator@U_Node@?$_Tree_nod@V?$_Tmap_traits@VCZString@Value@Json@@V23@U?$less@VCZString@Value@Json@@@std@@V?$allocator@U?$pair@$$CBVCZString@Value@Json@@V23@@std@@@5@$0A@@std@@@std@@@std@@QAEPAU_Node@?$_Tree_nod@V?$_Tmap_traits@VCZString@Value@Json@@V23@U?$less@VCZString@Value@Json@@@std@@V?$allocator@U?$pair@$$CBVCZString@Value@Json@@V23@@std@@@5@$0A@@std@@@2@I@Z 00510d40 f i json_value.obj
 0002:00032da0       ??0?$_Tree_unchecked_const_iterator@V?$_Tree_val@V?$_Tmap_traits@VCZString@Value@Json@@V23@U?$less@VCZString@Value@Json@@@std@@V?$allocator@U?$pair@$$CBVCZString@Value@Json@@V23@@std@@@5@$0A@@std@@@std@@U_Iterator_base0@2@@std@@QAE@PAU_Node@?$_Tree_nod@V?$_Tmap_traits@VCZString@Value@Json@@V23@U?$less@VCZString@Value@Json@@@std@@V?$allocator@U?$pair@$$CBVCZString@Value@Json@@V23@@std@@@5@$0A@@std@@@1@PBV?$_Tree_val@V?$_Tmap_traits@VCZString@Value@Json@@V23@U?$less@VCZString@Value@Json@@@std@@V?$allocator@U?$pair@$$CBVCZString@Value@Json@@V23@@std@@@5@$0A@@std@@@1@@Z 00510da0 f i json_value.obj
 0002:00032e10       ?erase@?$vector@V?$basic_string@DU?$char_traits@D@std@@V?$allocator@D@2@@std@@V?$allocator@V?$basic_string@DU?$char_traits@D@std@@V?$allocator@D@2@@std@@@2@@std@@QAE?AV?$_Vector_iterator@V?$_Vector_val@V?$basic_string@DU?$char_traits@D@std@@V?$allocator@D@2@@std@@V?$allocator@V?$basic_string@DU?$char_traits@D@std@@V?$allocator@D@2@@std@@@2@@std@@@2@V?$_Vector_const_iterator@V?$_Vector_val@V?$basic_string@DU?$char_traits@D@std@@V?$allocator@D@2@@std@@V?$allocator@V?$basic_string@DU?$char_traits@D@std@@V?$allocator@D@2@@std@@@2@@std@@@2@0@Z 00510e10 f i json_value.obj
 0002:00032f40       ??0?$_Vector_iterator@V?$_Vector_val@V?$basic_string@DU?$char_traits@D@std@@V?$allocator@D@2@@std@@V?$allocator@V?$basic_string@DU?$char_traits@D@std@@V?$allocator@D@2@@std@@@2@@std@@@std@@QAE@PAV?$basic_string@DU?$char_traits@D@std@@V?$allocator@D@2@@1@PBU_Container_base0@1@@Z 00510f40 f i json_value.obj
 0002:00032fa0       ??D?$_Vector_const_iterator@V?$_Vector_val@V?$basic_string@DU?$char_traits@D@std@@V?$allocator@D@2@@std@@V?$allocator@V?$basic_string@DU?$char_traits@D@std@@V?$allocator@D@2@@std@@@2@@std@@@std@@QBEABV?$basic_string@DU?$char_traits@D@std@@V?$allocator@D@2@@1@XZ 00510fa0 f i json_value.obj
 0002:00032fe0       ??E?$_Vector_const_iterator@V?$_Vector_val@V?$basic_string@DU?$char_traits@D@std@@V?$allocator@D@2@@std@@V?$allocator@V?$basic_string@DU?$char_traits@D@std@@V?$allocator@D@2@@std@@@2@@std@@@std@@QAEAAV01@XZ 00510fe0 f i json_value.obj
 0002:00033030       ??8?$_Vector_const_iterator@V?$_Vector_val@V?$basic_string@DU?$char_traits@D@std@@V?$allocator@D@2@@std@@V?$allocator@V?$basic_string@DU?$char_traits@D@std@@V?$allocator@D@2@@std@@@2@@std@@@std@@QBE_NABV01@@Z 00511030 f i json_value.obj
 0002:000330a0       ??0?$_Tmap_traits@VCZString@Value@Json@@V23@U?$less@VCZString@Value@Json@@@std@@V?$allocator@U?$pair@$$CBVCZString@Value@Json@@V23@@std@@@5@$0A@@std@@QAE@U?$less@VCZString@Value@Json@@@1@@Z 005110a0 f i json_value.obj
 0002:000330e0       ?_Make_iter@?$vector@V?$basic_string@DU?$char_traits@D@std@@V?$allocator@D@2@@std@@V?$allocator@V?$basic_string@DU?$char_traits@D@std@@V?$allocator@D@2@@std@@@2@@std@@QBE?AV?$_Vector_iterator@V?$_Vector_val@V?$basic_string@DU?$char_traits@D@std@@V?$allocator@D@2@@std@@V?$allocator@V?$basic_string@DU?$char_traits@D@std@@V?$allocator@D@2@@std@@@2@@std@@@2@V?$_Vector_const_iterator@V?$_Vector_val@V?$basic_string@DU?$char_traits@D@std@@V?$allocator@D@2@@std@@V?$allocator@V?$basic_string@DU?$char_traits@D@std@@V?$allocator@D@2@@std@@@2@@std@@@2@@Z 005110e0 f i json_value.obj
 0002:00033140       ??0?$_Vector_const_iterator@V?$_Vector_val@V?$basic_string@DU?$char_traits@D@std@@V?$allocator@D@2@@std@@V?$allocator@V?$basic_string@DU?$char_traits@D@std@@V?$allocator@D@2@@std@@@2@@std@@@std@@QAE@PAV?$basic_string@DU?$char_traits@D@std@@V?$allocator@D@2@@1@PBU_Container_base0@1@@Z 00511140 f i json_value.obj
 0002:000331b0       ?_Compat@?$_Vector_const_iterator@V?$_Vector_val@V?$basic_string@DU?$char_traits@D@std@@V?$allocator@D@2@@std@@V?$allocator@V?$basic_string@DU?$char_traits@D@std@@V?$allocator@D@2@@std@@@2@@std@@@std@@QBEXABV12@@Z 005111b0 f i json_value.obj
 0002:000331f0       ??$swap@PBD@std@@YAXAAPBD0@Z 005111f0 f i json_value.obj
 0002:000332b0       ??$swap@I@std@@YAXAAI0@Z   005112b0 f i json_value.obj
 0002:00033370       ??$swap@TValueHolder@Value@Json@@@std@@YAXAATValueHolder@Value@Json@@0@Z 00511370 f i json_value.obj
 0002:00033440       ??$?MV?$_Tmap_traits@VCZString@Value@Json@@V23@U?$less@VCZString@Value@Json@@@std@@V?$allocator@U?$pair@$$CBVCZString@Value@Json@@V23@@std@@@5@$0A@@std@@@std@@YA_NABV?$_Tree@V?$_Tmap_traits@VCZString@Value@Json@@V23@U?$less@VCZString@Value@Json@@@std@@V?$allocator@U?$pair@$$CBVCZString@Value@Json@@V23@@std@@@5@$0A@@std@@@0@0@Z 00511440 f i json_value.obj
 0002:000334f0       ??$?8V?$_Tmap_traits@VCZString@Value@Json@@V23@U?$less@VCZString@Value@Json@@@std@@V?$allocator@U?$pair@$$CBVCZString@Value@Json@@V23@@std@@@5@$0A@@std@@@std@@YA_NABV?$_Tree@V?$_Tmap_traits@VCZString@Value@Json@@V23@U?$less@VCZString@Value@Json@@@std@@V?$allocator@U?$pair@$$CBVCZString@Value@Json@@V23@@std@@@5@$0A@@std@@@0@0@Z 005114f0 f i json_value.obj
 0002:00033830       ??$?8DU?$char_traits@D@std@@V?$allocator@D@1@@std@@YA_NABV?$basic_string@DU?$char_traits@D@std@@V?$allocator@D@2@@0@PBD@Z 00511830 f i json_value.obj
 0002:00033890       ??$?0AAVCZString@Value@Json@@ABV12@@?$pair@$$CBVCZString@Value@Json@@V23@@std@@QAE@AAVCZString@Value@Json@@ABV34@@Z 00511890 f i json_value.obj
 0002:00033910       ??$insert@AAU?$pair@$$CBVCZString@Value@Json@@V23@@std@@@?$_Tree@V?$_Tmap_traits@VCZString@Value@Json@@V23@U?$less@VCZString@Value@Json@@@std@@V?$allocator@U?$pair@$$CBVCZString@Value@Json@@V23@@std@@@5@$0A@@std@@@std@@QAE?AV?$_Tree_iterator@V?$_Tree_val@V?$_Tmap_traits@VCZString@Value@Json@@V23@U?$less@VCZString@Value@Json@@@std@@V?$allocator@U?$pair@$$CBVCZString@Value@Json@@V23@@std@@@5@$0A@@std@@@std@@@1@V?$_Tree_const_iterator@V?$_Tree_val@V?$_Tmap_traits@VCZString@Value@Json@@V23@U?$less@VCZString@Value@Json@@@std@@V?$allocator@U?$pair@$$CBVCZString@Value@Json@@V23@@std@@@5@$0A@@std@@@std@@@1@AAU?$pair@$$CBVCZString@Value@Json@@V23@@1@@Z 00511910 f i json_value.obj
 0002:00033990       ??$addressof@PBVPathArgument@Json@@@std@@YAPAPBVPathArgument@Json@@AAPBV12@@Z 00511990 f i json_value.obj
 0002:000339d0       ??$forward@PBVPathArgument@Json@@@std@@YA$$QAPBVPathArgument@Json@@AAPBV12@@Z 005119d0 f i json_value.obj
 0002:00033a10       ??$_Cons_val@V?$allocator@PBVPathArgument@Json@@@std@@PBVPathArgument@Json@@PBV34@@std@@YAXAAV?$allocator@PBVPathArgument@Json@@@0@PAPBVPathArgument@Json@@$$QAPBV23@@Z 00511a10 f i json_value.obj
 0002:00033a70       ??$addressof@VPathArgument@Json@@@std@@YAPAVPathArgument@Json@@AAV12@@Z 00511a70 f i json_value.obj
 0002:00033ab0       ??$forward@VPathArgument@Json@@@std@@YA$$QAVPathArgument@Json@@AAV12@@Z 00511ab0 f i json_value.obj
 0002:00033af0       ??$_Cons_val@V?$allocator@VPathArgument@Json@@@std@@VPathArgument@Json@@V34@@std@@YAXAAV?$allocator@VPathArgument@Json@@@0@PAVPathArgument@Json@@$$QAV23@@Z 00511af0 f i json_value.obj
 0002:00033b50       ??$addressof@$$CBVPathArgument@Json@@@std@@YAPBVPathArgument@Json@@ABV12@@Z 00511b50 f i json_value.obj
 0002:00033b90       ??$_Cons_val@V?$allocator@VPathArgument@Json@@@std@@VPathArgument@Json@@AAV34@@std@@YAXAAV?$allocator@VPathArgument@Json@@@0@PAVPathArgument@Json@@AAV23@@Z 00511b90 f i json_value.obj
 0002:00033bf0       ??$_Cons_val@V?$allocator@VPathArgument@Json@@@std@@VPathArgument@Json@@ABV34@@std@@YAXAAV?$allocator@VPathArgument@Json@@@0@PAVPathArgument@Json@@ABV23@@Z 00511bf0 f i json_value.obj
 0002:00033c50       ??$swap@D@std@@YAXAAD0@Z   00511c50 f i json_value.obj
 0002:00033d10       ??$addressof@U?$pair@$$CBVCZString@Value@Json@@V23@@std@@@std@@YAPAU?$pair@$$CBVCZString@Value@Json@@V23@@0@AAU10@@Z 00511d10 f i json_value.obj
 0002:00033d50       ??$_Dest_val@V?$allocator@U?$pair@$$CBVCZString@Value@Json@@V23@@std@@@std@@U?$pair@$$CBVCZString@Value@Json@@V23@@2@@std@@YAXAAV?$allocator@U?$pair@$$CBVCZString@Value@Json@@V23@@std@@@0@PAU?$pair@$$CBVCZString@Value@Json@@V23@@0@@Z 00511d50 f i json_value.obj
 0002:00033da0       ??$_Distance@V?$_Tree_iterator@V?$_Tree_val@V?$_Tmap_traits@VCZString@Value@Json@@V23@U?$less@VCZString@Value@Json@@@std@@V?$allocator@U?$pair@$$CBVCZString@Value@Json@@V23@@std@@@5@$0A@@std@@@std@@@std@@I@std@@YAXV?$_Tree_iterator@V?$_Tree_val@V?$_Tmap_traits@VCZString@Value@Json@@V23@U?$less@VCZString@Value@Json@@@std@@V?$allocator@U?$pair@$$CBVCZString@Value@Json@@V23@@std@@@5@$0A@@std@@@std@@@0@0AAI@Z 00511da0 f i json_value.obj
 0002:00033e20       ??$forward@V?$vector@V?$basic_string@DU?$char_traits@D@std@@V?$allocator@D@2@@std@@V?$allocator@V?$basic_string@DU?$char_traits@D@std@@V?$allocator@D@2@@std@@@2@@std@@@std@@YA$$QAV?$vector@V?$basic_string@DU?$char_traits@D@std@@V?$allocator@D@2@@std@@V?$allocator@V?$basic_string@DU?$char_traits@D@std@@V?$allocator@D@2@@std@@@2@@0@AAV10@@Z 00511e20 f i json_value.obj
 0002:00033e60       ??$addressof@V?$basic_string@DU?$char_traits@D@std@@V?$allocator@D@2@@std@@@std@@YAPAV?$basic_string@DU?$char_traits@D@std@@V?$allocator@D@2@@0@AAV10@@Z 00511e60 f i json_value.obj
 0002:00033ea0       ??$_Cons_val@V?$allocator@V?$basic_string@DU?$char_traits@D@std@@V?$allocator@D@2@@std@@@std@@V?$basic_string@DU?$char_traits@D@std@@V?$allocator@D@2@@2@V32@@std@@YAXAAV?$allocator@V?$basic_string@DU?$char_traits@D@std@@V?$allocator@D@2@@std@@@0@PAV?$basic_string@DU?$char_traits@D@std@@V?$allocator@D@2@@0@$$QAV20@@Z 00511ea0 f i json_value.obj
 0002:00033f00       ??$_Umove@PAV?$basic_string@DU?$char_traits@D@std@@V?$allocator@D@2@@std@@@?$vector@V?$basic_string@DU?$char_traits@D@std@@V?$allocator@D@2@@std@@V?$allocator@V?$basic_string@DU?$char_traits@D@std@@V?$allocator@D@2@@std@@@2@@std@@IAEPAV?$basic_string@DU?$char_traits@D@std@@V?$allocator@D@2@@1@PAV21@00@Z 00511f00 f i json_value.obj
 0002:00033f70       ??$_Kfn@$$CBVCZString@Value@Json@@V23@@?$_Tmap_traits@VCZString@Value@Json@@V23@U?$less@VCZString@Value@Json@@@std@@V?$allocator@U?$pair@$$CBVCZString@Value@Json@@V23@@std@@@5@$0A@@std@@SAABVCZString@Value@Json@@ABU?$pair@$$CBVCZString@Value@Json@@V23@@1@@Z 00511f70 f i json_value.obj
 0002:00033fb0       ??$?9V?$basic_string@DU?$char_traits@D@std@@V?$allocator@D@2@@std@@V01@@std@@YA_NABV?$allocator@V?$basic_string@DU?$char_traits@D@std@@V?$allocator@D@2@@std@@@0@0@Z 00511fb0 f i json_value.obj
 0002:00034010       ??$_Allocate@V?$basic_string@DU?$char_traits@D@std@@V?$allocator@D@2@@std@@@std@@YAPAV?$basic_string@DU?$char_traits@D@std@@V?$allocator@D@2@@0@IPAV10@@Z 00512010 f i json_value.obj
 0002:000340c0       ??$_Umove@PAPBVPathArgument@Json@@@?$vector@PBVPathArgument@Json@@V?$allocator@PBVPathArgument@Json@@@std@@@std@@IAEPAPBVPathArgument@Json@@PAPBV23@00@Z 005120c0 f i json_value.obj
 0002:00034130       ??$_Destroy_range@V?$allocator@PBVPathArgument@Json@@@std@@@std@@YAXPAPBVPathArgument@Json@@0AAV?$allocator@PBVPathArgument@Json@@@0@@Z 00512130 f i json_value.obj
 0002:000341b0       ??$_Umove@PAVPathArgument@Json@@@?$vector@VPathArgument@Json@@V?$allocator@VPathArgument@Json@@@std@@@std@@IAEPAVPathArgument@Json@@PAV23@00@Z 005121b0 f i json_value.obj
 0002:00034220       ??$_Destroy_range@V?$allocator@VPathArgument@Json@@@std@@@std@@YAXPAVPathArgument@Json@@0AAV?$allocator@VPathArgument@Json@@@0@@Z 00512220 f i json_value.obj
 0002:000342a0       ??$?0AAV?$_Tree_iterator@V?$_Tree_val@V?$_Tmap_traits@VCZString@Value@Json@@V23@U?$less@VCZString@Value@Json@@@std@@V?$allocator@U?$pair@$$CBVCZString@Value@Json@@V23@@std@@@5@$0A@@std@@@std@@@std@@AAV01@@?$pair@V?$_Tree_iterator@V?$_Tree_val@V?$_Tmap_traits@VCZString@Value@Json@@V23@U?$less@VCZString@Value@Json@@@std@@V?$allocator@U?$pair@$$CBVCZString@Value@Json@@V23@@std@@@5@$0A@@std@@@std@@@std@@V12@@std@@QAE@AAV?$_Tree_iterator@V?$_Tree_val@V?$_Tmap_traits@VCZString@Value@Json@@V23@U?$less@VCZString@Value@Json@@@std@@V?$allocator@U?$pair@$$CBVCZString@Value@Json@@V23@@std@@@5@$0A@@std@@@std@@@1@0@Z 005122a0 f i json_value.obj
 0002:00034320       ??$_Allocate@PBVPathArgument@Json@@@std@@YAPAPBVPathArgument@Json@@IPAPBV12@@Z 00512320 f i json_value.obj
 0002:000343d0       ??$_Allocate@VPathArgument@Json@@@std@@YAPAVPathArgument@Json@@IPAV12@@Z 005123d0 f i json_value.obj
 0002:00034480       ??$_Buynode@AAU?$pair@$$CBVCZString@Value@Json@@V23@@std@@@?$_Tree_val@V?$_Tmap_traits@VCZString@Value@Json@@V23@U?$less@VCZString@Value@Json@@@std@@V?$allocator@U?$pair@$$CBVCZString@Value@Json@@V23@@std@@@5@$0A@@std@@@std@@QAEPAU_Node@?$_Tree_nod@V?$_Tmap_traits@VCZString@Value@Json@@V23@U?$less@VCZString@Value@Json@@@std@@V?$allocator@U?$pair@$$CBVCZString@Value@Json@@V23@@std@@@5@$0A@@std@@@1@AAU?$pair@$$CBVCZString@Value@Json@@V23@@1@@Z 00512480 f i json_value.obj
 0002:000345d0       ??$?0U?$pair@$$CBVCZString@Value@Json@@V23@@std@@@?$allocator@U_Node@?$_Tree_nod@V?$_Tmap_traits@VCZString@Value@Json@@V23@U?$less@VCZString@Value@Json@@@std@@V?$allocator@U?$pair@$$CBVCZString@Value@Json@@V23@@std@@@5@$0A@@std@@@std@@@std@@QAE@ABV?$allocator@U?$pair@$$CBVCZString@Value@Json@@V23@@std@@@1@@Z 005125d0 f i json_value.obj
 0002:00034610       ??$_Allocate@U_Node@?$_Tree_nod@V?$_Tmap_traits@VCZString@Value@Json@@V23@U?$less@VCZString@Value@Json@@@std@@V?$allocator@U?$pair@$$CBVCZString@Value@Json@@V23@@std@@@5@$0A@@std@@@std@@@std@@YAPAU_Node@?$_Tree_nod@V?$_Tmap_traits@VCZString@Value@Json@@V23@U?$less@VCZString@Value@Json@@@std@@V?$allocator@U?$pair@$$CBVCZString@Value@Json@@V23@@std@@@5@$0A@@std@@@0@IPAU120@@Z 00512610 f i json_value.obj
 0002:000346c0       ??$_Move@PAV?$basic_string@DU?$char_traits@D@std@@V?$allocator@D@2@@std@@PAV12@@std@@YAPAV?$basic_string@DU?$char_traits@D@std@@V?$allocator@D@2@@0@PAV10@00@Z 005126c0 f i json_value.obj
 0002:00034740       ?construct@?$allocator@PBVPathArgument@Json@@@std@@QAEXPAPBVPathArgument@Json@@$$QAPBV34@@Z 00512740 f i json_value.obj
 0002:00034840       ?construct@?$allocator@VPathArgument@Json@@@std@@QAEXPAVPathArgument@Json@@ABV34@@Z 00512840 f i json_value.obj
 0002:000348a0       ?construct@?$allocator@VPathArgument@Json@@@std@@QAEXPAVPathArgument@Json@@$$QAV34@@Z 005128a0 f i json_value.obj
 0002:000349a0       ?begin@?$_Tree@V?$_Tmap_traits@VCZString@Value@Json@@V23@U?$less@VCZString@Value@Json@@@std@@V?$allocator@U?$pair@$$CBVCZString@Value@Json@@V23@@std@@@5@$0A@@std@@@std@@QBE?AV?$_Tree_const_iterator@V?$_Tree_val@V?$_Tmap_traits@VCZString@Value@Json@@V23@U?$less@VCZString@Value@Json@@@std@@V?$allocator@U?$pair@$$CBVCZString@Value@Json@@V23@@std@@@5@$0A@@std@@@std@@@2@XZ 005129a0 f i json_value.obj
 0002:00034a10       ?end@?$_Tree@V?$_Tmap_traits@VCZString@Value@Json@@V23@U?$less@VCZString@Value@Json@@@std@@V?$allocator@U?$pair@$$CBVCZString@Value@Json@@V23@@std@@@5@$0A@@std@@@std@@QBE?AV?$_Tree_const_iterator@V?$_Tree_val@V?$_Tmap_traits@VCZString@Value@Json@@V23@U?$less@VCZString@Value@Json@@@std@@V?$allocator@U?$pair@$$CBVCZString@Value@Json@@V23@@std@@@5@$0A@@std@@@std@@@2@XZ 00512a10 f i json_value.obj
 0002:00034a80       ?_Insert@?$_Tree@V?$_Tmap_traits@VCZString@Value@Json@@V23@U?$less@VCZString@Value@Json@@@std@@V?$allocator@U?$pair@$$CBVCZString@Value@Json@@V23@@std@@@5@$0A@@std@@@std@@QAE?AV?$_Tree_iterator@V?$_Tree_val@V?$_Tmap_traits@VCZString@Value@Json@@V23@U?$less@VCZString@Value@Json@@@std@@V?$allocator@U?$pair@$$CBVCZString@Value@Json@@V23@@std@@@5@$0A@@std@@@std@@@2@V?$_Tree_const_iterator@V?$_Tree_val@V?$_Tmap_traits@VCZString@Value@Json@@V23@U?$less@VCZString@Value@Json@@@std@@V?$allocator@U?$pair@$$CBVCZString@Value@Json@@V23@@std@@@5@$0A@@std@@@std@@@2@PAU_Node@?$_Tree_nod@V?$_Tmap_traits@VCZString@Value@Json@@V23@U?$less@VCZString@Value@Json@@@std@@V?$allocator@U?$pair@$$CBVCZString@Value@Json@@V23@@std@@@5@$0A@@std@@@2@@Z 00512a80 f i json_value.obj
 0002:00035290       ?_Buynode@?$_Tree_val@V?$_Tmap_traits@VCZString@Value@Json@@V23@U?$less@VCZString@Value@Json@@@std@@V?$allocator@U?$pair@$$CBVCZString@Value@Json@@V23@@std@@@5@$0A@@std@@@std@@QAEPAU_Node@?$_Tree_nod@V?$_Tmap_traits@VCZString@Value@Json@@V23@U?$less@VCZString@Value@Json@@@std@@V?$allocator@U?$pair@$$CBVCZString@Value@Json@@V23@@std@@@5@$0A@@std@@@2@XZ 00513290 f i json_value.obj
 0002:00035360       ?destroy@?$allocator@U?$pair@$$CBVCZString@Value@Json@@V23@@std@@@std@@QAEXPAU?$pair@$$CBVCZString@Value@Json@@V23@@2@@Z 00513360 f i json_value.obj
 0002:000353c0       ?construct@?$allocator@V?$basic_string@DU?$char_traits@D@std@@V?$allocator@D@2@@std@@@std@@QAEXPAV?$basic_string@DU?$char_traits@D@std@@V?$allocator@D@2@@2@$$QAV32@@Z 005133c0 f i json_value.obj
 0002:000354c0       ??0PathArgument@Json@@QAE@ABV01@@Z 005134c0 f i json_value.obj
 0002:00035540       ?_Linsert@?$_Tree@V?$_Tmap_traits@VCZString@Value@Json@@V23@U?$less@VCZString@Value@Json@@@std@@V?$allocator@U?$pair@$$CBVCZString@Value@Json@@V23@@std@@@5@$0A@@std@@@std@@QAE?AU?$pair@V?$_Tree_iterator@V?$_Tree_val@V?$_Tmap_traits@VCZString@Value@Json@@V23@U?$less@VCZString@Value@Json@@@std@@V?$allocator@U?$pair@$$CBVCZString@Value@Json@@V23@@std@@@5@$0A@@std@@@std@@@std@@_N@2@PAU_Node@?$_Tree_nod@V?$_Tmap_traits@VCZString@Value@Json@@V23@U?$less@VCZString@Value@Json@@@std@@V?$allocator@U?$pair@$$CBVCZString@Value@Json@@V23@@std@@@5@$0A@@std@@@2@_N@Z 00513540 f i json_value.obj
 0002:000358c0       ?_Insert@?$_Tree@V?$_Tmap_traits@VCZString@Value@Json@@V23@U?$less@VCZString@Value@Json@@@std@@V?$allocator@U?$pair@$$CBVCZString@Value@Json@@V23@@std@@@5@$0A@@std@@@std@@IAE?AV?$_Tree_iterator@V?$_Tree_val@V?$_Tmap_traits@VCZString@Value@Json@@V23@U?$less@VCZString@Value@Json@@@std@@V?$allocator@U?$pair@$$CBVCZString@Value@Json@@V23@@std@@@5@$0A@@std@@@std@@@2@_NPAU_Node@?$_Tree_nod@V?$_Tmap_traits@VCZString@Value@Json@@V23@U?$less@VCZString@Value@Json@@@std@@V?$allocator@U?$pair@$$CBVCZString@Value@Json@@V23@@std@@@5@$0A@@std@@@2@1@Z 005138c0 f i json_value.obj
 0002:00035e40       ?max_size@?$_Tree@V?$_Tmap_traits@VCZString@Value@Json@@V23@U?$less@VCZString@Value@Json@@@std@@V?$allocator@U?$pair@$$CBVCZString@Value@Json@@V23@@std@@@5@$0A@@std@@@std@@QBEIXZ 00513e40 f i json_value.obj
 0002:00035ea0       ??0?$pair@V?$_Tree_iterator@V?$_Tree_val@V?$_Tmap_traits@VCZString@Value@Json@@V23@U?$less@VCZString@Value@Json@@@std@@V?$allocator@U?$pair@$$CBVCZString@Value@Json@@V23@@std@@@5@$0A@@std@@@std@@@std@@_N@std@@QAE@$$QAV?$_Tree_iterator@V?$_Tree_val@V?$_Tmap_traits@VCZString@Value@Json@@V23@U?$less@VCZString@Value@Json@@@std@@V?$allocator@U?$pair@$$CBVCZString@Value@Json@@V23@@std@@@5@$0A@@std@@@std@@@1@$$QA_N@Z 00513ea0 f i json_value.obj
 0002:00035f20       ?max_size@?$allocator@U?$pair@$$CBVCZString@Value@Json@@V23@@std@@@std@@QBEIXZ 00513f20 f i json_value.obj
 0002:00035f90       ??0?$_Pair_base@V?$_Tree_iterator@V?$_Tree_val@V?$_Tmap_traits@VCZString@Value@Json@@V23@U?$less@VCZString@Value@Json@@@std@@V?$allocator@U?$pair@$$CBVCZString@Value@Json@@V23@@std@@@5@$0A@@std@@@std@@@std@@_N@std@@QAE@$$QAV?$_Tree_iterator@V?$_Tree_val@V?$_Tmap_traits@VCZString@Value@Json@@V23@U?$less@VCZString@Value@Json@@@std@@V?$allocator@U?$pair@$$CBVCZString@Value@Json@@V23@@std@@@5@$0A@@std@@@std@@@1@$$QA_N@Z 00513f90 f i json_value.obj
 0002:00036010       ??$_Move@AAPBD@std@@YA$$QAPBDAAPBD@Z 00514010 f i json_value.obj
 0002:00036050       ??$_Move@AAI@std@@YA$$QAIAAI@Z 00514050 f i json_value.obj
 0002:00036090       ??$_Move@AATValueHolder@Value@Json@@@std@@YA$$QATValueHolder@Value@Json@@AAT123@@Z 00514090 f i json_value.obj
 0002:000360d0       ??$lexicographical_compare@V?$_Tree_const_iterator@V?$_Tree_val@V?$_Tmap_traits@VCZString@Value@Json@@V23@U?$less@VCZString@Value@Json@@@std@@V?$allocator@U?$pair@$$CBVCZString@Value@Json@@V23@@std@@@5@$0A@@std@@@std@@@std@@V12@@std@@YA_NV?$_Tree_const_iterator@V?$_Tree_val@V?$_Tmap_traits@VCZString@Value@Json@@V23@U?$less@VCZString@Value@Json@@@std@@V?$allocator@U?$pair@$$CBVCZString@Value@Json@@V23@@std@@@5@$0A@@std@@@std@@@0@000@Z 005140d0 f i json_value.obj
 0002:00036190       ??$equal@V?$_Tree_const_iterator@V?$_Tree_val@V?$_Tmap_traits@VCZString@Value@Json@@V23@U?$less@VCZString@Value@Json@@@std@@V?$allocator@U?$pair@$$CBVCZString@Value@Json@@V23@@std@@@5@$0A@@std@@@std@@@std@@V12@@std@@YA_NV?$_Tree_const_iterator@V?$_Tree_val@V?$_Tmap_traits@VCZString@Value@Json@@V23@U?$less@VCZString@Value@Json@@@std@@V?$allocator@U?$pair@$$CBVCZString@Value@Json@@V23@@std@@@5@$0A@@std@@@std@@@0@00@Z 00514190 f i json_value.obj
 0002:00036230       ??$forward@AAVCZString@Value@Json@@@std@@YAAAVCZString@Value@Json@@AAV123@@Z 00514230 f i json_value.obj
 0002:00036270       ??$forward@ABVValue@Json@@@std@@YAABVValue@Json@@ABV12@@Z 00514270 f i json_value.obj
 0002:000362b0       ??$?0AAVCZString@Value@Json@@ABV12@@?$_Pair_base@$$CBVCZString@Value@Json@@V23@@std@@QAE@AAVCZString@Value@Json@@ABV34@@Z 005142b0 f i json_value.obj
 0002:00036380       ??$forward@AAU?$pair@$$CBVCZString@Value@Json@@V23@@std@@@std@@YAAAU?$pair@$$CBVCZString@Value@Json@@V23@@0@AAU10@@Z 00514380 f i json_value.obj
 0002:000363c0       ??$forward@AAVPathArgument@Json@@@std@@YAAAVPathArgument@Json@@AAV12@@Z 005143c0 f i json_value.obj
 0002:00036400       ??$construct@AAVPathArgument@Json@@@?$allocator@VPathArgument@Json@@@std@@QAEXPAVPathArgument@Json@@AAV23@@Z 00514400 f i json_value.obj
 0002:00036500       ??$forward@ABVPathArgument@Json@@@std@@YAABVPathArgument@Json@@ABV12@@Z 00514500 f i json_value.obj
 0002:00036540       ??$_Move@AAD@std@@YA$$QADAAD@Z 00514540 f i json_value.obj
 0002:00036580       ??$_Iter_cat@V?$_Tree_iterator@V?$_Tree_val@V?$_Tmap_traits@VCZString@Value@Json@@V23@U?$less@VCZString@Value@Json@@@std@@V?$allocator@U?$pair@$$CBVCZString@Value@Json@@V23@@std@@@5@$0A@@std@@@std@@@std@@@std@@YA?AUbidirectional_iterator_tag@0@ABV?$_Tree_iterator@V?$_Tree_val@V?$_Tmap_traits@VCZString@Value@Json@@V23@U?$less@VCZString@Value@Json@@@std@@V?$allocator@U?$pair@$$CBVCZString@Value@Json@@V23@@std@@@5@$0A@@std@@@std@@@0@@Z 00514580 f i json_value.obj
 0002:00036600       ??$_Distance2@V?$_Tree_iterator@V?$_Tree_val@V?$_Tmap_traits@VCZString@Value@Json@@V23@U?$less@VCZString@Value@Json@@@std@@V?$allocator@U?$pair@$$CBVCZString@Value@Json@@V23@@std@@@5@$0A@@std@@@std@@@std@@I@std@@YAXV?$_Tree_iterator@V?$_Tree_val@V?$_Tmap_traits@VCZString@Value@Json@@V23@U?$less@VCZString@Value@Json@@@std@@V?$allocator@U?$pair@$$CBVCZString@Value@Json@@V23@@std@@@5@$0A@@std@@@std@@@0@0AAIUbidirectional_iterator_tag@0@@Z 00514600 f i json_value.obj
 0002:00036680       ??$_Uninitialized_move@PAV?$basic_string@DU?$char_traits@D@std@@V?$allocator@D@2@@std@@PAV12@V?$allocator@V?$basic_string@DU?$char_traits@D@std@@V?$allocator@D@2@@std@@@2@@std@@YAPAV?$basic_string@DU?$char_traits@D@std@@V?$allocator@D@2@@0@PAV10@00AAV?$allocator@V?$basic_string@DU?$char_traits@D@std@@V?$allocator@D@2@@std@@@0@@Z 00514680 f i json_value.obj
 0002:00036720       ??$?8V?$basic_string@DU?$char_traits@D@std@@V?$allocator@D@2@@std@@V01@@std@@YA_NABV?$allocator@V?$basic_string@DU?$char_traits@D@std@@V?$allocator@D@2@@std@@@0@0@Z 00514720 f i json_value.obj
 0002:00036750       ??$_Uninitialized_move@PAPBVPathArgument@Json@@PAPBV12@V?$allocator@PBVPathArgument@Json@@@std@@@std@@YAPAPBVPathArgument@Json@@PAPBV12@00AAV?$allocator@PBVPathArgument@Json@@@0@@Z 00514750 f i json_value.obj
 0002:000367f0       ??$_Ptr_cat@PBVPathArgument@Json@@PBV12@@std@@YA?AU_Scalar_ptr_iterator_tag@0@PAPBVPathArgument@Json@@0@Z 005147f0 f i json_value.obj
 0002:00036860       ??$_Destroy_range@V?$allocator@PBVPathArgument@Json@@@std@@@std@@YAXPAPBVPathArgument@Json@@0AAV?$allocator@PBVPathArgument@Json@@@0@U_Scalar_ptr_iterator_tag@0@@Z 00514860 f i json_value.obj
 0002:00036890       ??$_Uninitialized_move@PAVPathArgument@Json@@PAV12@V?$allocator@VPathArgument@Json@@@std@@@std@@YAPAVPathArgument@Json@@PAV12@00AAV?$allocator@VPathArgument@Json@@@0@@Z 00514890 f i json_value.obj
 0002:00036930       ??$_Ptr_cat@VPathArgument@Json@@V12@@std@@YA?AU_Nonscalar_ptr_iterator_tag@0@PAVPathArgument@Json@@0@Z 00514930 f i json_value.obj
 0002:000369a0       ??$_Destroy_range@V?$allocator@VPathArgument@Json@@@std@@@std@@YAXPAVPathArgument@Json@@0AAV?$allocator@VPathArgument@Json@@@0@U_Nonscalar_ptr_iterator_tag@0@@Z 005149a0 f i json_value.obj
 0002:00036a10       ??$forward@AAV?$_Tree_iterator@V?$_Tree_val@V?$_Tmap_traits@VCZString@Value@Json@@V23@U?$less@VCZString@Value@Json@@@std@@V?$allocator@U?$pair@$$CBVCZString@Value@Json@@V23@@std@@@5@$0A@@std@@@std@@@std@@@std@@YAAAV?$_Tree_iterator@V?$_Tree_val@V?$_Tmap_traits@VCZString@Value@Json@@V23@U?$less@VCZString@Value@Json@@@std@@V?$allocator@U?$pair@$$CBVCZString@Value@Json@@V23@@std@@@5@$0A@@std@@@std@@@0@AAV10@@Z 00514a10 f i json_value.obj
 0002:00036a50       ??$?0AAV?$_Tree_iterator@V?$_Tree_val@V?$_Tmap_traits@VCZString@Value@Json@@V23@U?$less@VCZString@Value@Json@@@std@@V?$allocator@U?$pair@$$CBVCZString@Value@Json@@V23@@std@@@5@$0A@@std@@@std@@@std@@AAV01@@?$_Pair_base@V?$_Tree_iterator@V?$_Tree_val@V?$_Tmap_traits@VCZString@Value@Json@@V23@U?$less@VCZString@Value@Json@@@std@@V?$allocator@U?$pair@$$CBVCZString@Value@Json@@V23@@std@@@5@$0A@@std@@@std@@@std@@V12@@std@@QAE@AAV?$_Tree_iterator@V?$_Tree_val@V?$_Tmap_traits@VCZString@Value@Json@@V23@U?$less@VCZString@Value@Json@@@std@@V?$allocator@U?$pair@$$CBVCZString@Value@Json@@V23@@std@@@5@$0A@@std@@@std@@@1@0@Z 00514a50 f i json_value.obj
 0002:00036ad0       ??$_Cons_val@V?$allocator@U?$pair@$$CBVCZString@Value@Json@@V23@@std@@@std@@U?$pair@$$CBVCZString@Value@Json@@V23@@2@AAU32@@std@@YAXAAV?$allocator@U?$pair@$$CBVCZString@Value@Json@@V23@@std@@@0@PAU?$pair@$$CBVCZString@Value@Json@@V23@@0@AAU20@@Z 00514ad0 f i json_value.obj
 0002:00036b30       ??$_Move@PAV?$basic_string@DU?$char_traits@D@std@@V?$allocator@D@2@@std@@PAV12@@std@@YAPAV?$basic_string@DU?$char_traits@D@std@@V?$allocator@D@2@@0@PAV10@00U_Nonscalar_ptr_iterator_tag@0@@Z 00514b30 f i json_value.obj
 0002:00036bc0       ??$_Construct@VPathArgument@Json@@ABV12@@std@@YAXPAVPathArgument@Json@@ABV12@@Z 00514bc0 f i json_value.obj
 0002:00036cc0       ??$_Destroy@U?$pair@$$CBVCZString@Value@Json@@V23@@std@@@std@@YAXPAU?$pair@$$CBVCZString@Value@Json@@V23@@0@@Z 00514cc0 f i json_value.obj
 0002:00036d10       ??$?0AAV?$_Tree_iterator@V?$_Tree_val@V?$_Tmap_traits@VCZString@Value@Json@@V23@U?$less@VCZString@Value@Json@@@std@@V?$allocator@U?$pair@$$CBVCZString@Value@Json@@V23@@std@@@5@$0A@@std@@@std@@@std@@_N@?$pair@V?$_Tree_iterator@V?$_Tree_val@V?$_Tmap_traits@VCZString@Value@Json@@V23@U?$less@VCZString@Value@Json@@@std@@V?$allocator@U?$pair@$$CBVCZString@Value@Json@@V23@@std@@@5@$0A@@std@@@std@@@std@@_N@std@@QAE@AAV?$_Tree_iterator@V?$_Tree_val@V?$_Tmap_traits@VCZString@Value@Json@@V23@U?$less@VCZString@Value@Json@@@std@@V?$allocator@U?$pair@$$CBVCZString@Value@Json@@V23@@std@@@5@$0A@@std@@@std@@@1@$$QA_N@Z 00514d10 f i json_value.obj
 0002:00036d90       ??$move@AAV?$_Tree_iterator@V?$_Tree_val@V?$_Tmap_traits@VCZString@Value@Json@@V23@U?$less@VCZString@Value@Json@@@std@@V?$allocator@U?$pair@$$CBVCZString@Value@Json@@V23@@std@@@5@$0A@@std@@@std@@@std@@@std@@YA$$QAV?$_Tree_iterator@V?$_Tree_val@V?$_Tmap_traits@VCZString@Value@Json@@V23@U?$less@VCZString@Value@Json@@@std@@V?$allocator@U?$pair@$$CBVCZString@Value@Json@@V23@@std@@@5@$0A@@std@@@std@@@0@AAV10@@Z 00514d90 f i json_value.obj
 0002:00036dd0       ??$move@AA_N@std@@YA$$QA_NAA_N@Z 00514dd0 f i json_value.obj
 0002:00036e10       ??_G?$pair@$$CBVCZString@Value@Json@@V23@@std@@QAEPAXI@Z 00514e10 f i json_value.obj
 0002:00036e80       ??$_Unchecked@V?$_Tree_val@V?$_Tmap_traits@VCZString@Value@Json@@V23@U?$less@VCZString@Value@Json@@@std@@V?$allocator@U?$pair@$$CBVCZString@Value@Json@@V23@@std@@@5@$0A@@std@@@std@@@std@@YA?AV?$_Tree_unchecked_const_iterator@V?$_Tree_val@V?$_Tmap_traits@VCZString@Value@Json@@V23@U?$less@VCZString@Value@Json@@@std@@V?$allocator@U?$pair@$$CBVCZString@Value@Json@@V23@@std@@@5@$0A@@std@@@std@@U_Iterator_base0@2@@0@V?$_Tree_const_iterator@V?$_Tree_val@V?$_Tmap_traits@VCZString@Value@Json@@V23@U?$less@VCZString@Value@Json@@@std@@V?$allocator@U?$pair@$$CBVCZString@Value@Json@@V23@@std@@@5@$0A@@std@@@std@@@0@@Z 00514e80 f i json_value.obj
 0002:00036ee0       ??$_Lexicographical_compare@V?$_Tree_unchecked_const_iterator@V?$_Tree_val@V?$_Tmap_traits@VCZString@Value@Json@@V23@U?$less@VCZString@Value@Json@@@std@@V?$allocator@U?$pair@$$CBVCZString@Value@Json@@V23@@std@@@5@$0A@@std@@@std@@U_Iterator_base0@2@@std@@V12@@std@@YA_NV?$_Tree_unchecked_const_iterator@V?$_Tree_val@V?$_Tmap_traits@VCZString@Value@Json@@V23@U?$less@VCZString@Value@Json@@@std@@V?$allocator@U?$pair@$$CBVCZString@Value@Json@@V23@@std@@@5@$0A@@std@@@std@@U_Iterator_base0@2@@0@000@Z 00514ee0 f i json_value.obj
 0002:00037020       ??$_Equal@V?$_Tree_unchecked_const_iterator@V?$_Tree_val@V?$_Tmap_traits@VCZString@Value@Json@@V23@U?$less@VCZString@Value@Json@@@std@@V?$allocator@U?$pair@$$CBVCZString@Value@Json@@V23@@std@@@5@$0A@@std@@@std@@U_Iterator_base0@2@@std@@V12@@std@@YA_NV?$_Tree_unchecked_const_iterator@V?$_Tree_val@V?$_Tmap_traits@VCZString@Value@Json@@V23@U?$less@VCZString@Value@Json@@@std@@V?$allocator@U?$pair@$$CBVCZString@Value@Json@@V23@@std@@@5@$0A@@std@@@std@@U_Iterator_base0@2@@0@00@Z 00515020 f i json_value.obj
 0002:000370c0       ??$_Val_type@PAV?$basic_string@DU?$char_traits@D@std@@V?$allocator@D@2@@std@@@std@@YAPAV?$basic_string@DU?$char_traits@D@std@@V?$allocator@D@2@@0@PAV10@@Z 005150c0 f i json_value.obj
 0002:000370f0       ??$_Uninit_move@PAV?$basic_string@DU?$char_traits@D@std@@V?$allocator@D@2@@std@@PAV12@V?$allocator@V?$basic_string@DU?$char_traits@D@std@@V?$allocator@D@2@@std@@@2@V12@@std@@YAPAV?$basic_string@DU?$char_traits@D@std@@V?$allocator@D@2@@0@PAV10@00AAV?$allocator@V?$basic_string@DU?$char_traits@D@std@@V?$allocator@D@2@@std@@@0@0U_Nonscalar_ptr_iterator_tag@0@@Z 005150f0 f i json_value.obj
 0002:00037210       ??$_Val_type@PAPBVPathArgument@Json@@@std@@YAPAPBVPathArgument@Json@@PAPBV12@@Z 00515210 f i json_value.obj
 0002:00037240       ??$_Uninit_move@PBVPathArgument@Json@@PBV12@PBV12@@std@@YAPAPBVPathArgument@Json@@PAPBV12@00AAV?$allocator@PBVPathArgument@Json@@@0@0U_Scalar_ptr_iterator_tag@0@@Z 00515240 f i json_value.obj
 0002:000372c0       ??$_Val_type@PAVPathArgument@Json@@@std@@YAPAVPathArgument@Json@@PAV12@@Z 005152c0 f i json_value.obj
 0002:000372f0       ??$_Uninit_move@PAVPathArgument@Json@@PAV12@V?$allocator@VPathArgument@Json@@@std@@V12@@std@@YAPAVPathArgument@Json@@PAV12@00AAV?$allocator@VPathArgument@Json@@@0@0U_Nonscalar_ptr_iterator_tag@0@@Z 005152f0 f i json_value.obj
 0002:00037410       ??$_Dest_val@V?$allocator@VPathArgument@Json@@@std@@VPathArgument@Json@@@std@@YAXAAV?$allocator@VPathArgument@Json@@@0@PAVPathArgument@Json@@@Z 00515410 f i json_value.obj
 0002:00037460       ??$construct@AAU?$pair@$$CBVCZString@Value@Json@@V23@@std@@@?$allocator@U?$pair@$$CBVCZString@Value@Json@@V23@@std@@@std@@QAEXPAU?$pair@$$CBVCZString@Value@Json@@V23@@1@AAU21@@Z 00515460 f i json_value.obj
 0002:00037560       ??$forward@_N@std@@YA$$QA_NAA_N@Z 00515560 f i json_value.obj
 0002:000375a0       ??$?0AAV?$_Tree_iterator@V?$_Tree_val@V?$_Tmap_traits@VCZString@Value@Json@@V23@U?$less@VCZString@Value@Json@@@std@@V?$allocator@U?$pair@$$CBVCZString@Value@Json@@V23@@std@@@5@$0A@@std@@@std@@@std@@_N@?$_Pair_base@V?$_Tree_iterator@V?$_Tree_val@V?$_Tmap_traits@VCZString@Value@Json@@V23@U?$less@VCZString@Value@Json@@@std@@V?$allocator@U?$pair@$$CBVCZString@Value@Json@@V23@@std@@@5@$0A@@std@@@std@@@std@@_N@std@@QAE@AAV?$_Tree_iterator@V?$_Tree_val@V?$_Tmap_traits@VCZString@Value@Json@@V23@U?$less@VCZString@Value@Json@@@std@@V?$allocator@U?$pair@$$CBVCZString@Value@Json@@V23@@std@@@5@$0A@@std@@@std@@@1@$$QA_N@Z 005155a0 f i json_value.obj
 0002:00037620       ?destroy@?$allocator@VPathArgument@Json@@@std@@QAEXPAVPathArgument@Json@@@Z 00515620 f i json_value.obj
 0002:00037680       ?_Unchecked@?$_Tree_const_iterator@V?$_Tree_val@V?$_Tmap_traits@VCZString@Value@Json@@V23@U?$less@VCZString@Value@Json@@@std@@V?$allocator@U?$pair@$$CBVCZString@Value@Json@@V23@@std@@@5@$0A@@std@@@std@@@std@@QBE?AV?$_Tree_unchecked_const_iterator@V?$_Tree_val@V?$_Tmap_traits@VCZString@Value@Json@@V23@U?$less@VCZString@Value@Json@@@std@@V?$allocator@U?$pair@$$CBVCZString@Value@Json@@V23@@std@@@5@$0A@@std@@@std@@U_Iterator_base0@2@@2@XZ 00515680 f i json_value.obj
 0002:000376f0       ??D?$_Tree_unchecked_const_iterator@V?$_Tree_val@V?$_Tmap_traits@VCZString@Value@Json@@V23@U?$less@VCZString@Value@Json@@@std@@V?$allocator@U?$pair@$$CBVCZString@Value@Json@@V23@@std@@@5@$0A@@std@@@std@@U_Iterator_base0@2@@std@@QBEABU?$pair@$$CBVCZString@Value@Json@@V23@@1@XZ 005156f0 f i json_value.obj
 0002:00037750       ??8?$_Tree_unchecked_const_iterator@V?$_Tree_val@V?$_Tmap_traits@VCZString@Value@Json@@V23@U?$less@VCZString@Value@Json@@@std@@V?$allocator@U?$pair@$$CBVCZString@Value@Json@@V23@@std@@@5@$0A@@std@@@std@@U_Iterator_base0@2@@std@@QBE_NABV01@@Z 00515750 f i json_value.obj
 0002:000377a0       ??9?$_Tree_unchecked_const_iterator@V?$_Tree_val@V?$_Tmap_traits@VCZString@Value@Json@@V23@U?$less@VCZString@Value@Json@@@std@@V?$allocator@U?$pair@$$CBVCZString@Value@Json@@V23@@std@@@5@$0A@@std@@@std@@U_Iterator_base0@2@@std@@QBE_NABV01@@Z 005157a0 f i json_value.obj
 0002:00037810       ??$?M$$CBVCZString@Value@Json@@V12@@std@@YA_NABU?$pair@$$CBVCZString@Value@Json@@V23@@0@0@Z 00515810 f i json_value.obj
 0002:000378c0       ??$?8$$CBVCZString@Value@Json@@V12@@std@@YA_NABU?$pair@$$CBVCZString@Value@Json@@V23@@0@0@Z 005158c0 f i json_value.obj
 0002:00037960       ??$?0$$CBVCZString@Value@Json@@V12@@?$pair@$$CBVCZString@Value@Json@@V23@@std@@QAE@AAU01@@Z 00515960 f i json_value.obj
 0002:000379d0       ??$_Destroy@VPathArgument@Json@@@std@@YAXPAVPathArgument@Json@@@Z 005159d0 f i json_value.obj
 0002:00037a20       ??_GPathArgument@Json@@QAEPAXI@Z 00515a20 f i json_value.obj
 0002:00037a90       ??$?0ABVCZString@Value@Json@@AAV12@@?$_Pair_base@$$CBVCZString@Value@Json@@V23@@std@@QAE@ABVCZString@Value@Json@@AAV34@@Z 00515a90 f i json_value.obj
 0002:00037b60       ??$forward@ABVCZString@Value@Json@@@std@@YAABVCZString@Value@Json@@ABV123@@Z 00515b60 f i json_value.obj
 0002:00037ba0       ??$forward@AAVValue@Json@@@std@@YAAAVValue@Json@@AAV12@@Z 00515ba0 f i json_value.obj
 0002:00037be0       ?_Getcont@_Iterator_base0@std@@QBEPBU_Container_base0@2@XZ 00515be0 f i json_value.obj
 0002:00037c20       ??0StaticString@Json@@QAE@PBD@Z 00515c20 f i json_value.obj
 0002:00037c70       ??BStaticString@Json@@QBEPBDXZ 00515c70 f i json_value.obj
 0002:00037cb0       ?c_str@StaticString@Json@@QBEPBDXZ 00515cb0 f i json_value.obj
 0002:00037cf0       ??1PathArgument@Json@@QAE@XZ 00515cf0 f i json_value.obj
 0002:00037d40       ??1StyledWriter@Json@@UAE@XZ 00515d40 f i json_value.obj
 0002:00037e20       ??_GStyledWriter@Json@@UAEPAXI@Z 00515e20 f i json_value.obj
 0002:00037e20       ??_EStyledWriter@Json@@UAEPAXI@Z 00515e20 f i json_value.obj
 0002:00037e90       ?compare@?$basic_string@DU?$char_traits@D@std@@V?$allocator@D@2@@std@@QBEHPBD@Z 00515e90 f i json_value.obj
 0002:00037f10       ??1?$vector@V?$basic_string@DU?$char_traits@D@std@@V?$allocator@D@2@@std@@V?$allocator@V?$basic_string@DU?$char_traits@D@std@@V?$allocator@D@2@@std@@@2@@std@@QAE@XZ 00515f10 f i json_value.obj
 0002:00037fb0       ?compare@?$basic_string@DU?$char_traits@D@std@@V?$allocator@D@2@@std@@QBEHIIPBDI@Z 00515fb0 f i json_value.obj
 0002:000380e0       ?compare@?$char_traits@D@std@@SAHPBD0I@Z 005160e0 f i json_value.obj
 0002:00038140       ?_Tidy@?$vector@V?$basic_string@DU?$char_traits@D@std@@V?$allocator@D@2@@std@@V?$allocator@V?$basic_string@DU?$char_traits@D@std@@V?$allocator@D@2@@std@@@2@@std@@IAEXXZ 00516140 f i json_value.obj
 0002:00038220       ??1?$_Vector_val@V?$basic_string@DU?$char_traits@D@std@@V?$allocator@D@2@@std@@V?$allocator@V?$basic_string@DU?$char_traits@D@std@@V?$allocator@D@2@@std@@@2@@std@@QAE@XZ 00516220 f i json_value.obj
 0002:00038260       ?_Destroy@?$vector@V?$basic_string@DU?$char_traits@D@std@@V?$allocator@D@2@@std@@V?$allocator@V?$basic_string@DU?$char_traits@D@std@@V?$allocator@D@2@@std@@@2@@std@@IAEXPAV?$basic_string@DU?$char_traits@D@std@@V?$allocator@D@2@@2@0@Z 00516260 f i json_value.obj
 0002:000382d0       ?deallocate@?$allocator@V?$basic_string@DU?$char_traits@D@std@@V?$allocator@D@2@@std@@@std@@QAEXPAV?$basic_string@DU?$char_traits@D@std@@V?$allocator@D@2@@2@I@Z 005162d0 f i json_value.obj
 0002:00038330       ??$_Destroy_range@V?$allocator@V?$basic_string@DU?$char_traits@D@std@@V?$allocator@D@2@@std@@@std@@@std@@YAXPAV?$basic_string@DU?$char_traits@D@std@@V?$allocator@D@2@@0@0AAV?$allocator@V?$basic_string@DU?$char_traits@D@std@@V?$allocator@D@2@@std@@@0@@Z 00516330 f i json_value.obj
 0002:000383b0       ??$_Ptr_cat@V?$basic_string@DU?$char_traits@D@std@@V?$allocator@D@2@@std@@V12@@std@@YA?AU_Nonscalar_ptr_iterator_tag@0@PAV?$basic_string@DU?$char_traits@D@std@@V?$allocator@D@2@@0@0@Z 005163b0 f i json_value.obj
 0002:00038420       ??$_Destroy_range@V?$allocator@V?$basic_string@DU?$char_traits@D@std@@V?$allocator@D@2@@std@@@std@@@std@@YAXPAV?$basic_string@DU?$char_traits@D@std@@V?$allocator@D@2@@0@0AAV?$allocator@V?$basic_string@DU?$char_traits@D@std@@V?$allocator@D@2@@std@@@0@U_Nonscalar_ptr_iterator_tag@0@@Z 00516420 f i json_value.obj
 0002:00038490       ??$_Dest_val@V?$allocator@V?$basic_string@DU?$char_traits@D@std@@V?$allocator@D@2@@std@@@std@@V?$basic_string@DU?$char_traits@D@std@@V?$allocator@D@2@@2@@std@@YAXAAV?$allocator@V?$basic_string@DU?$char_traits@D@std@@V?$allocator@D@2@@std@@@0@PAV?$basic_string@DU?$char_traits@D@std@@V?$allocator@D@2@@0@@Z 00516490 f i json_value.obj
 0002:000384e0       ?destroy@?$allocator@V?$basic_string@DU?$char_traits@D@std@@V?$allocator@D@2@@std@@@std@@QAEXPAV?$basic_string@DU?$char_traits@D@std@@V?$allocator@D@2@@2@@Z 005164e0 f i json_value.obj
 0002:00038540       ??$_Destroy@V?$basic_string@DU?$char_traits@D@std@@V?$allocator@D@2@@std@@@std@@YAXPAV?$basic_string@DU?$char_traits@D@std@@V?$allocator@D@2@@0@@Z 00516540 f i json_value.obj
 0002:00038590       ??_G?$basic_string@DU?$char_traits@D@std@@V?$allocator@D@2@@std@@QAEPAXI@Z 00516590 f i json_value.obj
 0002:00038600       ?valueToString@Json@@YA?AV?$basic_string@DU?$char_traits@D@std@@V?$allocator@D@2@@std@@_J@Z 00516600 f   json_writer.obj
 0002:00038870       ?valueToString@Json@@YA?AV?$basic_string@DU?$char_traits@D@std@@V?$allocator@D@2@@std@@_K@Z 00516870 f   json_writer.obj
 0002:000389b0       ?valueToString@Json@@YA?AV?$basic_string@DU?$char_traits@D@std@@V?$allocator@D@2@@std@@H@Z 005169b0 f   json_writer.obj
 0002:00038a30       ?valueToString@Json@@YA?AV?$basic_string@DU?$char_traits@D@std@@V?$allocator@D@2@@std@@I@Z 00516a30 f   json_writer.obj
 0002:00038ab0       ?valueToString@Json@@YA?AV?$basic_string@DU?$char_traits@D@std@@V?$allocator@D@2@@std@@N@Z 00516ab0 f   json_writer.obj
 0002:00038c60       ?valueToString@Json@@YA?AV?$basic_string@DU?$char_traits@D@std@@V?$allocator@D@2@@std@@_N@Z 00516c60 f   json_writer.obj
 0002:00038d00       ?valueToQuotedString@Json@@YA?AV?$basic_string@DU?$char_traits@D@std@@V?$allocator@D@2@@std@@PBD@Z 00516d00 f   json_writer.obj
 0002:000393f0       ??_D?$basic_ostringstream@DU?$char_traits@D@std@@V?$allocator@D@2@@std@@QAEXXZ 005173f0 f i json_writer.obj
 0002:00039460       ??1Writer@Json@@UAE@XZ     00517460 f   json_writer.obj
 0002:000394a0       ??_EWriter@Json@@UAEPAXI@Z 005174a0 f i json_writer.obj
 0002:000394a0       ??_GWriter@Json@@UAEPAXI@Z 005174a0 f i json_writer.obj
 0002:00039510       ??0FastWriter@Json@@QAE@XZ 00517510 f   json_writer.obj
 0002:000395e0       ??0Writer@Json@@QAE@XZ     005175e0 f i json_writer.obj
 0002:00039630       ?enableYAMLCompatibility@FastWriter@Json@@QAEXXZ 00517630 f   json_writer.obj
 0002:00039670       ?dropNullPlaceholders@FastWriter@Json@@QAEXXZ 00517670 f   json_writer.obj
 0002:000396b0       ?omitEndingLineFeed@FastWriter@Json@@QAEXXZ 005176b0 f   json_writer.obj
 0002:000396f0       ?write@FastWriter@Json@@UAE?AV?$basic_string@DU?$char_traits@D@std@@V?$allocator@D@2@@std@@ABVValue@2@@Z 005176f0 f   json_writer.obj
 0002:000397c0       ?writeValue@FastWriter@Json@@AAEXABVValue@2@@Z 005177c0 f   json_writer.obj
 0002:00039da0       ??0StyledWriter@Json@@QAE@XZ 00517da0 f   json_writer.obj
 0002:00039ea0       ?write@StyledWriter@Json@@UAE?AV?$basic_string@DU?$char_traits@D@std@@V?$allocator@D@2@@std@@ABVValue@2@@Z 00517ea0 f   json_writer.obj
 0002:00039f90       ?writeValue@StyledWriter@Json@@AAEXABVValue@2@@Z 00517f90 f   json_writer.obj
 0002:0003a590       ?writeArrayValue@StyledWriter@Json@@AAEXABVValue@2@@Z 00518590 f   json_writer.obj
 0002:0003a8f0       ?isMultineArray@StyledWriter@Json@@AAE_NABVValue@2@@Z 005188f0 f   json_writer.obj
 0002:0003ab00       ?pushValue@StyledWriter@Json@@AAEXABV?$basic_string@DU?$char_traits@D@std@@V?$allocator@D@2@@std@@@Z 00518b00 f   json_writer.obj
 0002:0003ab80       ?writeIndent@StyledWriter@Json@@AAEXXZ 00518b80 f   json_writer.obj
 0002:0003ac50       ?writeWithIndent@StyledWriter@Json@@AAEXABV?$basic_string@DU?$char_traits@D@std@@V?$allocator@D@2@@std@@@Z 00518c50 f   json_writer.obj
 0002:0003acc0       ?indent@StyledWriter@Json@@AAEXXZ 00518cc0 f   json_writer.obj
 0002:0003adb0       ?unindent@StyledWriter@Json@@AAEXXZ 00518db0 f   json_writer.obj
 0002:0003ae60       ?writeCommentBeforeValue@StyledWriter@Json@@AAEXABVValue@2@@Z 00518e60 f   json_writer.obj
 0002:0003b0c0       ?writeCommentAfterValueOnSameLine@StyledWriter@Json@@AAEXABVValue@2@@Z 005190c0 f   json_writer.obj
 0002:0003b350       ?hasCommentForValue@StyledWriter@Json@@AAE_NABVValue@2@@Z 00519350 f   json_writer.obj
 0002:0003b400       ?normalizeEOL@StyledWriter@Json@@CA?AV?$basic_string@DU?$char_traits@D@std@@V?$allocator@D@2@@std@@ABV34@@Z 00519400 f   json_writer.obj
 0002:0003b5c0       ??0StyledStreamWriter@Json@@QAE@V?$basic_string@DU?$char_traits@D@std@@V?$allocator@D@2@@std@@@Z 005195c0 f   json_writer.obj
 0002:0003b6f0       ?write@StyledStreamWriter@Json@@QAEXAAV?$basic_ostream@DU?$char_traits@D@std@@@std@@ABVValue@2@@Z 005196f0 f   json_writer.obj
 0002:0003b7c0       ?writeValue@StyledStreamWriter@Json@@AAEXABVValue@2@@Z 005197c0 f   json_writer.obj
 0002:0003bdd0       ?writeArrayValue@StyledStreamWriter@Json@@AAEXABVValue@2@@Z 00519dd0 f   json_writer.obj
 0002:0003c140       ?isMultineArray@StyledStreamWriter@Json@@AAE_NABVValue@2@@Z 0051a140 f   json_writer.obj
 0002:0003c340       ?pushValue@StyledStreamWriter@Json@@AAEXABV?$basic_string@DU?$char_traits@D@std@@V?$allocator@D@2@@std@@@Z 0051a340 f   json_writer.obj
 0002:0003c3c0       ?writeIndent@StyledStreamWriter@Json@@AAEXXZ 0051a3c0 f   json_writer.obj
 0002:0003c430       ?writeWithIndent@StyledStreamWriter@Json@@AAEXABV?$basic_string@DU?$char_traits@D@std@@V?$allocator@D@2@@std@@@Z 0051a430 f   json_writer.obj
 0002:0003c4a0       ?indent@StyledStreamWriter@Json@@AAEXXZ 0051a4a0 f   json_writer.obj
 0002:0003c500       ?unindent@StyledStreamWriter@Json@@AAEXXZ 0051a500 f   json_writer.obj
 0002:0003c5d0       ?writeCommentBeforeValue@StyledStreamWriter@Json@@AAEXABVValue@2@@Z 0051a5d0 f   json_writer.obj
 0002:0003c740       ?writeCommentAfterValueOnSameLine@StyledStreamWriter@Json@@AAEXABVValue@2@@Z 0051a740 f   json_writer.obj
 0002:0003c9f0       ?hasCommentForValue@StyledStreamWriter@Json@@AAE_NABVValue@2@@Z 0051a9f0 f   json_writer.obj
 0002:0003caa0       ?normalizeEOL@StyledStreamWriter@Json@@CA?AV?$basic_string@DU?$char_traits@D@std@@V?$allocator@D@2@@std@@ABV34@@Z 0051aaa0 f   json_writer.obj
 0002:0003cc60       ??6Json@@YAAAV?$basic_ostream@DU?$char_traits@D@std@@@std@@AAV12@ABVValue@0@@Z 0051ac60 f   json_writer.obj
 0002:0003cd90       ?empty@?$vector@V?$basic_string@DU?$char_traits@D@std@@V?$allocator@D@2@@std@@V?$allocator@V?$basic_string@DU?$char_traits@D@std@@V?$allocator@D@2@@std@@@2@@std@@QBE_NXZ 0051ad90 f i json_writer.obj
 0002:0003cde0       ??A?$vector@V?$basic_string@DU?$char_traits@D@std@@V?$allocator@D@2@@std@@V?$allocator@V?$basic_string@DU?$char_traits@D@std@@V?$allocator@D@2@@std@@@2@@std@@QAEAAV?$basic_string@DU?$char_traits@D@std@@V?$allocator@D@2@@1@I@Z 0051ade0 f i json_writer.obj
 0002:0003ce30       ?push_back@?$vector@V?$basic_string@DU?$char_traits@D@std@@V?$allocator@D@2@@std@@V?$allocator@V?$basic_string@DU?$char_traits@D@std@@V?$allocator@D@2@@std@@@2@@std@@QAEXABV?$basic_string@DU?$char_traits@D@std@@V?$allocator@D@2@@2@@Z 0051ae30 f i json_writer.obj
 0002:0003cfb0       ??D?$_String_const_iterator@DU?$char_traits@D@std@@V?$allocator@D@2@@std@@QBEABDXZ 0051afb0 f i json_writer.obj
 0002:0003cff0       ??E?$_String_const_iterator@DU?$char_traits@D@std@@V?$allocator@D@2@@std@@QAEAAV01@XZ 0051aff0 f i json_writer.obj
 0002:0003d040       ??H?$_String_const_iterator@DU?$char_traits@D@std@@V?$allocator@D@2@@std@@QBE?AV01@H@Z 0051b040 f i json_writer.obj
 0002:0003d0f0       ??9?$_String_const_iterator@DU?$char_traits@D@std@@V?$allocator@D@2@@std@@QBE_NABV01@@Z 0051b0f0 f i json_writer.obj
 0002:0003d160       ??0?$basic_ostringstream@DU?$char_traits@D@std@@V?$allocator@D@2@@std@@QAE@H@Z 0051b160 f i json_writer.obj
 0002:0003d2a0       ??1?$basic_ostringstream@DU?$char_traits@D@std@@V?$allocator@D@2@@std@@UAE@XZ 0051b2a0 f i json_writer.obj
 0002:0003d370       ?str@?$basic_ostringstream@DU?$char_traits@D@std@@V?$allocator@D@2@@std@@QBE?AV?$basic_string@DU?$char_traits@D@std@@V?$allocator@D@2@@2@XZ 0051b370 f i json_writer.obj
 0002:0003d3f0       ??1?$basic_stringbuf@DU?$char_traits@D@std@@V?$allocator@D@2@@std@@UAE@XZ 0051b3f0 f i json_writer.obj
 0002:0003d4b0       ?overflow@?$basic_stringbuf@DU?$char_traits@D@std@@V?$allocator@D@2@@std@@MAEHH@Z 0051b4b0 f i json_writer.obj
 0002:0003d9d0       ?pbackfail@?$basic_stringbuf@DU?$char_traits@D@std@@V?$allocator@D@2@@std@@MAEHH@Z 0051b9d0 f i json_writer.obj
 0002:0003db90       ?underflow@?$basic_stringbuf@DU?$char_traits@D@std@@V?$allocator@D@2@@std@@MAEHXZ 0051bb90 f i json_writer.obj
 0002:0003ddb0       ?seekoff@?$basic_stringbuf@DU?$char_traits@D@std@@V?$allocator@D@2@@std@@MAE?AV?$fpos@H@2@_JHH@Z 0051bdb0 f i json_writer.obj
 0002:0003e290       ?seekpos@?$basic_stringbuf@DU?$char_traits@D@std@@V?$allocator@D@2@@std@@MAE?AV?$fpos@H@2@V32@H@Z 0051c290 f i json_writer.obj
 0002:0003e650       ??_E?$basic_ostringstream@DU?$char_traits@D@std@@V?$allocator@D@2@@std@@UAEPAXI@Z 0051c650 f i json_writer.obj
 0002:0003e650       ??_G?$basic_ostringstream@DU?$char_traits@D@std@@V?$allocator@D@2@@std@@UAEPAXI@Z 0051c650 f i json_writer.obj
 0002:0003e6d0       ??_G?$basic_stringbuf@DU?$char_traits@D@std@@V?$allocator@D@2@@std@@UAEPAXI@Z 0051c6d0 f i json_writer.obj
 0002:0003e6d0       ??_E?$basic_stringbuf@DU?$char_traits@D@std@@V?$allocator@D@2@@std@@UAEPAXI@Z 0051c6d0 f i json_writer.obj
 0002:0003e740       ??8?$_String_const_iterator@DU?$char_traits@D@std@@V?$allocator@D@2@@std@@QBE_NABV01@@Z 0051c740 f i json_writer.obj
 0002:0003e7b0       ??B?$fpos@H@std@@QBE_JXZ   0051c7b0 f i json_writer.obj
 0002:0003e800       ??0?$basic_stringbuf@DU?$char_traits@D@std@@V?$allocator@D@2@@std@@QAE@H@Z 0051c800 f i json_writer.obj
 0002:0003e8e0       ?str@?$basic_stringbuf@DU?$char_traits@D@std@@V?$allocator@D@2@@std@@QBE?AV?$basic_string@DU?$char_traits@D@std@@V?$allocator@D@2@@2@XZ 0051c8e0 f i json_writer.obj
 0002:0003ec10       ??0?$basic_string@DU?$char_traits@D@std@@V?$allocator@D@2@@std@@QAE@PBDI@Z 0051cc10 f i json_writer.obj
 0002:0003ece0       ?_Tidy@?$basic_stringbuf@DU?$char_traits@D@std@@V?$allocator@D@2@@std@@IAEXXZ 0051cce0 f i json_writer.obj
 0002:0003ee40       ?_Init@?$basic_stringbuf@DU?$char_traits@D@std@@V?$allocator@D@2@@std@@IAEXPBDIH@Z 0051ce40 f i json_writer.obj
 0002:0003eff0       ?_Getstate@?$basic_stringbuf@DU?$char_traits@D@std@@V?$allocator@D@2@@std@@AAEHH@Z 0051cff0 f i json_writer.obj
 0002:0003f090       ??$?6U?$char_traits@D@std@@@std@@YAAAV?$basic_ostream@DU?$char_traits@D@std@@@0@AAV10@PBD@Z 0051d090 f i json_writer.obj
 0002:0003f690       ??$setfill@D@std@@YA?AU?$_Fillobj@D@0@D@Z 0051d690 f i json_writer.obj
 0002:0003f6f0       ??$?6DU?$char_traits@D@std@@@std@@YAAAV?$basic_ostream@DU?$char_traits@D@std@@@0@AAV10@ABU?$_Fillobj@D@0@@Z 0051d6f0 f i json_writer.obj
 0002:0003f760       ??$?6DU?$char_traits@D@std@@_J@std@@YAAAV?$basic_ostream@DU?$char_traits@D@std@@@0@AAV10@ABU?$_Smanip@_J@0@@Z 0051d760 f i json_writer.obj
 0002:0003f800       ??$?6DU?$char_traits@D@std@@V?$allocator@D@1@@std@@YAAAV?$basic_ostream@DU?$char_traits@D@std@@@0@AAV10@ABV?$basic_string@DU?$char_traits@D@std@@V?$allocator@D@2@@0@@Z 0051d800 f i json_writer.obj
 0002:0003fda0       ??$?6U?$char_traits@D@std@@@std@@YAAAV?$basic_ostream@DU?$char_traits@D@std@@@0@AAV10@D@Z 0051dda0 f i json_writer.obj
 0002:00040370       ??$addressof@$$CBV?$basic_string@DU?$char_traits@D@std@@V?$allocator@D@2@@std@@@std@@YAPBV?$basic_string@DU?$char_traits@D@std@@V?$allocator@D@2@@0@ABV10@@Z 0051e370 f i json_writer.obj
 0002:000403b0       ??$_Cons_val@V?$allocator@V?$basic_string@DU?$char_traits@D@std@@V?$allocator@D@2@@std@@@std@@V?$basic_string@DU?$char_traits@D@std@@V?$allocator@D@2@@2@AAV32@@std@@YAXAAV?$allocator@V?$basic_string@DU?$char_traits@D@std@@V?$allocator@D@2@@std@@@0@PAV?$basic_string@DU?$char_traits@D@std@@V?$allocator@D@2@@0@AAV20@@Z 0051e3b0 f i json_writer.obj
 0002:00040410       ??$_Cons_val@V?$allocator@V?$basic_string@DU?$char_traits@D@std@@V?$allocator@D@2@@std@@@std@@V?$basic_string@DU?$char_traits@D@std@@V?$allocator@D@2@@2@ABV32@@std@@YAXAAV?$allocator@V?$basic_string@DU?$char_traits@D@std@@V?$allocator@D@2@@std@@@0@PAV?$basic_string@DU?$char_traits@D@std@@V?$allocator@D@2@@0@ABV20@@Z 0051e410 f i json_writer.obj
 0002:00040470       ?construct@?$allocator@V?$basic_string@DU?$char_traits@D@std@@V?$allocator@D@2@@std@@@std@@QAEXPAV?$basic_string@DU?$char_traits@D@std@@V?$allocator@D@2@@2@ABV32@@Z 0051e470 f i json_writer.obj
 0002:000404d0       ??0?$_Fillobj@D@std@@QAE@D@Z 0051e4d0 f i json_writer.obj
 0002:00040520       ??$forward@AAV?$basic_string@DU?$char_traits@D@std@@V?$allocator@D@2@@std@@@std@@YAAAV?$basic_string@DU?$char_traits@D@std@@V?$allocator@D@2@@0@AAV10@@Z 0051e520 f i json_writer.obj
 0002:00040560       ??$construct@AAV?$basic_string@DU?$char_traits@D@std@@V?$allocator@D@2@@std@@@?$allocator@V?$basic_string@DU?$char_traits@D@std@@V?$allocator@D@2@@std@@@std@@QAEXPAV?$basic_string@DU?$char_traits@D@std@@V?$allocator@D@2@@1@AAV21@@Z 0051e560 f i json_writer.obj
 0002:00040660       ??$forward@ABV?$basic_string@DU?$char_traits@D@std@@V?$allocator@D@2@@std@@@std@@YAABV?$basic_string@DU?$char_traits@D@std@@V?$allocator@D@2@@0@ABV10@@Z 0051e660 f i json_writer.obj
 0002:000406a0       ??$_Construct@V?$basic_string@DU?$char_traits@D@std@@V?$allocator@D@2@@std@@ABV12@@std@@YAXPAV?$basic_string@DU?$char_traits@D@std@@V?$allocator@D@2@@0@ABV10@@Z 0051e6a0 f i json_writer.obj
 0002:000407a0       ?eq@?$char_traits@D@std@@SA_NABD0@Z 0051e7a0 f i json_writer.obj
 0002:000407f0       ?not_eof@?$char_traits@D@std@@SAHABH@Z 0051e7f0 f i json_writer.obj
 0002:00040870       ?hex@std@@YAAAVios_base@1@AAV21@@Z 0051e870 f i json_writer.obj
 0002:000408e0       ?uppercase@std@@YAAAVios_base@1@AAV21@@Z 0051e8e0 f i json_writer.obj
 0002:00040940       ??_EFastWriter@Json@@UAEPAXI@Z 0051e940 f i json_writer.obj
 0002:00040940       ??_GFastWriter@Json@@UAEPAXI@Z 0051e940 f i json_writer.obj
 0002:000409b0       ??1FastWriter@Json@@UAE@XZ 0051e9b0 f i json_writer.obj
 0002:00040a60       ??1StyledStreamWriter@Json@@QAE@XZ 0051ea60 f i json_writer.obj
 0002:00040b20       ??0?$basic_string@DU?$char_traits@D@std@@V?$allocator@D@2@@std@@QAE@ID@Z 0051eb20 f i json_writer.obj
 0002:00040bf0       ?end@?$basic_string@DU?$char_traits@D@std@@V?$allocator@D@2@@std@@QAE?AV?$_String_iterator@DU?$char_traits@D@std@@V?$allocator@D@2@@2@XZ 0051ebf0 f i json_writer.obj
 0002:00040c60       ??0?$fpos@H@std@@QAE@_J@Z  0051ec60 f i json_writer.obj
 0002:00040cd0       ??0sentry@?$basic_ostream@DU?$char_traits@D@std@@@std@@QAE@AAV12@@Z 0051ecd0 f i json_writer.obj
 0002:00040e30       ??1sentry@?$basic_ostream@DU?$char_traits@D@std@@@std@@QAE@XZ 0051ee30 f i json_writer.obj
 0002:00040f00       ??Bsentry@?$basic_ostream@DU?$char_traits@D@std@@@std@@QBEPQ_Bool_struct@2@HXZ 0051ef00 f i json_writer.obj
 0002:00040f50       ?assign@?$basic_string@DU?$char_traits@D@std@@V?$allocator@D@2@@std@@QAEAAV12@ID@Z 0051ef50 f i json_writer.obj
 0002:00041000       ?begin@?$basic_string@DU?$char_traits@D@std@@V?$allocator@D@2@@std@@QAE?AV?$_String_iterator@DU?$char_traits@D@std@@V?$allocator@D@2@@2@XZ 0051f000 f i json_writer.obj
 0002:00041070       ??0?$_String_iterator@DU?$char_traits@D@std@@V?$allocator@D@2@@std@@QAE@PADPBU_Container_base0@1@@Z 0051f070 f i json_writer.obj
 0002:000410d0       ??0_Sentry_base@?$basic_ostream@DU?$char_traits@D@std@@@std@@QAE@AAV12@@Z 0051f0d0 f i json_writer.obj
 0002:000411a0       ??1_Sentry_base@?$basic_ostream@DU?$char_traits@D@std@@@std@@QAE@XZ 0051f1a0 f i json_writer.obj
 0002:00041260       ??0?$_String_const_iterator@DU?$char_traits@D@std@@V?$allocator@D@2@@std@@QAE@PBDPBU_Container_base0@1@@Z 0051f260 f i json_writer.obj
 0002:000412d0       ??Y?$_String_const_iterator@DU?$char_traits@D@std@@V?$allocator@D@2@@std@@QAEAAV01@H@Z 0051f2d0 f i json_writer.obj
 0002:00041320       ?_Compat@?$_String_const_iterator@DU?$char_traits@D@std@@V?$allocator@D@2@@std@@QBEXABV12@@Z 0051f320 f i json_writer.obj
 0002:00041360       ?Construct@TItem@@SAPAU1@AAVCPrivateHeap@@HPAEH@Z 0051f360 f   bufferpool.obj
 0002:00041420       ?Destruct@TItem@@SAXPAU1@@Z 0051f420 f   bufferpool.obj
 0002:000414b0       ?Cat@TItemList@@QAEHPBEH@Z 0051f4b0 f   bufferpool.obj
 0002:00041580       ?Cat@TItem@@QAEHPBEH@Z     0051f580 f i bufferpool.obj
 0002:00041670       ?Cat@TItemList@@QAEHPBUTItem@@@Z 0051f670 f   bufferpool.obj
 0002:000416e0       ?Cat@TItemList@@QAEHABU1@@Z 0051f6e0 f   bufferpool.obj
 0002:000417a0       ?Fetch@TItemList@@QAEHPAEH@Z 0051f7a0 f   bufferpool.obj
 0002:00041880       ?Fetch@TItem@@QAEHPAEH@Z   0051f880 f i bufferpool.obj
 0002:00041970       ?Reduce@TItemList@@QAEHH@Z 0051f970 f   bufferpool.obj
 0002:00041a40       ?Reduce@TItem@@QAEHH@Z     0051fa40 f i bufferpool.obj
 0002:00041b00       ?Release@TItemList@@QAEXXZ 0051fb00 f   bufferpool.obj
 0002:00041b60       ?PutFreeItem@CItemPool@@QAEXPAUTItem@@@Z 0051fb60 f   bufferpool.obj
 0002:00041cc0       ?PutFreeItem@CItemPool@@QAEXAAUTItemList@@@Z 0051fcc0 f   bufferpool.obj
 0002:00041e30       ?PickFreeItem@CItemPool@@QAEPAUTItem@@XZ 0051fe30 f   bufferpool.obj
 0002:00041f90       ?Reset@TItem@@QAEXHH@Z     0051ff90 f i bufferpool.obj
 0002:000420e0       ?CompressFreeItem@CItemPool@@AAEXH@Z 005200e0 f   bufferpool.obj
 0002:00042200       ?Construct@TBuffer@@SAPAU1@AAVCBufferPool@@K@Z 00520200 f   bufferpool.obj
 0002:000422b0       ?Destruct@TBuffer@@SAXPAU1@@Z 005202b0 f   bufferpool.obj
 0002:00042340       ?Cat@TBuffer@@QAEHPBEH@Z   00520340 f   bufferpool.obj
 0002:000423b0       ?Cat@TBuffer@@QAEHPBUTItem@@@Z 005203b0 f   bufferpool.obj
 0002:00042420       ?Cat@TBuffer@@QAEHABUTItemList@@@Z 00520420 f   bufferpool.obj
 0002:000424d0       ?Fetch@TBuffer@@QAEHPAEH@Z 005204d0 f   bufferpool.obj
 0002:00042550       ?Reduce@TBuffer@@QAEHH@Z   00520550 f   bufferpool.obj
 0002:000425c0       ?PutFreeBuffer@CBufferPool@@QAEXK@Z 005205c0 f   bufferpool.obj
 0002:00042710       ?PutFreeBuffer@CBufferPool@@AAEXPAUTBuffer@@@Z 00520710 f   bufferpool.obj
 0002:000428f0       ?Reset@TBuffer@@AAEXXZ     005208f0 f i bufferpool.obj
 0002:00042960       ?CompressFreeBuffer@CBufferPool@@AAEXH@Z 00520960 f   bufferpool.obj
 0002:00042ac0       ?PutCacheBuffer@CBufferPool@@QAEXK@Z 00520ac0 f   bufferpool.obj
 0002:00042c00       ?PickFreeBuffer@CBufferPool@@QAEPAUTBuffer@@K@Z 00520c00 f   bufferpool.obj
 0002:00042df0       ?FindCacheBuffer@CBufferPool@@QAEPAUTBuffer@@K@Z 00520df0 f   bufferpool.obj
 0002:00042f90       ?Clear@CBufferPool@@QAEXXZ 00520f90 f   bufferpool.obj
 0002:00043190       ?Clear@CItemPool@@QAEXXZ   00521190 f i bufferpool.obj
 0002:00043290       ?Front@?$TSimpleList@UTItem@@@@QBEPAUTItem@@XZ 00521290 f i bufferpool.obj
 0002:000432d0       ?Back@?$TSimpleList@UTItem@@@@QBEPAUTItem@@XZ 005212d0 f i bufferpool.obj
 0002:00043310       ?Size@?$TSimpleList@UTItem@@@@QBEHXZ 00521310 f i bufferpool.obj
 0002:00043350       ??A?$unordered_map@KPAUTBuffer@@V?$hash@K@std@@U?$equal_to@K@3@V?$allocator@U?$pair@$$CBKPAUTBuffer@@@std@@@3@@tr1@std@@QAEAAPAUTBuffer@@ABK@Z 00521350 f i bufferpool.obj
 0002:00043460       ?begin@?$_Hash@V?$_Umap_traits@KPAUTBuffer@@V?$_Hash_compare@KV?$hash@K@std@@U?$equal_to@K@2@@std@@V?$allocator@U?$pair@$$CBKPAUTBuffer@@@std@@@3@$0A@@tr1@std@@@std@@QAE?AV?$_List_iterator@V?$_List_val@U?$pair@$$CBKPAUTBuffer@@@std@@V?$allocator@U?$pair@$$CBKPAUTBuffer@@@std@@@2@@std@@@2@XZ 00521460 f i bufferpool.obj
 0002:000434c0       ?erase@?$_Hash@V?$_Umap_traits@KPAUTBuffer@@V?$_Hash_compare@KV?$hash@K@std@@U?$equal_to@K@2@@std@@V?$allocator@U?$pair@$$CBKPAUTBuffer@@@std@@@3@$0A@@tr1@std@@@std@@QAEIABK@Z 005214c0 f i bufferpool.obj
 0002:000435d0       ?clear@?$_Hash@V?$_Umap_traits@KPAUTBuffer@@V?$_Hash_compare@KV?$hash@K@std@@U?$equal_to@K@2@@std@@V?$allocator@U?$pair@$$CBKPAUTBuffer@@@std@@@3@$0A@@tr1@std@@@std@@QAEXXZ 005215d0 f i bufferpool.obj
 0002:00043630       ?find@?$_Hash@V?$_Umap_traits@KPAUTBuffer@@V?$_Hash_compare@KV?$hash@K@std@@U?$equal_to@K@2@@std@@V?$allocator@U?$pair@$$CBKPAUTBuffer@@@std@@@3@$0A@@tr1@std@@@std@@QAE?AV?$_List_iterator@V?$_List_val@U?$pair@$$CBKPAUTBuffer@@@std@@V?$allocator@U?$pair@$$CBKPAUTBuffer@@@std@@@2@@std@@@2@ABK@Z 00521630 f i bufferpool.obj
 0002:00043690       ?PushBack@?$TSimpleList@UTBuffer@@@@QAEPAUTBuffer@@PAU2@@Z 00521690 f i bufferpool.obj
 0002:00043740       ?Front@?$TSimpleList@UTBuffer@@@@QBEPAUTBuffer@@XZ 00521740 f i bufferpool.obj
 0002:00043780       ?Size@?$TSimpleList@UTBuffer@@@@QBEHXZ 00521780 f i bufferpool.obj
 0002:000437c0       ??E?$_List_const_iterator@V?$_List_val@U?$pair@$$CBKPAUTBuffer@@@std@@V?$allocator@U?$pair@$$CBKPAUTBuffer@@@std@@@2@@std@@@std@@QAEAAV01@XZ 005217c0 f i bufferpool.obj
 0002:00043830       ??9?$_List_const_iterator@V?$_List_val@U?$pair@$$CBKPAUTBuffer@@@std@@V?$allocator@U?$pair@$$CBKPAUTBuffer@@@std@@@2@@std@@@std@@QBE_NABV01@@Z 00521830 f i bufferpool.obj
 0002:000438a0       ??C?$_List_unchecked_const_iterator@V?$_List_val@U?$pair@$$CBKPAUTBuffer@@@std@@V?$allocator@U?$pair@$$CBKPAUTBuffer@@@std@@@2@@std@@U_Iterator_base0@2@@std@@QBEPBU?$pair@$$CBKPAUTBuffer@@@1@XZ 005218a0 f i bufferpool.obj
 0002:000438f0       ??0?$CLocalLock@VCCriSec@@@@QAE@AAVCCriSec@@@Z 005218f0 f i bufferpool.obj
 0002:00043960       ??1?$CLocalLock@VCCriSec@@@@QAE@XZ 00521960 f i bufferpool.obj
 0002:000439c0       ??0?$CLocalWriteLock@VCRWLock@@@@QAE@AAVCRWLock@@@Z 005219c0 f i bufferpool.obj
 0002:00043a30       ??1?$CLocalWriteLock@VCRWLock@@@@QAE@XZ 00521a30 f i bufferpool.obj
 0002:00043a90       ??0?$CLocalReadLock@VCRWLock@@@@QAE@AAVCRWLock@@@Z 00521a90 f i bufferpool.obj
 0002:00043b00       ??1?$CLocalReadLock@VCRWLock@@@@QAE@XZ 00521b00 f i bufferpool.obj
 0002:00043b60       ?erase@?$_Hash@V?$_Umap_traits@KPAUTBuffer@@V?$_Hash_compare@KV?$hash@K@std@@U?$equal_to@K@2@@std@@V?$allocator@U?$pair@$$CBKPAUTBuffer@@@std@@@3@$0A@@tr1@std@@@std@@QAE?AV?$_List_iterator@V?$_List_val@U?$pair@$$CBKPAUTBuffer@@@std@@V?$allocator@U?$pair@$$CBKPAUTBuffer@@@std@@@2@@std@@@2@V?$_List_const_iterator@V?$_List_val@U?$pair@$$CBKPAUTBuffer@@@std@@V?$allocator@U?$pair@$$CBKPAUTBuffer@@@std@@@2@@std@@@2@0@Z 00521b60 f i bufferpool.obj
 0002:00043c80       ?lower_bound@?$_Hash@V?$_Umap_traits@KPAUTBuffer@@V?$_Hash_compare@KV?$hash@K@std@@U?$equal_to@K@2@@std@@V?$allocator@U?$pair@$$CBKPAUTBuffer@@@std@@@3@$0A@@tr1@std@@@std@@QAE?AV?$_List_iterator@V?$_List_val@U?$pair@$$CBKPAUTBuffer@@@std@@V?$allocator@U?$pair@$$CBKPAUTBuffer@@@std@@@2@@std@@@2@ABK@Z 00521c80 f i bufferpool.obj
 0002:00043e30       ?equal_range@?$_Hash@V?$_Umap_traits@KPAUTBuffer@@V?$_Hash_compare@KV?$hash@K@std@@U?$equal_to@K@2@@std@@V?$allocator@U?$pair@$$CBKPAUTBuffer@@@std@@@3@$0A@@tr1@std@@@std@@QAE?AU?$pair@V?$_List_iterator@V?$_List_val@U?$pair@$$CBKPAUTBuffer@@@std@@V?$allocator@U?$pair@$$CBKPAUTBuffer@@@std@@@2@@std@@@std@@V12@@2@ABK@Z 00521e30 f i bufferpool.obj
 0002:00044050       ?begin@?$list@U?$pair@$$CBKPAUTBuffer@@@std@@V?$allocator@U?$pair@$$CBKPAUTBuffer@@@std@@@2@@std@@QAE?AV?$_List_iterator@V?$_List_val@U?$pair@$$CBKPAUTBuffer@@@std@@V?$allocator@U?$pair@$$CBKPAUTBuffer@@@std@@@2@@std@@@2@XZ 00522050 f i bufferpool.obj
 0002:000440c0       ??D?$_List_iterator@V?$_List_val@U?$pair@$$CBKPAUTBuffer@@@std@@V?$allocator@U?$pair@$$CBKPAUTBuffer@@@std@@@2@@std@@@std@@QBEAAU?$pair@$$CBKPAUTBuffer@@@1@XZ 005220c0 f i bufferpool.obj
 0002:00044110       ??8?$_List_const_iterator@V?$_List_val@U?$pair@$$CBKPAUTBuffer@@@std@@V?$allocator@U?$pair@$$CBKPAUTBuffer@@@std@@@2@@std@@@std@@QBE_NABV01@@Z 00522110 f i bufferpool.obj
 0002:00044160       ??D?$_List_unchecked_const_iterator@V?$_List_val@U?$pair@$$CBKPAUTBuffer@@@std@@V?$allocator@U?$pair@$$CBKPAUTBuffer@@@std@@@2@@std@@U_Iterator_base0@2@@std@@QBEABU?$pair@$$CBKPAUTBuffer@@@1@XZ 00522160 f i bufferpool.obj
 0002:000441c0       ??0?$pair@$$CBKPAUTBuffer@@@std@@QAE@ABK$$QAPAUTBuffer@@@Z 005221c0 f i bufferpool.obj
 0002:00044230       ?erase@?$_Hash@V?$_Umap_traits@KPAUTBuffer@@V?$_Hash_compare@KV?$hash@K@std@@U?$equal_to@K@2@@std@@V?$allocator@U?$pair@$$CBKPAUTBuffer@@@std@@@3@$0A@@tr1@std@@@std@@QAE?AV?$_List_iterator@V?$_List_val@U?$pair@$$CBKPAUTBuffer@@@std@@V?$allocator@U?$pair@$$CBKPAUTBuffer@@@std@@@2@@std@@@2@V?$_List_const_iterator@V?$_List_val@U?$pair@$$CBKPAUTBuffer@@@std@@V?$allocator@U?$pair@$$CBKPAUTBuffer@@@std@@@2@@std@@@2@@Z 00522230 f i bufferpool.obj
 0002:000442f0       ?_Begin@?$_Hash@V?$_Umap_traits@KPAUTBuffer@@V?$_Hash_compare@KV?$hash@K@std@@U?$equal_to@K@2@@std@@V?$allocator@U?$pair@$$CBKPAUTBuffer@@@std@@@3@$0A@@tr1@std@@@std@@IAE?AV?$_List_iterator@V?$_List_val@U?$pair@$$CBKPAUTBuffer@@@std@@V?$allocator@U?$pair@$$CBKPAUTBuffer@@@std@@@2@@std@@@2@I@Z 005222f0 f i bufferpool.obj
 0002:00044360       ?_End@?$_Hash@V?$_Umap_traits@KPAUTBuffer@@V?$_Hash_compare@KV?$hash@K@std@@U?$equal_to@K@2@@std@@V?$allocator@U?$pair@$$CBKPAUTBuffer@@@std@@@3@$0A@@tr1@std@@@std@@IAE?AV?$_List_iterator@V?$_List_val@U?$pair@$$CBKPAUTBuffer@@@std@@V?$allocator@U?$pair@$$CBKPAUTBuffer@@@std@@@2@@std@@@2@I@Z 00522360 f i bufferpool.obj
 0002:00044460       ?_Hashval@?$_Hash@V?$_Umap_traits@KPAUTBuffer@@V?$_Hash_compare@KV?$hash@K@std@@U?$equal_to@K@2@@std@@V?$allocator@U?$pair@$$CBKPAUTBuffer@@@std@@@3@$0A@@tr1@std@@@std@@IBEIABK@Z 00522460 f i bufferpool.obj
 0002:000444f0       ??R?$_Hash_compare@KV?$hash@K@std@@U?$equal_to@K@2@@std@@QBE_NABK0@Z 005224f0 f i bufferpool.obj
 0002:00044560       ?_Make_iter@?$list@U?$pair@$$CBKPAUTBuffer@@@std@@V?$allocator@U?$pair@$$CBKPAUTBuffer@@@std@@@2@@std@@QBE?AV?$_List_iterator@V?$_List_val@U?$pair@$$CBKPAUTBuffer@@@std@@V?$allocator@U?$pair@$$CBKPAUTBuffer@@@std@@@2@@std@@@2@V?$_List_const_iterator@V?$_List_val@U?$pair@$$CBKPAUTBuffer@@@std@@V?$allocator@U?$pair@$$CBKPAUTBuffer@@@std@@@2@@std@@@2@@Z 00522560 f i bufferpool.obj
 0002:000445c0       ?_Myval@?$_List_val@U?$pair@$$CBKPAUTBuffer@@@std@@V?$allocator@U?$pair@$$CBKPAUTBuffer@@@std@@@2@@std@@SAAAU?$pair@$$CBKPAUTBuffer@@@2@PAU_Node@?$_List_nod@U?$pair@$$CBKPAUTBuffer@@@std@@V?$allocator@U?$pair@$$CBKPAUTBuffer@@@std@@@2@@2@@Z 005225c0 f i bufferpool.obj
 0002:00044600       ??E?$_List_iterator@V?$_List_val@U?$pair@$$CBKPAUTBuffer@@@std@@V?$allocator@U?$pair@$$CBKPAUTBuffer@@@std@@@2@@std@@@std@@QAEAAV01@XZ 00522600 f i bufferpool.obj
 0002:00044660       ??D?$_List_const_iterator@V?$_List_val@U?$pair@$$CBKPAUTBuffer@@@std@@V?$allocator@U?$pair@$$CBKPAUTBuffer@@@std@@@2@@std@@@std@@QBEABU?$pair@$$CBKPAUTBuffer@@@1@XZ 00522660 f i bufferpool.obj
 0002:000446c0       ??E?$_List_const_iterator@V?$_List_val@U?$pair@$$CBKPAUTBuffer@@@std@@V?$allocator@U?$pair@$$CBKPAUTBuffer@@@std@@@2@@std@@@std@@QAE?AV01@H@Z 005226c0 f i bufferpool.obj
 0002:00044770       ??0?$_Pair_base@$$CBKPAUTBuffer@@@std@@QAE@ABK$$QAPAUTBuffer@@@Z 00522770 f i bufferpool.obj
 0002:000447e0       ??0?$pair@V?$_List_iterator@V?$_List_val@U?$pair@$$CBKPAUTBuffer@@@std@@V?$allocator@U?$pair@$$CBKPAUTBuffer@@@std@@@2@@std@@@std@@V12@@std@@QAE@$$QAV?$_List_iterator@V?$_List_val@U?$pair@$$CBKPAUTBuffer@@@std@@V?$allocator@U?$pair@$$CBKPAUTBuffer@@@std@@@2@@std@@@1@0@Z 005227e0 f i bufferpool.obj
 0002:00044860       ?_Vec_lo@?$_Hash@V?$_Umap_traits@KPAUTBuffer@@V?$_Hash_compare@KV?$hash@K@std@@U?$equal_to@K@2@@std@@V?$allocator@U?$pair@$$CBKPAUTBuffer@@@std@@@3@$0A@@tr1@std@@@std@@IAEAAV?$_List_iterator@V?$_List_val@U?$pair@$$CBKPAUTBuffer@@@std@@V?$allocator@U?$pair@$$CBKPAUTBuffer@@@std@@@2@@std@@@2@I@Z 00522860 f i bufferpool.obj
 0002:000448c0       ?_Vec_hi@?$_Hash@V?$_Umap_traits@KPAUTBuffer@@V?$_Hash_compare@KV?$hash@K@std@@U?$equal_to@K@2@@std@@V?$allocator@U?$pair@$$CBKPAUTBuffer@@@std@@@3@$0A@@tr1@std@@@std@@IAEAAV?$_List_iterator@V?$_List_val@U?$pair@$$CBKPAUTBuffer@@@std@@V?$allocator@U?$pair@$$CBKPAUTBuffer@@@std@@@2@@std@@@2@I@Z 005228c0 f i bufferpool.obj
 0002:00044920       ?_Erase_bucket@?$_Hash@V?$_Umap_traits@KPAUTBuffer@@V?$_Hash_compare@KV?$hash@K@std@@U?$equal_to@K@2@@std@@V?$allocator@U?$pair@$$CBKPAUTBuffer@@@std@@@3@$0A@@tr1@std@@@std@@IAEXV?$_List_iterator@V?$_List_val@U?$pair@$$CBKPAUTBuffer@@@std@@V?$allocator@U?$pair@$$CBKPAUTBuffer@@@std@@@2@@std@@@2@I@Z 00522920 f i bufferpool.obj
 0002:00044a70       ??R?$_Hash_compare@KV?$hash@K@std@@U?$equal_to@K@2@@std@@QBEIABK@Z 00522a70 f i bufferpool.obj
 0002:00044ad0       ??R?$equal_to@K@std@@QBE_NABK0@Z 00522ad0 f i bufferpool.obj
 0002:00044b20       ?erase@?$list@U?$pair@$$CBKPAUTBuffer@@@std@@V?$allocator@U?$pair@$$CBKPAUTBuffer@@@std@@@2@@std@@QAE?AV?$_List_iterator@V?$_List_val@U?$pair@$$CBKPAUTBuffer@@@std@@V?$allocator@U?$pair@$$CBKPAUTBuffer@@@std@@@2@@std@@@2@V?$_List_const_iterator@V?$_List_val@U?$pair@$$CBKPAUTBuffer@@@std@@V?$allocator@U?$pair@$$CBKPAUTBuffer@@@std@@@2@@std@@@2@@Z 00522b20 f i bufferpool.obj
 0002:00044c60       ??0?$_Pair_base@V?$_List_iterator@V?$_List_val@U?$pair@$$CBKPAUTBuffer@@@std@@V?$allocator@U?$pair@$$CBKPAUTBuffer@@@std@@@2@@std@@@std@@V12@@std@@QAE@$$QAV?$_List_iterator@V?$_List_val@U?$pair@$$CBKPAUTBuffer@@@std@@V?$allocator@U?$pair@$$CBKPAUTBuffer@@@std@@@2@@std@@@1@0@Z 00522c60 f i bufferpool.obj
 0002:00044ce0       ??A?$vector@V?$_List_iterator@V?$_List_val@U?$pair@$$CBKPAUTBuffer@@@std@@V?$allocator@U?$pair@$$CBKPAUTBuffer@@@std@@@2@@std@@@std@@V?$allocator@V?$_List_iterator@V?$_List_val@U?$pair@$$CBKPAUTBuffer@@@std@@V?$allocator@U?$pair@$$CBKPAUTBuffer@@@std@@@2@@std@@@std@@@2@@std@@QAEAAV?$_List_iterator@V?$_List_val@U?$pair@$$CBKPAUTBuffer@@@std@@V?$allocator@U?$pair@$$CBKPAUTBuffer@@@std@@@2@@std@@@1@I@Z 00522ce0 f i bufferpool.obj
 0002:00044d30       ??F?$_List_iterator@V?$_List_val@U?$pair@$$CBKPAUTBuffer@@@std@@V?$allocator@U?$pair@$$CBKPAUTBuffer@@@std@@@2@@std@@@std@@QAEAAV01@XZ 00522d30 f i bufferpool.obj
 0002:00044d90       ?_Mynode@?$_List_unchecked_const_iterator@V?$_List_val@U?$pair@$$CBKPAUTBuffer@@@std@@V?$allocator@U?$pair@$$CBKPAUTBuffer@@@std@@@2@@std@@U_Iterator_base0@2@@std@@QBEPAU_Node@?$_List_nod@U?$pair@$$CBKPAUTBuffer@@@std@@V?$allocator@U?$pair@$$CBKPAUTBuffer@@@std@@@2@@2@XZ 00522d90 f i bufferpool.obj
 0002:00044dd0       ??F?$_List_const_iterator@V?$_List_val@U?$pair@$$CBKPAUTBuffer@@@std@@V?$allocator@U?$pair@$$CBKPAUTBuffer@@@std@@@2@@std@@@std@@QAEAAV01@XZ 00522dd0 f i bufferpool.obj
 0002:00044e40       ??$insert@U?$pair@$$CBKPAUTBuffer@@@std@@@?$_Hash@V?$_Umap_traits@KPAUTBuffer@@V?$_Hash_compare@KV?$hash@K@std@@U?$equal_to@K@2@@std@@V?$allocator@U?$pair@$$CBKPAUTBuffer@@@std@@@3@$0A@@tr1@std@@@std@@QAE?AU?$pair@V?$_List_iterator@V?$_List_val@U?$pair@$$CBKPAUTBuffer@@@std@@V?$allocator@U?$pair@$$CBKPAUTBuffer@@@std@@@2@@std@@@std@@_N@1@$$QAU?$pair@$$CBKPAUTBuffer@@@1@@Z 00522e40 f i bufferpool.obj
 0002:00044ee0       ??$_Distance@V?$_List_iterator@V?$_List_val@U?$pair@$$CBKPAUTBuffer@@@std@@V?$allocator@U?$pair@$$CBKPAUTBuffer@@@std@@@2@@std@@@std@@I@std@@YAXV?$_List_iterator@V?$_List_val@U?$pair@$$CBKPAUTBuffer@@@std@@V?$allocator@U?$pair@$$CBKPAUTBuffer@@@std@@@2@@std@@@0@0AAI@Z 00522ee0 f i bufferpool.obj
 0002:00044f60       ??$_Kfn@$$CBKPAUTBuffer@@@?$_Umap_traits@KPAUTBuffer@@V?$_Hash_compare@KV?$hash@K@std@@U?$equal_to@K@2@@std@@V?$allocator@U?$pair@$$CBKPAUTBuffer@@@std@@@3@$0A@@tr1@std@@SAABKABU?$pair@$$CBKPAUTBuffer@@@2@@Z 00522f60 f i bufferpool.obj
 0002:00044fa0       ??$?0AAV?$_List_iterator@V?$_List_val@U?$pair@$$CBKPAUTBuffer@@@std@@V?$allocator@U?$pair@$$CBKPAUTBuffer@@@std@@@2@@std@@@std@@AAV01@@?$pair@V?$_List_iterator@V?$_List_val@U?$pair@$$CBKPAUTBuffer@@@std@@V?$allocator@U?$pair@$$CBKPAUTBuffer@@@std@@@2@@std@@@std@@V12@@std@@QAE@AAV?$_List_iterator@V?$_List_val@U?$pair@$$CBKPAUTBuffer@@@std@@V?$allocator@U?$pair@$$CBKPAUTBuffer@@@std@@@2@@std@@@1@0@Z 00522fa0 f i bufferpool.obj
 0002:00045020       ??$move@AAPAUTBuffer@@@std@@YA$$QAPAUTBuffer@@AAPAU1@@Z 00523020 f i bufferpool.obj
 0002:00045060       ?_Insert@?$_Hash@V?$_Umap_traits@KPAUTBuffer@@V?$_Hash_compare@KV?$hash@K@std@@U?$equal_to@K@2@@std@@V?$allocator@U?$pair@$$CBKPAUTBuffer@@@std@@@3@$0A@@tr1@std@@@std@@IAE?AU?$pair@V?$_List_iterator@V?$_List_val@U?$pair@$$CBKPAUTBuffer@@@std@@V?$allocator@U?$pair@$$CBKPAUTBuffer@@@std@@@2@@std@@@std@@_N@2@ABU?$pair@$$CBKPAUTBuffer@@@2@V?$_List_iterator@V?$_List_val@U?$pair@$$CBKPAUTBuffer@@@std@@V?$allocator@U?$pair@$$CBKPAUTBuffer@@@std@@@2@@std@@@2@@Z 00523060 f i bufferpool.obj
 0002:00045310       ?front@?$list@U?$pair@$$CBKPAUTBuffer@@@std@@V?$allocator@U?$pair@$$CBKPAUTBuffer@@@std@@@2@@std@@QAEAAU?$pair@$$CBKPAUTBuffer@@@2@XZ 00523310 f i bufferpool.obj
 0002:00045370       ?_Insert_bucket@?$_Hash@V?$_Umap_traits@KPAUTBuffer@@V?$_Hash_compare@KV?$hash@K@std@@U?$equal_to@K@2@@std@@V?$allocator@U?$pair@$$CBKPAUTBuffer@@@std@@@3@$0A@@tr1@std@@@std@@IAEXV?$_List_iterator@V?$_List_val@U?$pair@$$CBKPAUTBuffer@@@std@@V?$allocator@U?$pair@$$CBKPAUTBuffer@@@std@@@2@@std@@@2@0I@Z 00523370 f i bufferpool.obj
 0002:000454a0       ?_Check_size@?$_Hash@V?$_Umap_traits@KPAUTBuffer@@V?$_Hash_compare@KV?$hash@K@std@@U?$equal_to@K@2@@std@@V?$allocator@U?$pair@$$CBKPAUTBuffer@@@std@@@3@$0A@@tr1@std@@@std@@IAEXXZ 005234a0 f i bufferpool.obj
 0002:000455a0       ?_Splice_same@?$list@U?$pair@$$CBKPAUTBuffer@@@std@@V?$allocator@U?$pair@$$CBKPAUTBuffer@@@std@@@2@@std@@QAEXV?$_List_const_iterator@V?$_List_val@U?$pair@$$CBKPAUTBuffer@@@std@@V?$allocator@U?$pair@$$CBKPAUTBuffer@@@std@@@2@@std@@@2@AAV12@00I@Z 005235a0 f i bufferpool.obj
 0002:00045750       ?bucket_count@?$_Hash@V?$_Umap_traits@KPAUTBuffer@@V?$_Hash_compare@KV?$hash@K@std@@U?$equal_to@K@2@@std@@V?$allocator@U?$pair@$$CBKPAUTBuffer@@@std@@@3@$0A@@tr1@std@@@std@@QBEIXZ 00523750 f i bufferpool.obj
 0002:00045790       ?load_factor@?$_Hash@V?$_Umap_traits@KPAUTBuffer@@V?$_Hash_compare@KV?$hash@K@std@@U?$equal_to@K@2@@std@@V?$allocator@U?$pair@$$CBKPAUTBuffer@@@std@@@3@$0A@@tr1@std@@@std@@QBEMXZ 00523790 f i bufferpool.obj
 0002:00045840       ?max_load_factor@?$_Hash@V?$_Umap_traits@KPAUTBuffer@@V?$_Hash_compare@KV?$hash@K@std@@U?$equal_to@K@2@@std@@V?$allocator@U?$pair@$$CBKPAUTBuffer@@@std@@@3@$0A@@tr1@std@@@std@@QBEMXZ 00523840 f i bufferpool.obj
 0002:00045880       ?_Reinsert@?$_Hash@V?$_Umap_traits@KPAUTBuffer@@V?$_Hash_compare@KV?$hash@K@std@@U?$equal_to@K@2@@std@@V?$allocator@U?$pair@$$CBKPAUTBuffer@@@std@@@3@$0A@@tr1@std@@@std@@IAEXV?$_List_iterator@V?$_List_val@U?$pair@$$CBKPAUTBuffer@@@std@@V?$allocator@U?$pair@$$CBKPAUTBuffer@@@std@@@2@@std@@@2@@Z 00523880 f i bufferpool.obj
 0002:00045990       ?_Incsize@?$list@U?$pair@$$CBKPAUTBuffer@@@std@@V?$allocator@U?$pair@$$CBKPAUTBuffer@@@std@@@2@@std@@QAEXI@Z 00523990 f i bufferpool.obj
 0002:00045a20       ?size@?$_Hash@V?$_Umap_traits@KPAUTBuffer@@V?$_Hash_compare@KV?$hash@K@std@@U?$equal_to@K@2@@std@@V?$allocator@U?$pair@$$CBKPAUTBuffer@@@std@@@3@$0A@@tr1@std@@@std@@QBEIXZ 00523a20 f i bufferpool.obj
 0002:00045a80       ?max_size@?$list@U?$pair@$$CBKPAUTBuffer@@@std@@V?$allocator@U?$pair@$$CBKPAUTBuffer@@@std@@@2@@std@@QBEIXZ 00523a80 f i bufferpool.obj
 0002:00045ae0       ?max_size@?$allocator@U?$pair@$$CBKPAUTBuffer@@@std@@@std@@QBEIXZ 00523ae0 f i bufferpool.obj
 0002:00045b50       ?size@?$list@U?$pair@$$CBKPAUTBuffer@@@std@@V?$allocator@U?$pair@$$CBKPAUTBuffer@@@std@@@2@@std@@QBEIXZ 00523b50 f i bufferpool.obj
 0002:00045b90       ??$forward@U?$pair@$$CBKPAUTBuffer@@@std@@@std@@YA$$QAU?$pair@$$CBKPAUTBuffer@@@0@AAU10@@Z 00523b90 f i bufferpool.obj
 0002:00045bd0       ??$emplace_front@U?$pair@$$CBKPAUTBuffer@@@std@@@?$list@U?$pair@$$CBKPAUTBuffer@@@std@@V?$allocator@U?$pair@$$CBKPAUTBuffer@@@std@@@2@@std@@QAEX$$QAU?$pair@$$CBKPAUTBuffer@@@1@@Z 00523bd0 f i bufferpool.obj
 0002:00045c60       ??$_Iter_cat@V?$_List_iterator@V?$_List_val@U?$pair@$$CBKPAUTBuffer@@@std@@V?$allocator@U?$pair@$$CBKPAUTBuffer@@@std@@@2@@std@@@std@@@std@@YA?AUbidirectional_iterator_tag@0@ABV?$_List_iterator@V?$_List_val@U?$pair@$$CBKPAUTBuffer@@@std@@V?$allocator@U?$pair@$$CBKPAUTBuffer@@@std@@@2@@std@@@0@@Z 00523c60 f i bufferpool.obj
 0002:00045ce0       ??$_Distance2@V?$_List_iterator@V?$_List_val@U?$pair@$$CBKPAUTBuffer@@@std@@V?$allocator@U?$pair@$$CBKPAUTBuffer@@@std@@@2@@std@@@std@@I@std@@YAXV?$_List_iterator@V?$_List_val@U?$pair@$$CBKPAUTBuffer@@@std@@V?$allocator@U?$pair@$$CBKPAUTBuffer@@@std@@@2@@std@@@0@0AAIUbidirectional_iterator_tag@0@@Z 00523ce0 f i bufferpool.obj
 0002:00045d60       ??$forward@AAV?$_List_iterator@V?$_List_val@U?$pair@$$CBKPAUTBuffer@@@std@@V?$allocator@U?$pair@$$CBKPAUTBuffer@@@std@@@2@@std@@@std@@@std@@YAAAV?$_List_iterator@V?$_List_val@U?$pair@$$CBKPAUTBuffer@@@std@@V?$allocator@U?$pair@$$CBKPAUTBuffer@@@std@@@2@@std@@@0@AAV10@@Z 00523d60 f i bufferpool.obj
 0002:00045da0       ??$?0AAV?$_List_iterator@V?$_List_val@U?$pair@$$CBKPAUTBuffer@@@std@@V?$allocator@U?$pair@$$CBKPAUTBuffer@@@std@@@2@@std@@@std@@AAV01@@?$_Pair_base@V?$_List_iterator@V?$_List_val@U?$pair@$$CBKPAUTBuffer@@@std@@V?$allocator@U?$pair@$$CBKPAUTBuffer@@@std@@@2@@std@@@std@@V12@@std@@QAE@AAV?$_List_iterator@V?$_List_val@U?$pair@$$CBKPAUTBuffer@@@std@@V?$allocator@U?$pair@$$CBKPAUTBuffer@@@std@@@2@@std@@@1@0@Z 00523da0 f i bufferpool.obj
 0002:00045e20       ??$?0AAV?$_List_iterator@V?$_List_val@U?$pair@$$CBKPAUTBuffer@@@std@@V?$allocator@U?$pair@$$CBKPAUTBuffer@@@std@@@2@@std@@@std@@_N@?$pair@V?$_List_iterator@V?$_List_val@U?$pair@$$CBKPAUTBuffer@@@std@@V?$allocator@U?$pair@$$CBKPAUTBuffer@@@std@@@2@@std@@@std@@_N@std@@QAE@AAV?$_List_iterator@V?$_List_val@U?$pair@$$CBKPAUTBuffer@@@std@@V?$allocator@U?$pair@$$CBKPAUTBuffer@@@std@@@2@@std@@@1@$$QA_N@Z 00523e20 f i bufferpool.obj
 0002:00045ea0       ??$_Insert_rv@U?$pair@$$CBKPAUTBuffer@@@std@@@?$list@U?$pair@$$CBKPAUTBuffer@@@std@@V?$allocator@U?$pair@$$CBKPAUTBuffer@@@std@@@2@@std@@QAEXV?$_List_const_iterator@V?$_List_val@U?$pair@$$CBKPAUTBuffer@@@std@@V?$allocator@U?$pair@$$CBKPAUTBuffer@@@std@@@2@@std@@@1@$$QAU?$pair@$$CBKPAUTBuffer@@@1@@Z 00523ea0 f i bufferpool.obj
 0002:00045f70       ??$?0AAV?$_List_iterator@V?$_List_val@U?$pair@$$CBKPAUTBuffer@@@std@@V?$allocator@U?$pair@$$CBKPAUTBuffer@@@std@@@2@@std@@@std@@_N@?$_Pair_base@V?$_List_iterator@V?$_List_val@U?$pair@$$CBKPAUTBuffer@@@std@@V?$allocator@U?$pair@$$CBKPAUTBuffer@@@std@@@2@@std@@@std@@_N@std@@QAE@AAV?$_List_iterator@V?$_List_val@U?$pair@$$CBKPAUTBuffer@@@std@@V?$allocator@U?$pair@$$CBKPAUTBuffer@@@std@@@2@@std@@@1@$$QA_N@Z 00523f70 f i bufferpool.obj
 0002:00045ff0       ??$_Buynode@U?$pair@$$CBKPAUTBuffer@@@std@@@?$_List_val@U?$pair@$$CBKPAUTBuffer@@@std@@V?$allocator@U?$pair@$$CBKPAUTBuffer@@@std@@@2@@std@@QAEPAU_Node@?$_List_nod@U?$pair@$$CBKPAUTBuffer@@@std@@V?$allocator@U?$pair@$$CBKPAUTBuffer@@@std@@@2@@1@PAU231@0$$QAU?$pair@$$CBKPAUTBuffer@@@1@@Z 00523ff0 f i bufferpool.obj
 0002:00046190       ??$addressof@U?$pair@$$CBKPAUTBuffer@@@std@@@std@@YAPAU?$pair@$$CBKPAUTBuffer@@@0@AAU10@@Z 00524190 f i bufferpool.obj
 0002:000461d0       ??$_Cons_val@V?$allocator@U?$pair@$$CBKPAUTBuffer@@@std@@@std@@U?$pair@$$CBKPAUTBuffer@@@2@U32@@std@@YAXAAV?$allocator@U?$pair@$$CBKPAUTBuffer@@@std@@@0@PAU?$pair@$$CBKPAUTBuffer@@@0@$$QAU20@@Z 005241d0 f i bufferpool.obj
 0002:00046230       ?construct@?$allocator@U?$pair@$$CBKPAUTBuffer@@@std@@@std@@QAEXPAU?$pair@$$CBKPAUTBuffer@@@2@$$QAU32@@Z 00524230 f i bufferpool.obj
 0002:00046330       ??$?0$$CBKPAUTBuffer@@@?$pair@$$CBKPAUTBuffer@@@std@@QAE@$$QAU01@@Z 00524330 f i bufferpool.obj
 0002:000463b0       ??0?$_Pair_base@$$CBKPAUTBuffer@@@std@@QAE@$$QBK$$QAPAUTBuffer@@@Z 005243b0 f i bufferpool.obj
 0002:00046430       ??$forward@$$CBK@std@@YA$$QBKABK@Z 00524430 f i bufferpool.obj
 0002:00046470       ??$forward@PAUTBuffer@@@std@@YA$$QAPAUTBuffer@@AAPAU1@@Z 00524470 f i bufferpool.obj
 0002:000464b0       ??$move@ABK@std@@YA$$QBKABK@Z 005244b0 f i bufferpool.obj
 0002:000464f0       ?Lock@CCriSec@@QAEXXZ      005244f0 f i bufferpool.obj
 0002:00046550       ?Unlock@CCriSec@@QAEXXZ    00524550 f i bufferpool.obj
 0002:000465b0       ?Alloc@CPrivateHeap@@QAEPAXKK@Z 005245b0 f i bufferpool.obj
 0002:00046620       ?Free@CPrivateHeap@@QAEHPAXK@Z 00524620 f i bufferpool.obj
 0002:00046690       ?Reset@CPrivateHeap@@QAEHXZ 00524690 f i bufferpool.obj
 0002:00046740       ?IsValid@CPrivateHeap@@QAEHXZ 00524740 f i bufferpool.obj
 0002:00046790       ?Ptr@TItem@@QBEPBEXZ       00524790 f i bufferpool.obj
 0002:000467d0       ?Size@TItem@@QBEHXZ        005247d0 f i bufferpool.obj
 0002:00046820       ?Remain@TItem@@QBEHXZ      00524820 f i bufferpool.obj
 0002:00046870       ?IsEmpty@TItem@@QBE_NXZ    00524870 f i bufferpool.obj
 0002:000468d0       ?IsFull@TItem@@QBE_NXZ     005248d0 f i bufferpool.obj
 0002:00046930       ??0TItem@@AAE@AAVCPrivateHeap@@HPAEH@Z 00524930 f i bufferpool.obj
 0002:000469f0       ??1TItem@@AAE@XZ           005249f0 f i bufferpool.obj
 0002:00046a30       ?IsValid@TBuffer@@QBE_NXZ  00524a30 f i bufferpool.obj
 0002:00046a80       ?IncreaseLength@TBuffer@@AAEHH@Z 00524a80 f i bufferpool.obj
 0002:00046ae0       ?DecreaseLength@TBuffer@@AAEHH@Z 00524ae0 f i bufferpool.obj
 0002:00046b40       ??0TBuffer@@AAE@AAVCPrivateHeap@@AAVCItemPool@@K@Z 00524b40 f i bufferpool.obj
 0002:00046c20       ??0CCriSec@@QAE@XZ         00524c20 f i bufferpool.obj
 0002:00046c80       ??1CCriSec@@QAE@XZ         00524c80 f i bufferpool.obj
 0002:00046ce0       ??0TItemList@@QAE@AAVCItemPool@@@Z 00524ce0 f i bufferpool.obj
 0002:00046d40       ??1TBuffer@@AAE@XZ         00524d40 f i bufferpool.obj
 0002:00046df0       ??1TItemList@@QAE@XZ       00524df0 f i bufferpool.obj
 0002:00046e40       ?GetPrivateHeap@CBufferPool@@QAEAAVCPrivateHeap@@XZ 00524e40 f i bufferpool.obj
 0002:00046e80       ?GetItemPool@CBufferPool@@QAEAAVCItemPool@@XZ 00524e80 f i bufferpool.obj
 0002:00046ec0       ??R?$hash@K@std@@QBEIABK@Z 00524ec0 f i bufferpool.obj
 0002:00046fc0       ?PushBack@?$TSimpleList@UTItem@@@@QAEPAUTItem@@PAU2@@Z 00524fc0 f i bufferpool.obj
 0002:00047070       ?PopFront@?$TSimpleList@UTItem@@@@QAEPAUTItem@@XZ 00525070 f i bufferpool.obj
 0002:00047140       ?Shift@?$TSimpleList@UTItem@@@@QAEAAU1@AAU1@@Z 00525140 f i bufferpool.obj
 0002:00047210       ?Clear@?$TSimpleList@UTItem@@@@QAEXXZ 00525210 f i bufferpool.obj
 0002:00047290       ??0?$TSimpleList@UTItem@@@@QAE@XZ 00525290 f i bufferpool.obj
 0002:000472f0       ??1?$TSimpleList@UTItem@@@@QAE@XZ 005252f0 f i bufferpool.obj
 0002:00047340       ?Reset@?$TSimpleList@UTItem@@@@AAEXXZ 00525340 f i bufferpool.obj
 0002:000473a0       ?Clear@?$TSimpleList@UTBuffer@@@@QAEXXZ 005253a0 f i bufferpool.obj
 0002:00047420       ?_Init@?$_Hash@V?$_Umap_traits@KPAUTBuffer@@V?$_Hash_compare@KV?$hash@K@std@@U?$equal_to@K@2@@std@@V?$allocator@U?$pair@$$CBKPAUTBuffer@@@std@@@3@$0A@@tr1@std@@@std@@IAEXI@Z 00525420 f i bufferpool.obj
 0002:000474b0       ?PopFront@?$TSimpleList@UTBuffer@@@@QAEPAUTBuffer@@XZ 005254b0 f i bufferpool.obj
 0002:00047580       ?end@?$_Hash@V?$_Umap_traits@KPAUTBuffer@@V?$_Hash_compare@KV?$hash@K@std@@U?$equal_to@K@2@@std@@V?$allocator@U?$pair@$$CBKPAUTBuffer@@@std@@@3@$0A@@tr1@std@@@std@@QAE?AV?$_List_iterator@V?$_List_val@U?$pair@$$CBKPAUTBuffer@@@std@@V?$allocator@U?$pair@$$CBKPAUTBuffer@@@std@@@2@@std@@@2@XZ 00525580 f i bufferpool.obj
 0002:000475e0       ?clear@?$list@U?$pair@$$CBKPAUTBuffer@@@std@@V?$allocator@U?$pair@$$CBKPAUTBuffer@@@std@@@2@@std@@QAEXXZ 005255e0 f i bufferpool.obj
 0002:000476e0       ?deallocate@?$allocator@U_Node@?$_List_nod@U?$pair@$$CBKPAUTBuffer@@@std@@V?$allocator@U?$pair@$$CBKPAUTBuffer@@@std@@@2@@std@@@std@@QAEXPAU_Node@?$_List_nod@U?$pair@$$CBKPAUTBuffer@@@std@@V?$allocator@U?$pair@$$CBKPAUTBuffer@@@std@@@2@@2@I@Z 005256e0 f i bufferpool.obj
 0002:00047740       ?assign@?$vector@V?$_List_iterator@V?$_List_val@U?$pair@$$CBKPAUTBuffer@@@std@@V?$allocator@U?$pair@$$CBKPAUTBuffer@@@std@@@2@@std@@@std@@V?$allocator@V?$_List_iterator@V?$_List_val@U?$pair@$$CBKPAUTBuffer@@@std@@V?$allocator@U?$pair@$$CBKPAUTBuffer@@@std@@@2@@std@@@std@@@2@@std@@QAEXIABV?$_List_iterator@V?$_List_val@U?$pair@$$CBKPAUTBuffer@@@std@@V?$allocator@U?$pair@$$CBKPAUTBuffer@@@std@@@2@@std@@@2@@Z 00525740 f i bufferpool.obj
 0002:000477a0       ?end@?$list@U?$pair@$$CBKPAUTBuffer@@@std@@V?$allocator@U?$pair@$$CBKPAUTBuffer@@@std@@@2@@std@@QAE?AV?$_List_iterator@V?$_List_val@U?$pair@$$CBKPAUTBuffer@@@std@@V?$allocator@U?$pair@$$CBKPAUTBuffer@@@std@@@2@@std@@@2@XZ 005257a0 f i bufferpool.obj
 0002:00047810       ?_Nextnode@?$_List_val@U?$pair@$$CBKPAUTBuffer@@@std@@V?$allocator@U?$pair@$$CBKPAUTBuffer@@@std@@@2@@std@@SAAAPAU_Node@?$_List_nod@U?$pair@$$CBKPAUTBuffer@@@std@@V?$allocator@U?$pair@$$CBKPAUTBuffer@@@std@@@2@@2@PAU342@@Z 00525810 f i bufferpool.obj
 0002:00047850       ?_Prevnode@?$_List_val@U?$pair@$$CBKPAUTBuffer@@@std@@V?$allocator@U?$pair@$$CBKPAUTBuffer@@@std@@@2@@std@@SAAAPAU_Node@?$_List_nod@U?$pair@$$CBKPAUTBuffer@@@std@@V?$allocator@U?$pair@$$CBKPAUTBuffer@@@std@@@2@@2@PAU342@@Z 00525850 f i bufferpool.obj
 0002:00047890       ?allocate@?$allocator@U_Node@?$_List_nod@U?$pair@$$CBKPAUTBuffer@@@std@@V?$allocator@U?$pair@$$CBKPAUTBuffer@@@std@@@2@@std@@@std@@QAEPAU_Node@?$_List_nod@U?$pair@$$CBKPAUTBuffer@@@std@@V?$allocator@U?$pair@$$CBKPAUTBuffer@@@std@@@2@@2@I@Z 00525890 f i bufferpool.obj
 0002:000478f0       ?_Assign_n@?$vector@V?$_List_iterator@V?$_List_val@U?$pair@$$CBKPAUTBuffer@@@std@@V?$allocator@U?$pair@$$CBKPAUTBuffer@@@std@@@2@@std@@@std@@V?$allocator@V?$_List_iterator@V?$_List_val@U?$pair@$$CBKPAUTBuffer@@@std@@V?$allocator@U?$pair@$$CBKPAUTBuffer@@@std@@@2@@std@@@std@@@2@@std@@IAEXIABV?$_List_iterator@V?$_List_val@U?$pair@$$CBKPAUTBuffer@@@std@@V?$allocator@U?$pair@$$CBKPAUTBuffer@@@std@@@2@@std@@@2@@Z 005258f0 f i bufferpool.obj
 0002:00047a10       ?begin@?$vector@V?$_List_iterator@V?$_List_val@U?$pair@$$CBKPAUTBuffer@@@std@@V?$allocator@U?$pair@$$CBKPAUTBuffer@@@std@@@2@@std@@@std@@V?$allocator@V?$_List_iterator@V?$_List_val@U?$pair@$$CBKPAUTBuffer@@@std@@V?$allocator@U?$pair@$$CBKPAUTBuffer@@@std@@@2@@std@@@std@@@2@@std@@QAE?AV?$_Vector_iterator@V?$_Vector_val@V?$_List_iterator@V?$_List_val@U?$pair@$$CBKPAUTBuffer@@@std@@V?$allocator@U?$pair@$$CBKPAUTBuffer@@@std@@@2@@std@@@std@@V?$allocator@V?$_List_iterator@V?$_List_val@U?$pair@$$CBKPAUTBuffer@@@std@@V?$allocator@U?$pair@$$CBKPAUTBuffer@@@std@@@2@@std@@@std@@@2@@std@@@2@XZ 00525a10 f i bufferpool.obj
 0002:00047a80       ?end@?$vector@V?$_List_iterator@V?$_List_val@U?$pair@$$CBKPAUTBuffer@@@std@@V?$allocator@U?$pair@$$CBKPAUTBuffer@@@std@@@2@@std@@@std@@V?$allocator@V?$_List_iterator@V?$_List_val@U?$pair@$$CBKPAUTBuffer@@@std@@V?$allocator@U?$pair@$$CBKPAUTBuffer@@@std@@@2@@std@@@std@@@2@@std@@QAE?AV?$_Vector_iterator@V?$_Vector_val@V?$_List_iterator@V?$_List_val@U?$pair@$$CBKPAUTBuffer@@@std@@V?$allocator@U?$pair@$$CBKPAUTBuffer@@@std@@@2@@std@@@std@@V?$allocator@V?$_List_iterator@V?$_List_val@U?$pair@$$CBKPAUTBuffer@@@std@@V?$allocator@U?$pair@$$CBKPAUTBuffer@@@std@@@2@@std@@@std@@@2@@std@@@2@XZ 00525a80 f i bufferpool.obj
 0002:00047af0       ?insert@?$vector@V?$_List_iterator@V?$_List_val@U?$pair@$$CBKPAUTBuffer@@@std@@V?$allocator@U?$pair@$$CBKPAUTBuffer@@@std@@@2@@std@@@std@@V?$allocator@V?$_List_iterator@V?$_List_val@U?$pair@$$CBKPAUTBuffer@@@std@@V?$allocator@U?$pair@$$CBKPAUTBuffer@@@std@@@2@@std@@@std@@@2@@std@@QAEXV?$_Vector_const_iterator@V?$_Vector_val@V?$_List_iterator@V?$_List_val@U?$pair@$$CBKPAUTBuffer@@@std@@V?$allocator@U?$pair@$$CBKPAUTBuffer@@@std@@@2@@std@@@std@@V?$allocator@V?$_List_iterator@V?$_List_val@U?$pair@$$CBKPAUTBuffer@@@std@@V?$allocator@U?$pair@$$CBKPAUTBuffer@@@std@@@2@@std@@@std@@@2@@std@@@2@IABV?$_List_iterator@V?$_List_val@U?$pair@$$CBKPAUTBuffer@@@std@@V?$allocator@U?$pair@$$CBKPAUTBuffer@@@std@@@2@@std@@@2@@Z 00525af0 f i bufferpool.obj
 0002:00047b50       ?erase@?$vector@V?$_List_iterator@V?$_List_val@U?$pair@$$CBKPAUTBuffer@@@std@@V?$allocator@U?$pair@$$CBKPAUTBuffer@@@std@@@2@@std@@@std@@V?$allocator@V?$_List_iterator@V?$_List_val@U?$pair@$$CBKPAUTBuffer@@@std@@V?$allocator@U?$pair@$$CBKPAUTBuffer@@@std@@@2@@std@@@std@@@2@@std@@QAE?AV?$_Vector_iterator@V?$_Vector_val@V?$_List_iterator@V?$_List_val@U?$pair@$$CBKPAUTBuffer@@@std@@V?$allocator@U?$pair@$$CBKPAUTBuffer@@@std@@@2@@std@@@std@@V?$allocator@V?$_List_iterator@V?$_List_val@U?$pair@$$CBKPAUTBuffer@@@std@@V?$allocator@U?$pair@$$CBKPAUTBuffer@@@std@@@2@@std@@@std@@@2@@std@@@2@V?$_Vector_const_iterator@V?$_Vector_val@V?$_List_iterator@V?$_List_val@U?$pair@$$CBKPAUTBuffer@@@std@@V?$allocator@U?$pair@$$CBKPAUTBuffer@@@std@@@2@@std@@@std@@V?$allocator@V?$_List_iterator@V?$_List_val@U?$pair@$$CBKPAUTBuffer@@@std@@V?$allocator@U?$pair@$$CBKPAUTBuffer@@@std@@@2@@std@@@std@@@2@@std@@@2@0@Z 00525b50 f i bufferpool.obj
 0002:00047c80       ?_Destroy@?$vector@V?$_List_iterator@V?$_List_val@U?$pair@$$CBKPAUTBuffer@@@std@@V?$allocator@U?$pair@$$CBKPAUTBuffer@@@std@@@2@@std@@@std@@V?$allocator@V?$_List_iterator@V?$_List_val@U?$pair@$$CBKPAUTBuffer@@@std@@V?$allocator@U?$pair@$$CBKPAUTBuffer@@@std@@@2@@std@@@std@@@2@@std@@IAEXPAV?$_List_iterator@V?$_List_val@U?$pair@$$CBKPAUTBuffer@@@std@@V?$allocator@U?$pair@$$CBKPAUTBuffer@@@std@@@2@@std@@@2@0@Z 00525c80 f i bufferpool.obj
 0002:00047cf0       ??0?$_List_iterator@V?$_List_val@U?$pair@$$CBKPAUTBuffer@@@std@@V?$allocator@U?$pair@$$CBKPAUTBuffer@@@std@@@2@@std@@@std@@QAE@PAU_Node@?$_List_nod@U?$pair@$$CBKPAUTBuffer@@@std@@V?$allocator@U?$pair@$$CBKPAUTBuffer@@@std@@@2@@1@PBV?$_List_val@U?$pair@$$CBKPAUTBuffer@@@std@@V?$allocator@U?$pair@$$CBKPAUTBuffer@@@std@@@2@@1@@Z 00525cf0 f i bufferpool.obj
 0002:00047d50       ?_Make_iter@?$vector@V?$_List_iterator@V?$_List_val@U?$pair@$$CBKPAUTBuffer@@@std@@V?$allocator@U?$pair@$$CBKPAUTBuffer@@@std@@@2@@std@@@std@@V?$allocator@V?$_List_iterator@V?$_List_val@U?$pair@$$CBKPAUTBuffer@@@std@@V?$allocator@U?$pair@$$CBKPAUTBuffer@@@std@@@2@@std@@@std@@@2@@std@@QBE?AV?$_Vector_iterator@V?$_Vector_val@V?$_List_iterator@V?$_List_val@U?$pair@$$CBKPAUTBuffer@@@std@@V?$allocator@U?$pair@$$CBKPAUTBuffer@@@std@@@2@@std@@@std@@V?$allocator@V?$_List_iterator@V?$_List_val@U?$pair@$$CBKPAUTBuffer@@@std@@V?$allocator@U?$pair@$$CBKPAUTBuffer@@@std@@@2@@std@@@std@@@2@@std@@@2@V?$_Vector_const_iterator@V?$_Vector_val@V?$_List_iterator@V?$_List_val@U?$pair@$$CBKPAUTBuffer@@@std@@V?$allocator@U?$pair@$$CBKPAUTBuffer@@@std@@@2@@std@@@std@@V?$allocator@V?$_List_iterator@V?$_List_val@U?$pair@$$CBKPAUTBuffer@@@std@@V?$allocator@U?$pair@$$CBKPAUTBuffer@@@std@@@2@@std@@@std@@@2@@std@@@2@@Z 00525d50 f i bufferpool.obj
 0002:00047db0       ?_Insert_n@?$vector@V?$_List_iterator@V?$_List_val@U?$pair@$$CBKPAUTBuffer@@@std@@V?$allocator@U?$pair@$$CBKPAUTBuffer@@@std@@@2@@std@@@std@@V?$allocator@V?$_List_iterator@V?$_List_val@U?$pair@$$CBKPAUTBuffer@@@std@@V?$allocator@U?$pair@$$CBKPAUTBuffer@@@std@@@2@@std@@@std@@@2@@std@@IAEXV?$_Vector_const_iterator@V?$_Vector_val@V?$_List_iterator@V?$_List_val@U?$pair@$$CBKPAUTBuffer@@@std@@V?$allocator@U?$pair@$$CBKPAUTBuffer@@@std@@@2@@std@@@std@@V?$allocator@V?$_List_iterator@V?$_List_val@U?$pair@$$CBKPAUTBuffer@@@std@@V?$allocator@U?$pair@$$CBKPAUTBuffer@@@std@@@2@@std@@@std@@@2@@std@@@2@IABV?$_List_iterator@V?$_List_val@U?$pair@$$CBKPAUTBuffer@@@std@@V?$allocator@U?$pair@$$CBKPAUTBuffer@@@std@@@2@@std@@@2@@Z 00525db0 f i bufferpool.obj
 0002:000482f0       ?deallocate@?$allocator@V?$_List_iterator@V?$_List_val@U?$pair@$$CBKPAUTBuffer@@@std@@V?$allocator@U?$pair@$$CBKPAUTBuffer@@@std@@@2@@std@@@std@@@std@@QAEXPAV?$_List_iterator@V?$_List_val@U?$pair@$$CBKPAUTBuffer@@@std@@V?$allocator@U?$pair@$$CBKPAUTBuffer@@@std@@@2@@std@@@2@I@Z 005262f0 f i bufferpool.obj
 0002:00048350       ??0?$_List_const_iterator@V?$_List_val@U?$pair@$$CBKPAUTBuffer@@@std@@V?$allocator@U?$pair@$$CBKPAUTBuffer@@@std@@@2@@std@@@std@@QAE@PAU_Node@?$_List_nod@U?$pair@$$CBKPAUTBuffer@@@std@@V?$allocator@U?$pair@$$CBKPAUTBuffer@@@std@@@2@@1@PBV?$_List_val@U?$pair@$$CBKPAUTBuffer@@@std@@V?$allocator@U?$pair@$$CBKPAUTBuffer@@@std@@@2@@1@@Z 00526350 f i bufferpool.obj
 0002:000483b0       ??0?$_Vector_iterator@V?$_Vector_val@V?$_List_iterator@V?$_List_val@U?$pair@$$CBKPAUTBuffer@@@std@@V?$allocator@U?$pair@$$CBKPAUTBuffer@@@std@@@2@@std@@@std@@V?$allocator@V?$_List_iterator@V?$_List_val@U?$pair@$$CBKPAUTBuffer@@@std@@V?$allocator@U?$pair@$$CBKPAUTBuffer@@@std@@@2@@std@@@std@@@2@@std@@@std@@QAE@PAV?$_List_iterator@V?$_List_val@U?$pair@$$CBKPAUTBuffer@@@std@@V?$allocator@U?$pair@$$CBKPAUTBuffer@@@std@@@2@@std@@@1@PBU_Container_base0@1@@Z 005263b0 f i bufferpool.obj
 0002:00048410       ??9?$_Vector_const_iterator@V?$_Vector_val@V?$_List_iterator@V?$_List_val@U?$pair@$$CBKPAUTBuffer@@@std@@V?$allocator@U?$pair@$$CBKPAUTBuffer@@@std@@@2@@std@@@std@@V?$allocator@V?$_List_iterator@V?$_List_val@U?$pair@$$CBKPAUTBuffer@@@std@@V?$allocator@U?$pair@$$CBKPAUTBuffer@@@std@@@2@@std@@@std@@@2@@std@@@std@@QBE_NABV01@@Z 00526410 f i bufferpool.obj
 0002:00048480       ?capacity@?$vector@V?$_List_iterator@V?$_List_val@U?$pair@$$CBKPAUTBuffer@@@std@@V?$allocator@U?$pair@$$CBKPAUTBuffer@@@std@@@2@@std@@@std@@V?$allocator@V?$_List_iterator@V?$_List_val@U?$pair@$$CBKPAUTBuffer@@@std@@V?$allocator@U?$pair@$$CBKPAUTBuffer@@@std@@@2@@std@@@std@@@2@@std@@QBEIXZ 00526480 f i bufferpool.obj
 0002:000484d0       ?size@?$vector@V?$_List_iterator@V?$_List_val@U?$pair@$$CBKPAUTBuffer@@@std@@V?$allocator@U?$pair@$$CBKPAUTBuffer@@@std@@@2@@std@@@std@@V?$allocator@V?$_List_iterator@V?$_List_val@U?$pair@$$CBKPAUTBuffer@@@std@@V?$allocator@U?$pair@$$CBKPAUTBuffer@@@std@@@2@@std@@@std@@@2@@std@@QBEIXZ 005264d0 f i bufferpool.obj
 0002:00048520       ?max_size@?$vector@V?$_List_iterator@V?$_List_val@U?$pair@$$CBKPAUTBuffer@@@std@@V?$allocator@U?$pair@$$CBKPAUTBuffer@@@std@@@2@@std@@@std@@V?$allocator@V?$_List_iterator@V?$_List_val@U?$pair@$$CBKPAUTBuffer@@@std@@V?$allocator@U?$pair@$$CBKPAUTBuffer@@@std@@@2@@std@@@std@@@2@@std@@QBEIXZ 00526520 f i bufferpool.obj
 0002:00048580       ?_Grow_to@?$vector@V?$_List_iterator@V?$_List_val@U?$pair@$$CBKPAUTBuffer@@@std@@V?$allocator@U?$pair@$$CBKPAUTBuffer@@@std@@@2@@std@@@std@@V?$allocator@V?$_List_iterator@V?$_List_val@U?$pair@$$CBKPAUTBuffer@@@std@@V?$allocator@U?$pair@$$CBKPAUTBuffer@@@std@@@2@@std@@@std@@@2@@std@@IBEII@Z 00526580 f i bufferpool.obj
 0002:00048630       ?_Ufill@?$vector@V?$_List_iterator@V?$_List_val@U?$pair@$$CBKPAUTBuffer@@@std@@V?$allocator@U?$pair@$$CBKPAUTBuffer@@@std@@@2@@std@@@std@@V?$allocator@V?$_List_iterator@V?$_List_val@U?$pair@$$CBKPAUTBuffer@@@std@@V?$allocator@U?$pair@$$CBKPAUTBuffer@@@std@@@2@@std@@@std@@@2@@std@@IAEPAV?$_List_iterator@V?$_List_val@U?$pair@$$CBKPAUTBuffer@@@std@@V?$allocator@U?$pair@$$CBKPAUTBuffer@@@std@@@2@@std@@@2@PAV32@IPBV32@@Z 00526630 f i bufferpool.obj
 0002:000486b0       ?_Xlen@?$vector@V?$_List_iterator@V?$_List_val@U?$pair@$$CBKPAUTBuffer@@@std@@V?$allocator@U?$pair@$$CBKPAUTBuffer@@@std@@@2@@std@@@std@@V?$allocator@V?$_List_iterator@V?$_List_val@U?$pair@$$CBKPAUTBuffer@@@std@@V?$allocator@U?$pair@$$CBKPAUTBuffer@@@std@@@2@@std@@@std@@@2@@std@@IBEXXZ 005266b0 f i bufferpool.obj
 0002:00048710       ?_Orphan_range@?$vector@V?$_List_iterator@V?$_List_val@U?$pair@$$CBKPAUTBuffer@@@std@@V?$allocator@U?$pair@$$CBKPAUTBuffer@@@std@@@2@@std@@@std@@V?$allocator@V?$_List_iterator@V?$_List_val@U?$pair@$$CBKPAUTBuffer@@@std@@V?$allocator@U?$pair@$$CBKPAUTBuffer@@@std@@@2@@std@@@std@@@2@@std@@IBEXPAV?$_List_iterator@V?$_List_val@U?$pair@$$CBKPAUTBuffer@@@std@@V?$allocator@U?$pair@$$CBKPAUTBuffer@@@std@@@2@@std@@@2@0@Z 00526710 f i bufferpool.obj
 0002:00048750       ?allocate@?$allocator@V?$_List_iterator@V?$_List_val@U?$pair@$$CBKPAUTBuffer@@@std@@V?$allocator@U?$pair@$$CBKPAUTBuffer@@@std@@@2@@std@@@std@@@std@@QAEPAV?$_List_iterator@V?$_List_val@U?$pair@$$CBKPAUTBuffer@@@std@@V?$allocator@U?$pair@$$CBKPAUTBuffer@@@std@@@2@@std@@@2@I@Z 00526750 f i bufferpool.obj
 0002:000487b0       ??0?$_List_unchecked_const_iterator@V?$_List_val@U?$pair@$$CBKPAUTBuffer@@@std@@V?$allocator@U?$pair@$$CBKPAUTBuffer@@@std@@@2@@std@@U_Iterator_base0@2@@std@@QAE@PAU_Node@?$_List_nod@U?$pair@$$CBKPAUTBuffer@@@std@@V?$allocator@U?$pair@$$CBKPAUTBuffer@@@std@@@2@@1@PBV?$_List_val@U?$pair@$$CBKPAUTBuffer@@@std@@V?$allocator@U?$pair@$$CBKPAUTBuffer@@@std@@@2@@1@@Z 005267b0 f i bufferpool.obj
 0002:00048820       ??0?$_Vector_const_iterator@V?$_Vector_val@V?$_List_iterator@V?$_List_val@U?$pair@$$CBKPAUTBuffer@@@std@@V?$allocator@U?$pair@$$CBKPAUTBuffer@@@std@@@2@@std@@@std@@V?$allocator@V?$_List_iterator@V?$_List_val@U?$pair@$$CBKPAUTBuffer@@@std@@V?$allocator@U?$pair@$$CBKPAUTBuffer@@@std@@@2@@std@@@std@@@2@@std@@@std@@QAE@PAV?$_List_iterator@V?$_List_val@U?$pair@$$CBKPAUTBuffer@@@std@@V?$allocator@U?$pair@$$CBKPAUTBuffer@@@std@@@2@@std@@@1@PBU_Container_base0@1@@Z 00526820 f i bufferpool.obj
 0002:00048890       ??8?$_Vector_const_iterator@V?$_Vector_val@V?$_List_iterator@V?$_List_val@U?$pair@$$CBKPAUTBuffer@@@std@@V?$allocator@U?$pair@$$CBKPAUTBuffer@@@std@@@2@@std@@@std@@V?$allocator@V?$_List_iterator@V?$_List_val@U?$pair@$$CBKPAUTBuffer@@@std@@V?$allocator@U?$pair@$$CBKPAUTBuffer@@@std@@@2@@std@@@std@@@2@@std@@@std@@QBE_NABV01@@Z 00526890 f i bufferpool.obj
 0002:00048900       ?max_size@?$allocator@V?$_List_iterator@V?$_List_val@U?$pair@$$CBKPAUTBuffer@@@std@@V?$allocator@U?$pair@$$CBKPAUTBuffer@@@std@@@2@@std@@@std@@@std@@QBEIXZ 00526900 f i bufferpool.obj
 0002:00048970       ?_Compat@?$_Vector_const_iterator@V?$_Vector_val@V?$_List_iterator@V?$_List_val@U?$pair@$$CBKPAUTBuffer@@@std@@V?$allocator@U?$pair@$$CBKPAUTBuffer@@@std@@@2@@std@@@std@@V?$allocator@V?$_List_iterator@V?$_List_val@U?$pair@$$CBKPAUTBuffer@@@std@@V?$allocator@U?$pair@$$CBKPAUTBuffer@@@std@@@2@@std@@@std@@@2@@std@@@std@@QBEXABV12@@Z 00526970 f i bufferpool.obj
 0002:000489b0       ??$_Dest_val@V?$allocator@U_Node@?$_List_nod@U?$pair@$$CBKPAUTBuffer@@@std@@V?$allocator@U?$pair@$$CBKPAUTBuffer@@@std@@@2@@std@@@std@@U_Node@?$_List_nod@U?$pair@$$CBKPAUTBuffer@@@std@@V?$allocator@U?$pair@$$CBKPAUTBuffer@@@std@@@2@@2@@std@@YAXAAV?$allocator@U_Node@?$_List_nod@U?$pair@$$CBKPAUTBuffer@@@std@@V?$allocator@U?$pair@$$CBKPAUTBuffer@@@std@@@2@@std@@@0@PAU_Node@?$_List_nod@U?$pair@$$CBKPAUTBuffer@@@std@@V?$allocator@U?$pair@$$CBKPAUTBuffer@@@std@@@2@@0@@Z 005269b0 f i bufferpool.obj
 0002:00048a00       ??$_Destroy_range@V?$allocator@V?$_List_iterator@V?$_List_val@U?$pair@$$CBKPAUTBuffer@@@std@@V?$allocator@U?$pair@$$CBKPAUTBuffer@@@std@@@2@@std@@@std@@@std@@@std@@YAXPAV?$_List_iterator@V?$_List_val@U?$pair@$$CBKPAUTBuffer@@@std@@V?$allocator@U?$pair@$$CBKPAUTBuffer@@@std@@@2@@std@@@0@0AAV?$allocator@V?$_List_iterator@V?$_List_val@U?$pair@$$CBKPAUTBuffer@@@std@@V?$allocator@U?$pair@$$CBKPAUTBuffer@@@std@@@2@@std@@@std@@@0@@Z 00526a00 f i bufferpool.obj
 0002:00048a80       ??$_Allocate@U_Node@?$_List_nod@U?$pair@$$CBKPAUTBuffer@@@std@@V?$allocator@U?$pair@$$CBKPAUTBuffer@@@std@@@2@@std@@@std@@YAPAU_Node@?$_List_nod@U?$pair@$$CBKPAUTBuffer@@@std@@V?$allocator@U?$pair@$$CBKPAUTBuffer@@@std@@@2@@0@IPAU120@@Z 00526a80 f i bufferpool.obj
 0002:00048b30       ??$_Move@PAV?$_List_iterator@V?$_List_val@U?$pair@$$CBKPAUTBuffer@@@std@@V?$allocator@U?$pair@$$CBKPAUTBuffer@@@std@@@2@@std@@@std@@PAV12@@std@@YAPAV?$_List_iterator@V?$_List_val@U?$pair@$$CBKPAUTBuffer@@@std@@V?$allocator@U?$pair@$$CBKPAUTBuffer@@@std@@@2@@std@@@0@PAV10@00@Z 00526b30 f i bufferpool.obj
 0002:00048bb0       ??$addressof@$$CBV?$_List_iterator@V?$_List_val@U?$pair@$$CBKPAUTBuffer@@@std@@V?$allocator@U?$pair@$$CBKPAUTBuffer@@@std@@@2@@std@@@std@@@std@@YAPBV?$_List_iterator@V?$_List_val@U?$pair@$$CBKPAUTBuffer@@@std@@V?$allocator@U?$pair@$$CBKPAUTBuffer@@@std@@@2@@std@@@0@ABV10@@Z 00526bb0 f i bufferpool.obj
 0002:00048bf0       ??$_Umove@PAV?$_List_iterator@V?$_List_val@U?$pair@$$CBKPAUTBuffer@@@std@@V?$allocator@U?$pair@$$CBKPAUTBuffer@@@std@@@2@@std@@@std@@@?$vector@V?$_List_iterator@V?$_List_val@U?$pair@$$CBKPAUTBuffer@@@std@@V?$allocator@U?$pair@$$CBKPAUTBuffer@@@std@@@2@@std@@@std@@V?$allocator@V?$_List_iterator@V?$_List_val@U?$pair@$$CBKPAUTBuffer@@@std@@V?$allocator@U?$pair@$$CBKPAUTBuffer@@@std@@@2@@std@@@std@@@2@@std@@IAEPAV?$_List_iterator@V?$_List_val@U?$pair@$$CBKPAUTBuffer@@@std@@V?$allocator@U?$pair@$$CBKPAUTBuffer@@@std@@@2@@std@@@1@PAV21@00@Z 00526bf0 f i bufferpool.obj
 0002:00048c60       ??$addressof@V?$_List_iterator@V?$_List_val@U?$pair@$$CBKPAUTBuffer@@@std@@V?$allocator@U?$pair@$$CBKPAUTBuffer@@@std@@@2@@std@@@std@@@std@@YAPAV?$_List_iterator@V?$_List_val@U?$pair@$$CBKPAUTBuffer@@@std@@V?$allocator@U?$pair@$$CBKPAUTBuffer@@@std@@@2@@std@@@0@AAV10@@Z 00526c60 f i bufferpool.obj
 0002:00048ca0       ??$fill@PAV?$_List_iterator@V?$_List_val@U?$pair@$$CBKPAUTBuffer@@@std@@V?$allocator@U?$pair@$$CBKPAUTBuffer@@@std@@@2@@std@@@std@@V12@@std@@YAXPAV?$_List_iterator@V?$_List_val@U?$pair@$$CBKPAUTBuffer@@@std@@V?$allocator@U?$pair@$$CBKPAUTBuffer@@@std@@@2@@std@@@0@0ABV10@@Z 00526ca0 f i bufferpool.obj
 0002:00048d10       ??$_Copy_backward@PAV?$_List_iterator@V?$_List_val@U?$pair@$$CBKPAUTBuffer@@@std@@V?$allocator@U?$pair@$$CBKPAUTBuffer@@@std@@@2@@std@@@std@@PAV12@@std@@YAPAV?$_List_iterator@V?$_List_val@U?$pair@$$CBKPAUTBuffer@@@std@@V?$allocator@U?$pair@$$CBKPAUTBuffer@@@std@@@2@@std@@@0@PAV10@00@Z 00526d10 f i bufferpool.obj
 0002:00048d90       ??$_Uninitialized_fill_n@PAV?$_List_iterator@V?$_List_val@U?$pair@$$CBKPAUTBuffer@@@std@@V?$allocator@U?$pair@$$CBKPAUTBuffer@@@std@@@2@@std@@@std@@IV12@V?$allocator@V?$_List_iterator@V?$_List_val@U?$pair@$$CBKPAUTBuffer@@@std@@V?$allocator@U?$pair@$$CBKPAUTBuffer@@@std@@@2@@std@@@std@@@2@@std@@YAXPAV?$_List_iterator@V?$_List_val@U?$pair@$$CBKPAUTBuffer@@@std@@V?$allocator@U?$pair@$$CBKPAUTBuffer@@@std@@@2@@std@@@0@IPBV10@AAV?$allocator@V?$_List_iterator@V?$_List_val@U?$pair@$$CBKPAUTBuffer@@@std@@V?$allocator@U?$pair@$$CBKPAUTBuffer@@@std@@@2@@std@@@std@@@0@@Z 00526d90 f i bufferpool.obj
 0002:00048e30       ??$_Allocate@V?$_List_iterator@V?$_List_val@U?$pair@$$CBKPAUTBuffer@@@std@@V?$allocator@U?$pair@$$CBKPAUTBuffer@@@std@@@2@@std@@@std@@@std@@YAPAV?$_List_iterator@V?$_List_val@U?$pair@$$CBKPAUTBuffer@@@std@@V?$allocator@U?$pair@$$CBKPAUTBuffer@@@std@@@2@@std@@@0@IPAV10@@Z 00526e30 f i bufferpool.obj
 0002:00048ee0       ?destroy@?$allocator@U_Node@?$_List_nod@U?$pair@$$CBKPAUTBuffer@@@std@@V?$allocator@U?$pair@$$CBKPAUTBuffer@@@std@@@2@@std@@@std@@QAEXPAU_Node@?$_List_nod@U?$pair@$$CBKPAUTBuffer@@@std@@V?$allocator@U?$pair@$$CBKPAUTBuffer@@@std@@@2@@2@@Z 00526ee0 f i bufferpool.obj
 0002:00048f40       ??$_Ptr_cat@V?$_List_iterator@V?$_List_val@U?$pair@$$CBKPAUTBuffer@@@std@@V?$allocator@U?$pair@$$CBKPAUTBuffer@@@std@@@2@@std@@@std@@V12@@std@@YA?AU_Nonscalar_ptr_iterator_tag@0@PAV?$_List_iterator@V?$_List_val@U?$pair@$$CBKPAUTBuffer@@@std@@V?$allocator@U?$pair@$$CBKPAUTBuffer@@@std@@@2@@std@@@0@0@Z 00526f40 f i bufferpool.obj
 0002:00048fb0       ??$_Destroy_range@V?$allocator@V?$_List_iterator@V?$_List_val@U?$pair@$$CBKPAUTBuffer@@@std@@V?$allocator@U?$pair@$$CBKPAUTBuffer@@@std@@@2@@std@@@std@@@std@@@std@@YAXPAV?$_List_iterator@V?$_List_val@U?$pair@$$CBKPAUTBuffer@@@std@@V?$allocator@U?$pair@$$CBKPAUTBuffer@@@std@@@2@@std@@@0@0AAV?$allocator@V?$_List_iterator@V?$_List_val@U?$pair@$$CBKPAUTBuffer@@@std@@V?$allocator@U?$pair@$$CBKPAUTBuffer@@@std@@@2@@std@@@std@@@0@U_Nonscalar_ptr_iterator_tag@0@@Z 00526fb0 f i bufferpool.obj
 0002:00049020       ??$_Move@PAV?$_List_iterator@V?$_List_val@U?$pair@$$CBKPAUTBuffer@@@std@@V?$allocator@U?$pair@$$CBKPAUTBuffer@@@std@@@2@@std@@@std@@PAV12@@std@@YAPAV?$_List_iterator@V?$_List_val@U?$pair@$$CBKPAUTBuffer@@@std@@V?$allocator@U?$pair@$$CBKPAUTBuffer@@@std@@@2@@std@@@0@PAV10@00U_Nonscalar_ptr_iterator_tag@0@@Z 00527020 f i bufferpool.obj
 0002:000490a0       ??$_Uninitialized_move@PAV?$_List_iterator@V?$_List_val@U?$pair@$$CBKPAUTBuffer@@@std@@V?$allocator@U?$pair@$$CBKPAUTBuffer@@@std@@@2@@std@@@std@@PAV12@V?$allocator@V?$_List_iterator@V?$_List_val@U?$pair@$$CBKPAUTBuffer@@@std@@V?$allocator@U?$pair@$$CBKPAUTBuffer@@@std@@@2@@std@@@std@@@2@@std@@YAPAV?$_List_iterator@V?$_List_val@U?$pair@$$CBKPAUTBuffer@@@std@@V?$allocator@U?$pair@$$CBKPAUTBuffer@@@std@@@2@@std@@@0@PAV10@00AAV?$allocator@V?$_List_iterator@V?$_List_val@U?$pair@$$CBKPAUTBuffer@@@std@@V?$allocator@U?$pair@$$CBKPAUTBuffer@@@std@@@2@@std@@@std@@@0@@Z 005270a0 f i bufferpool.obj
 0002:00049140       ??$_Unchecked@PAV?$_List_iterator@V?$_List_val@U?$pair@$$CBKPAUTBuffer@@@std@@V?$allocator@U?$pair@$$CBKPAUTBuffer@@@std@@@2@@std@@@std@@@std@@YAPAV?$_List_iterator@V?$_List_val@U?$pair@$$CBKPAUTBuffer@@@std@@V?$allocator@U?$pair@$$CBKPAUTBuffer@@@std@@@2@@std@@@0@PAV10@@Z 00527140 f i bufferpool.obj
 0002:00049180       ??$_Fill@PAV?$_List_iterator@V?$_List_val@U?$pair@$$CBKPAUTBuffer@@@std@@V?$allocator@U?$pair@$$CBKPAUTBuffer@@@std@@@2@@std@@@std@@V12@@std@@YAXPAV?$_List_iterator@V?$_List_val@U?$pair@$$CBKPAUTBuffer@@@std@@V?$allocator@U?$pair@$$CBKPAUTBuffer@@@std@@@2@@std@@@0@0ABV10@@Z 00527180 f i bufferpool.obj
 0002:000491e0       ??$_Copy_backward@PAV?$_List_iterator@V?$_List_val@U?$pair@$$CBKPAUTBuffer@@@std@@V?$allocator@U?$pair@$$CBKPAUTBuffer@@@std@@@2@@std@@@std@@PAV12@@std@@YAPAV?$_List_iterator@V?$_List_val@U?$pair@$$CBKPAUTBuffer@@@std@@V?$allocator@U?$pair@$$CBKPAUTBuffer@@@std@@@2@@std@@@0@PAV10@00U_Nonscalar_ptr_iterator_tag@0@@Z 005271e0 f i bufferpool.obj
 0002:00049250       ??$_Val_type@PAV?$_List_iterator@V?$_List_val@U?$pair@$$CBKPAUTBuffer@@@std@@V?$allocator@U?$pair@$$CBKPAUTBuffer@@@std@@@2@@std@@@std@@@std@@YAPAV?$_List_iterator@V?$_List_val@U?$pair@$$CBKPAUTBuffer@@@std@@V?$allocator@U?$pair@$$CBKPAUTBuffer@@@std@@@2@@std@@@0@PAV10@@Z 00527250 f i bufferpool.obj
 0002:00049280       ??$_Uninit_fill_n@PAV?$_List_iterator@V?$_List_val@U?$pair@$$CBKPAUTBuffer@@@std@@V?$allocator@U?$pair@$$CBKPAUTBuffer@@@std@@@2@@std@@@std@@IV12@V?$allocator@V?$_List_iterator@V?$_List_val@U?$pair@$$CBKPAUTBuffer@@@std@@V?$allocator@U?$pair@$$CBKPAUTBuffer@@@std@@@2@@std@@@std@@@2@V12@@std@@YAXPAV?$_List_iterator@V?$_List_val@U?$pair@$$CBKPAUTBuffer@@@std@@V?$allocator@U?$pair@$$CBKPAUTBuffer@@@std@@@2@@std@@@0@IPBV10@AAV?$allocator@V?$_List_iterator@V?$_List_val@U?$pair@$$CBKPAUTBuffer@@@std@@V?$allocator@U?$pair@$$CBKPAUTBuffer@@@std@@@2@@std@@@std@@@0@0U_Nonscalar_ptr_iterator_tag@0@@Z 00527280 f i bufferpool.obj
 0002:000493a0       ??$_Destroy@U_Node@?$_List_nod@U?$pair@$$CBKPAUTBuffer@@@std@@V?$allocator@U?$pair@$$CBKPAUTBuffer@@@std@@@2@@std@@@std@@YAXPAU_Node@?$_List_nod@U?$pair@$$CBKPAUTBuffer@@@std@@V?$allocator@U?$pair@$$CBKPAUTBuffer@@@std@@@2@@0@@Z 005273a0 f i bufferpool.obj
 0002:000493d0       ??$_Dest_val@V?$allocator@V?$_List_iterator@V?$_List_val@U?$pair@$$CBKPAUTBuffer@@@std@@V?$allocator@U?$pair@$$CBKPAUTBuffer@@@std@@@2@@std@@@std@@@std@@V?$_List_iterator@V?$_List_val@U?$pair@$$CBKPAUTBuffer@@@std@@V?$allocator@U?$pair@$$CBKPAUTBuffer@@@std@@@2@@std@@@2@@std@@YAXAAV?$allocator@V?$_List_iterator@V?$_List_val@U?$pair@$$CBKPAUTBuffer@@@std@@V?$allocator@U?$pair@$$CBKPAUTBuffer@@@std@@@2@@std@@@std@@@0@PAV?$_List_iterator@V?$_List_val@U?$pair@$$CBKPAUTBuffer@@@std@@V?$allocator@U?$pair@$$CBKPAUTBuffer@@@std@@@2@@std@@@0@@Z 005273d0 f i bufferpool.obj
 0002:00049420       ??$move@AAV?$_List_iterator@V?$_List_val@U?$pair@$$CBKPAUTBuffer@@@std@@V?$allocator@U?$pair@$$CBKPAUTBuffer@@@std@@@2@@std@@@std@@@std@@YA$$QAV?$_List_iterator@V?$_List_val@U?$pair@$$CBKPAUTBuffer@@@std@@V?$allocator@U?$pair@$$CBKPAUTBuffer@@@std@@@2@@std@@@0@AAV10@@Z 00527420 f i bufferpool.obj
 0002:00049460       ??$_Uninit_move@PAV?$_List_iterator@V?$_List_val@U?$pair@$$CBKPAUTBuffer@@@std@@V?$allocator@U?$pair@$$CBKPAUTBuffer@@@std@@@2@@std@@@std@@PAV12@V?$allocator@V?$_List_iterator@V?$_List_val@U?$pair@$$CBKPAUTBuffer@@@std@@V?$allocator@U?$pair@$$CBKPAUTBuffer@@@std@@@2@@std@@@std@@@2@V12@@std@@YAPAV?$_List_iterator@V?$_List_val@U?$pair@$$CBKPAUTBuffer@@@std@@V?$allocator@U?$pair@$$CBKPAUTBuffer@@@std@@@2@@std@@@0@PAV10@00AAV?$allocator@V?$_List_iterator@V?$_List_val@U?$pair@$$CBKPAUTBuffer@@@std@@V?$allocator@U?$pair@$$CBKPAUTBuffer@@@std@@@2@@std@@@std@@@0@0U_Nonscalar_ptr_iterator_tag@0@@Z 00527460 f i bufferpool.obj
 0002:00049580       ??$_Cons_val@V?$allocator@V?$_List_iterator@V?$_List_val@U?$pair@$$CBKPAUTBuffer@@@std@@V?$allocator@U?$pair@$$CBKPAUTBuffer@@@std@@@2@@std@@@std@@@std@@V?$_List_iterator@V?$_List_val@U?$pair@$$CBKPAUTBuffer@@@std@@V?$allocator@U?$pair@$$CBKPAUTBuffer@@@std@@@2@@std@@@2@ABV32@@std@@YAXAAV?$allocator@V?$_List_iterator@V?$_List_val@U?$pair@$$CBKPAUTBuffer@@@std@@V?$allocator@U?$pair@$$CBKPAUTBuffer@@@std@@@2@@std@@@std@@@0@PAV?$_List_iterator@V?$_List_val@U?$pair@$$CBKPAUTBuffer@@@std@@V?$allocator@U?$pair@$$CBKPAUTBuffer@@@std@@@2@@std@@@0@ABV20@@Z 00527580 f i bufferpool.obj
 0002:000495e0       ?construct@?$allocator@V?$_List_iterator@V?$_List_val@U?$pair@$$CBKPAUTBuffer@@@std@@V?$allocator@U?$pair@$$CBKPAUTBuffer@@@std@@@2@@std@@@std@@@std@@QAEXPAV?$_List_iterator@V?$_List_val@U?$pair@$$CBKPAUTBuffer@@@std@@V?$allocator@U?$pair@$$CBKPAUTBuffer@@@std@@@2@@std@@@2@ABV32@@Z 005275e0 f i bufferpool.obj
 0002:00049640       ?destroy@?$allocator@V?$_List_iterator@V?$_List_val@U?$pair@$$CBKPAUTBuffer@@@std@@V?$allocator@U?$pair@$$CBKPAUTBuffer@@@std@@@2@@std@@@std@@@std@@QAEXPAV?$_List_iterator@V?$_List_val@U?$pair@$$CBKPAUTBuffer@@@std@@V?$allocator@U?$pair@$$CBKPAUTBuffer@@@std@@@2@@std@@@2@@Z 00527640 f i bufferpool.obj
 0002:000496a0       ??$_Cons_val@V?$allocator@V?$_List_iterator@V?$_List_val@U?$pair@$$CBKPAUTBuffer@@@std@@V?$allocator@U?$pair@$$CBKPAUTBuffer@@@std@@@2@@std@@@std@@@std@@V?$_List_iterator@V?$_List_val@U?$pair@$$CBKPAUTBuffer@@@std@@V?$allocator@U?$pair@$$CBKPAUTBuffer@@@std@@@2@@std@@@2@V32@@std@@YAXAAV?$allocator@V?$_List_iterator@V?$_List_val@U?$pair@$$CBKPAUTBuffer@@@std@@V?$allocator@U?$pair@$$CBKPAUTBuffer@@@std@@@2@@std@@@std@@@0@PAV?$_List_iterator@V?$_List_val@U?$pair@$$CBKPAUTBuffer@@@std@@V?$allocator@U?$pair@$$CBKPAUTBuffer@@@std@@@2@@std@@@0@$$QAV20@@Z 005276a0 f i bufferpool.obj
 0002:00049700       ??$forward@ABV?$_List_iterator@V?$_List_val@U?$pair@$$CBKPAUTBuffer@@@std@@V?$allocator@U?$pair@$$CBKPAUTBuffer@@@std@@@2@@std@@@std@@@std@@YAABV?$_List_iterator@V?$_List_val@U?$pair@$$CBKPAUTBuffer@@@std@@V?$allocator@U?$pair@$$CBKPAUTBuffer@@@std@@@2@@std@@@0@ABV10@@Z 00527700 f i bufferpool.obj
 0002:00049740       ??$_Construct@V?$_List_iterator@V?$_List_val@U?$pair@$$CBKPAUTBuffer@@@std@@V?$allocator@U?$pair@$$CBKPAUTBuffer@@@std@@@2@@std@@@std@@ABV12@@std@@YAXPAV?$_List_iterator@V?$_List_val@U?$pair@$$CBKPAUTBuffer@@@std@@V?$allocator@U?$pair@$$CBKPAUTBuffer@@@std@@@2@@std@@@0@ABV10@@Z 00527740 f i bufferpool.obj
 0002:00049840       ??$_Destroy@V?$_List_iterator@V?$_List_val@U?$pair@$$CBKPAUTBuffer@@@std@@V?$allocator@U?$pair@$$CBKPAUTBuffer@@@std@@@2@@std@@@std@@@std@@YAXPAV?$_List_iterator@V?$_List_val@U?$pair@$$CBKPAUTBuffer@@@std@@V?$allocator@U?$pair@$$CBKPAUTBuffer@@@std@@@2@@std@@@0@@Z 00527840 f i bufferpool.obj
 0002:00049870       ?construct@?$allocator@V?$_List_iterator@V?$_List_val@U?$pair@$$CBKPAUTBuffer@@@std@@V?$allocator@U?$pair@$$CBKPAUTBuffer@@@std@@@2@@std@@@std@@@std@@QAEXPAV?$_List_iterator@V?$_List_val@U?$pair@$$CBKPAUTBuffer@@@std@@V?$allocator@U?$pair@$$CBKPAUTBuffer@@@std@@@2@@std@@@2@$$QAV32@@Z 00527870 f i bufferpool.obj
 0002:00049970       ??$forward@V?$_List_iterator@V?$_List_val@U?$pair@$$CBKPAUTBuffer@@@std@@V?$allocator@U?$pair@$$CBKPAUTBuffer@@@std@@@2@@std@@@std@@@std@@YA$$QAV?$_List_iterator@V?$_List_val@U?$pair@$$CBKPAUTBuffer@@@std@@V?$allocator@U?$pair@$$CBKPAUTBuffer@@@std@@@2@@std@@@0@AAV10@@Z 00527970 f i bufferpool.obj
 0002:000499b0       ??0CSWMR@@QAE@XZ           005279b0 f   RWLock.obj
 0002:00049a90       ??1CSWMR@@QAE@XZ           00527a90 f   RWLock.obj
 0002:00049b80       ?WaitToRead@CSWMR@@QAEXXZ  00527b80 f   RWLock.obj
 0002:00049c90       ?WaitToWrite@CSWMR@@QAEXXZ 00527c90 f   RWLock.obj
 0002:00049d70       ?Done@CSWMR@@AAEXXZ        00527d70 f   RWLock.obj
 0002:00049ed0       ??0CRWLock@@QAE@XZ         00527ed0 f   RWLock.obj
 0002:00049fe0       ??1CRWLock@@QAE@XZ         00527fe0 f   RWLock.obj
 0002:0004a0f0       ?WaitToRead@CRWLock@@QAEXXZ 005280f0 f   RWLock.obj
 0002:0004a290       ?WaitToWrite@CRWLock@@QAEXXZ 00528290 f   RWLock.obj
 0002:0004a430       ?ReadDone@CRWLock@@QAEXXZ  00528430 f   RWLock.obj
 0002:0004a5b0       ?WriteDone@CRWLock@@QAEXXZ 005285b0 f   RWLock.obj
 0002:0004a730       ?Done@CRWLock@@AAEXXZ      00528730 f   RWLock.obj
 0002:0004a8d0       ??0CSEM@@QAE@JJPBDPAU_SECURITY_ATTRIBUTES@@@Z 005288d0 f i RWLock.obj
 0002:0004a970       ??1CSEM@@QAE@XZ            00528970 f i RWLock.obj
 0002:0004aa00       ?Wait@CSEM@@QAEXK@Z        00528a00 f i RWLock.obj
 0002:0004aa70       ?Release@CSEM@@QAEHJPAJ@Z  00528a70 f i RWLock.obj
 0002:0004aae0       ?IsValid@CSEM@@QAEHXZ      00528ae0 f i RWLock.obj
 0002:0004ab30       ?IsOwner@CRWLock@@AAEHXZ   00528b30 f i RWLock.obj
 0002:0004aba0       ?SetOwner@CRWLock@@AAEXXZ  00528ba0 f i RWLock.obj
 0002:0004ac00       ?DetachOwner@CRWLock@@AAEXXZ 00528c00 f i RWLock.obj
 0002:0004ac50       ?SysGetSystemInfo@@YAXPAU_SYSTEM_INFO@@@Z 00528c50 f   SysHelper.obj
 0002:0004acd0       ?SysGetNumberOfProcessors@@YAKXZ 00528cd0 f   SysHelper.obj
 0002:0004ad60       ?SysGetPageSize@@YAKXZ     00528d60 f   SysHelper.obj
 0002:0004adf0       ?SysGetOSVersionInfo@@YAHPAU_OSVERSIONINFOA@@H@Z 00528df0 f   SysHelper.obj
 0002:0004ae90       ?GetOSVersion@@YAKXZ       00528e90 f   SysHelper.obj
 0002:0004af70       ?TimeGetTime@@YAKXZ        00528f70 f   WaitFor.obj
 0002:0004afd0       ?GetTimeGap32@@YAKK@Z      00528fd0 f   WaitFor.obj
 0002:0004b030       ?PeekMessageLoop@@YAHH@Z   00529030 f   WaitFor.obj
 0002:0004b130       ?WaitForMultipleObjectsWithMessageLoop@@YAKKQAPAXKKK@Z 00529130 f   WaitFor.obj
 0002:0004b280       ?MsgWaitForSingleObject@@YAHPAXKKK@Z 00529280 f   WaitFor.obj
 0002:0004b370       ?WaitWithMessageLoop@@YAXKKK@Z 00529370 f   WaitFor.obj
 0002:0004b490       ?WaitForWorkingQueue@@YAXPAJJK@Z 00529490 f   WaitFor.obj
 0002:0004b500       ?WaitForComplete@@YAXPAJK@Z 00529500 f   WaitFor.obj
 0002:0004b560       ?MsgWaitForWorkingQueue@@YAXPAJJK@Z 00529560 f   WaitFor.obj
 0002:0004b5d0       ?MsgWaitForComplete@@YAXPAJK@Z 005295d0 f   WaitFor.obj
 0002:0004b630       ??0CEvt@@QAE@HHPBDPAU_SECURITY_ATTRIBUTES@@@Z 00529630 f i WaitFor.obj
 0002:0004b6d0       ??1CEvt@@QAE@XZ            005296d0 f i WaitFor.obj
 0002:0004b760       ??BCEvt@@QAEPAXXZ          00529760 f i WaitFor.obj
 0002:0004b7a0       ?IsValid@CEvt@@QAEHXZ      005297a0 f i WaitFor.obj
 0002:0004b7f0       ?Construct@info_msg@@SAPAU1@KPBDH0@Z 005297f0 f   helper.obj
 0002:0004b8f0       ?Destruct@info_msg@@SAXPAU1@@Z 005298f0 f   helper.obj
 0002:0004b980       ??_Ginfo_msg@@AAEPAXI@Z    00529980 f i helper.obj
 0002:0004b9f0       ??0info_msg@@AAE@KPBDH0@Z  005299f0 f   helper.obj
 0002:0004ba60       ??1info_msg@@AAE@XZ        00529a60 f   helper.obj
 0002:0004bae0       ?SetMainWnd@@YAXPAVCWnd@@@Z 00529ae0 f   helper.obj
 0002:0004bb20       ?SetInfoList@@YAXPAVCListBox@@@Z 00529b20 f   helper.obj
 0002:0004bb60       ?LogServerStart@@YAXPBDG@Z 00529b60 f   helper.obj
 0002:0004bc90       ?LogServerStartFail@@YAXKPBD@Z 00529c90 f   helper.obj
 0002:0004bdc0       ?LogServerStop@@YAXXZ      00529dc0 f   helper.obj
 0002:0004bec0       ?LogServerStopFail@@YAXKPBD@Z 00529ec0 f   helper.obj
 0002:0004bff0       ?LogClientStart@@YAXPBDG@Z 00529ff0 f   helper.obj
 0002:0004c120       ?LogClientStarting@@YAXPBDG@Z 0052a120 f   helper.obj
 0002:0004c250       ?LogClientStartFail@@YAXKPBD@Z 0052a250 f   helper.obj
 0002:0004c380       ?LogClientStopping@@YAXK@Z 0052a380 f   helper.obj
 0002:0004c4a0       ?LogClientStopFail@@YAXKPBD@Z 0052a4a0 f   helper.obj
 0002:0004c5d0       ?LogClientSendFail@@YAXHHKPBD@Z 0052a5d0 f   helper.obj
 0002:0004c700       ?LogSend@@YAXKPBD@Z        0052a700 f   helper.obj
 0002:0004c830       ?LogSendFail@@YAXKKPBD@Z   0052a830 f   helper.obj
 0002:0004c960       ?LogDisconnect@@YAXK@Z     0052a960 f   helper.obj
 0002:0004ca80       ?LogDisconnectFail@@YAXK@Z 0052aa80 f   helper.obj
 0002:0004cba0       ?LogDetect@@YAXK@Z         0052aba0 f   helper.obj
 0002:0004ccc0       ?LogDetectFail@@YAXK@Z     0052acc0 f   helper.obj
 0002:0004cde0       ?LogOnConnect@@YAXKABV?$CStringT@DV?$StrTraitMFC_DLL@DV?$ChTraitsCRT@D@ATL@@@@@ATL@@G@Z 0052ade0 f   helper.obj
 0002:0004cec0       ?LogOnConnect2@@YAXK@Z     0052aec0 f   helper.obj
 0002:0004cff0       ?PostOnSend@@YAXKPBEH@Z    0052aff0 f   helper.obj
 0002:0004d0d0       ?PostOnReceive@@YAXKPBEH@Z 0052b0d0 f   helper.obj
 0002:0004d1b0       ?PostOnClose@@YAXK@Z       0052b1b0 f   helper.obj
 0002:0004d220       ?PostOnError@@YAXKHH@Z     0052b220 f   helper.obj
 0002:0004d300       ?PostOnAccept@@YAXKPBDGH@Z 0052b300 f   helper.obj
 0002:0004d410       ?PostOnAccept2@@YAXK@Z     0052b410 f   helper.obj
 0002:0004d480       ?PostOnPrepareListen@@YAXPBDG@Z 0052b480 f   helper.obj
 0002:0004d560       ?PostOnPrepareConnect@@YAXK@Z 0052b560 f   helper.obj
 0002:0004d5d0       ?PostOnConnect@@YAXKPBDG@Z 0052b5d0 f   helper.obj
 0002:0004d6b0       ?PostOnConnect2@@YAXKPBDG@Z 0052b6b0 f   helper.obj
 0002:0004d790       ?PostOnShutdown@@YAXXZ     0052b790 f   helper.obj
 0002:0004d800       ?PostServerStatics@@YAXAB_J0@Z 0052b800 f   helper.obj
 0002:0004d8f0       ?PostTimeConsuming@@YAXK@Z 0052b8f0 f   helper.obj
 0002:0004d9c0       ?PostInfoMsg@@YAXPAUinfo_msg@@@Z 0052b9c0 f   helper.obj
 0002:0004da50       ?LogInfoMsg@@YAXPAUinfo_msg@@@Z 0052ba50 f   helper.obj
 0002:0004dc50       ?LogMsg@@YAXABV?$CStringT@DV?$StrTraitMFC_DLL@DV?$ChTraitsCRT@D@ATL@@@@@ATL@@@Z 0052bc50 f   helper.obj
 0002:0004ddf0       ?GeneratePkgBuffer@@YAPAV?$CBufferPtrT@E$0A@@@KPBDF0@Z 0052bdf0 f   helper.obj
 0002:0004dfe0       ?GeneratePkgBuffer@@YAPAV?$CBufferPtrT@E$0A@@@ABUTPkgHeader@@ABUTPkgBody@@@Z 0052bfe0 f   helper.obj
 0002:0004e130       ?Ptr@?$CBufferPtrT@E$0A@@@QAEPAEXZ 0052c130 f i helper.obj
 0002:0004e170       ?_AtlGetConversionACP@ATL@@YGIXZ 0052c170 f i helper.obj
 0002:0004e1b0       ?T2A@@YAPADPAD@Z           0052c1b0 f i helper.obj
 0002:0004e1f0       ??0?$CBufferPtrT@E$0A@@@QAE@I_N@Z 0052c1f0 f i helper.obj
 0002:0004e260       ?Malloc@?$CBufferPtrT@E$0A@@@QAEPAEI_N@Z 0052c260 f i helper.obj
 0002:0004e2d0       ?Free@?$CBufferPtrT@E$0A@@@QAEXXZ 0052c2d0 f i helper.obj
 0002:0004e350       ?Reset@?$CBufferPtrT@E$0A@@@AAEXXZ 0052c350 f i helper.obj
 0002:0004e3b0       ?Alloc@?$CBufferPtrT@E$0A@@@AAEPAEI_N0@Z 0052c3b0 f i helper.obj
 0002:0004e530       ?GetAllocSize@?$CBufferPtrT@E$0A@@@AAEII@Z 0052c530 f i helper.obj
 0002:0004e600       ?IsIPAddress@@YAHPBD@Z     0052c600 f   SocketHelper.obj
 0002:0004e6e0       ?GetIPAddress@@YAHPBDPADAAH@Z 0052c6e0 f   SocketHelper.obj
 0002:0004e830       ?GetOptimalIPByHostName@@YAHPBDAAUin_addr@@@Z 0052c830 f   SocketHelper.obj
 0002:0004ea90       ?IN_ADDR_2_IP@@YAHABUin_addr@@PADAAH@Z 0052ca90 f   SocketHelper.obj
 0002:0004ebb0       ?sockaddr_IN_2_A@@YAHABUsockaddr_in@@AAGPADAAH1@Z 0052cbb0 f   SocketHelper.obj
 0002:0004ec40       ?sockaddr_A_2_IN@@YAHGPBDGAAUsockaddr_in@@@Z 0052cc40 f   SocketHelper.obj
 0002:0004ed30       ?GetSocketAddress@@YAHIPADAAHAAGH@Z 0052cd30 f   SocketHelper.obj
 0002:0004eea0       ?GetSocketLocalAddress@@YAHIPADAAHAAG@Z 0052cea0 f   SocketHelper.obj
 0002:0004ef00       ?GetSocketRemoteAddress@@YAHIPADAAHAAG@Z 0052cf00 f   SocketHelper.obj
 0002:0004ef60       ?GetExtensionFuncPtr@@YAPAXIU_GUID@@@Z 0052cf60 f   SocketHelper.obj
 0002:0004f050       ?Get_AcceptEx_FuncPtr@@YAP6GHIIPAXKKKPAKPAU_OVERLAPPED@@@ZI@Z 0052d050 f   SocketHelper.obj
 0002:0004f160       ?Get_GetAcceptExSockaddrs_FuncPtr@@YAP6GXPAXKKKPAPAUsockaddr@@PAH12@ZI@Z 0052d160 f   SocketHelper.obj
 0002:0004f270       ?Get_ConnectEx_FuncPtr@@YAP6GHIPBUsockaddr@@HPAXKPAKPAU_OVERLAPPED@@@ZI@Z 0052d270 f   SocketHelper.obj
 0002:0004f380       ?Get_TransmitFile_FuncPtr@@YAP6GHIPAXKKPAU_OVERLAPPED@@PAU_TRANSMIT_FILE_BUFFERS@@K@ZI@Z 0052d380 f   SocketHelper.obj
 0002:0004f490       ?Get_DisconnectEx_FuncPtr@@YAP6GHIPAU_OVERLAPPED@@KK@ZI@Z 0052d490 f   SocketHelper.obj
 0002:0004f5a0       ?PostIocpCommand@@YAHPAXW4EnIocpCommand@@K@Z 0052d5a0 f   SocketHelper.obj
 0002:0004f610       ?PostIocpExit@@YAHPAX@Z    0052d610 f   SocketHelper.obj
 0002:0004f670       ?PostIocpAccept@@YAHPAX@Z  0052d670 f   SocketHelper.obj
 0002:0004f6d0       ?PostIocpDisconnect@@YAHPAXK@Z 0052d6d0 f   SocketHelper.obj
 0002:0004f730       ?PostIocpSend@@YAHPAXK@Z   0052d730 f   SocketHelper.obj
 0002:0004f790       ?SSO_SetSocketOption@@YAHIHHPAXH@Z 0052d790 f   SocketHelper.obj
 0002:0004f800       ?SSO_GetSocketOption@@YAHIHHPAXPAH@Z 0052d800 f   SocketHelper.obj
 0002:0004f870       ?SSO_IoctlSocket@@YAHIJPAK@Z 0052d870 f   SocketHelper.obj
 0002:0004f8d0       ?SSO_WSAIoctl@@YAHIKPAXK0KPAK@Z 0052d8d0 f   SocketHelper.obj
 0002:0004f950       ?SSO_UpdateAcceptContext@@YAHII@Z 0052d950 f   SocketHelper.obj
 0002:0004f9c0       ?SSO_UpdateConnectContext@@YAHIH@Z 0052d9c0 f   SocketHelper.obj
 0002:0004fa30       ?SSO_NoDelay@@YAHIH@Z      0052da30 f   SocketHelper.obj
 0002:0004faa0       ?SSO_DontLinger@@YAHIH@Z   0052daa0 f   SocketHelper.obj
 0002:0004fb10       ?SSO_Linger@@YAHIGG@Z      0052db10 f   SocketHelper.obj
 0002:0004fbd0       ?SSO_KeepAlive@@YAHIH@Z    0052dbd0 f   SocketHelper.obj
 0002:0004fc40       ?SSO_KeepAliveVals@@YAHIKKK@Z 0052dc40 f   SocketHelper.obj
 0002:0004fd70       ?SSO_RecvBuffSize@@YAHIH@Z 0052dd70 f   SocketHelper.obj
 0002:0004fde0       ?SSO_SendBuffSize@@YAHIH@Z 0052dde0 f   SocketHelper.obj
 0002:0004fe50       ?SSO_ReuseAddress@@YAHIH@Z 0052de50 f   SocketHelper.obj
 0002:0004fec0       ?SSO_UDP_ConnReset@@YAHIH@Z 0052dec0 f   SocketHelper.obj
 0002:0004ffb0       ?GenerateConnectionID@@YAKXZ 0052dfb0 f   SocketHelper.obj
 0002:00050030       ?InterlockedIncrement@@YAKPCK@Z 0052e030 f i SocketHelper.obj
 0002:00050090       ?ManualCloseSocket@@YAHIHHH@Z 0052e090 f   SocketHelper.obj
 0002:00050150       ?PostAccept@@YAHP6GHIIPAXKKKPAKPAU_OVERLAPPED@@@ZIIPAUTBufferObj@@@Z 0052e150 f   SocketHelper.obj
 0002:000501d0       ?PostAcceptNotCheck@@YAHP6GHIIPAXKKKPAKPAU_OVERLAPPED@@@ZIIPAUTBufferObj@@@Z 0052e1d0 f   SocketHelper.obj
 0002:00050290       ?PostConnect@@YAHP6GHIPBUsockaddr@@HPAXKPAKPAU_OVERLAPPED@@@ZIAAUsockaddr_in@@PAUTBufferObj@@@Z 0052e290 f   SocketHelper.obj
 0002:00050310       ?PostConnectNotCheck@@YAHP6GHIPBUsockaddr@@HPAXKPAKPAU_OVERLAPPED@@@ZIAAUsockaddr_in@@PAUTBufferObj@@@Z 0052e310 f   SocketHelper.obj
 0002:000503c0       ?PostSend@@YAHPAUTSocketObj@@PAUTBufferObj@@@Z 0052e3c0 f   SocketHelper.obj
 0002:00050430       ?PostSendNotCheck@@YAHPAUTSocketObj@@PAUTBufferObj@@@Z 0052e430 f   SocketHelper.obj
 0002:00050530       ?PostReceive@@YAHPAUTSocketObj@@PAUTBufferObj@@@Z 0052e530 f   SocketHelper.obj
 0002:000505a0       ?PostReceiveNotCheck@@YAHPAUTSocketObj@@PAUTBufferObj@@@Z 0052e5a0 f   SocketHelper.obj
 0002:000506c0       ?PostSendTo@@YAHIPAUTUdpBufferObj@@@Z 0052e6c0 f   SocketHelper.obj
 0002:00050730       ?PostSendToNotCheck@@YAHIPAUTUdpBufferObj@@@Z 0052e730 f   SocketHelper.obj
 0002:00050840       ?PostReceiveFrom@@YAHIPAUTUdpBufferObj@@@Z 0052e840 f   SocketHelper.obj
 0002:000508b0       ?PostReceiveFromNotCheck@@YAHIPAUTUdpBufferObj@@@Z 0052e8b0 f   SocketHelper.obj
 0002:00050a00       ?GetSocketErrorDesc@@YAPBDW4EnSocketError@@@Z 0052ea00 f   SocketHelper.obj
 0002:00050b70       ??0?$CA2AEX@$0IA@@ATL@@QAE@PBD@Z 0052eb70 f i SocketHelper.obj
 0002:00050be0       ??1?$CA2AEX@$0IA@@ATL@@QAE@XZ 0052ebe0 f i SocketHelper.obj
 0002:00050c50       ??B?$CA2AEX@$0IA@@ATL@@QBEPADXZ 0052ec50 f i SocketHelper.obj
 0002:00050c90       ?Init@?$CA2AEX@$0IA@@ATL@@AAEXPBD@Z 0052ec90 f i SocketHelper.obj
 0002:00050d50       ?memcpy_s@Checked@ATL@@YAXPAXIPBXI@Z 0052ed50 f i SocketHelper.obj
 0002:00050dd0       ?AfxCrtErrorCheck@@YAHH@Z  0052edd0 f i SocketHelper.obj
 0002:00050ee0       ??$AtlConvFreeMemory@D@ATL@@YAXPAD0H@Z 0052eee0 f i SocketHelper.obj
 0002:00050f60       ??$AtlConvAllocMemory@D@ATL@@YAXPAPADHPADH@Z 0052ef60 f i SocketHelper.obj
 0002:000511c0       ?AtlThrowImpl@ATL@@YGXJ@Z  0052f1c0 f i SocketHelper.obj
 0002:00051270       ??0CTraceFileAndLineInfo@ATL@@QAE@PBDH@Z 0052f270 f i SocketHelper.obj
 0002:000512c0       ??RCTraceFileAndLineInfo@ATL@@QBAXKIPBDZZ 0052f2c0 f i SocketHelper.obj
 0002:00051350       ?TraceV@CTrace@ATL@@QBAXPBDHKI0PAD@Z 0052f350 f i SocketHelper.obj
 0002:000513c0       ??BCTraceCategory@ATL@@QBEKXZ 0052f3c0 f i SocketHelper.obj
 0002:00051400       ?Start@CTcpClient@@UAEHPBDGH@Z 0052f400 f   TcpClient.obj
 0002:000515b0       ?CheckParams@CTcpClient@@AAEHXZ 0052f5b0 f   TcpClient.obj
 0002:000516b0       ?CheckStarting@CTcpClient@@AAEHXZ 0052f6b0 f   TcpClient.obj
 0002:00051810       ?CheckStoping@CTcpClient@@AAEHXZ 0052f810 f   TcpClient.obj
 0002:00051980       ?CreateClientSocket@CTcpClient@@AAEHXZ 0052f980 f   TcpClient.obj
 0002:00051af0       ?ConnectToServer@CTcpClient@@AAEHPBDG@Z 0052faf0 f   TcpClient.obj
 0002:00051d80       ?CreateWorkerThread@CTcpClient@@AAEHXZ 0052fd80 f   TcpClient.obj
 0002:00051e10       ?WorkerThreadProc@CTcpClient@@CGIPAX@Z 0052fe10 f   TcpClient.obj
 0002:000520b0       ?ProcessNetworkEvent@CTcpClient@@AAEHXZ 005300b0 f   TcpClient.obj
 0002:00052580       ?ReadData@CTcpClient@@AAEHXZ 00530580 f   TcpClient.obj
 0002:000527e0       ?SendData@CTcpClient@@AAEHXZ 005307e0 f   TcpClient.obj
 0002:00052a30       ?GetSendBuffer@CTcpClient@@AAEPAUTItem@@XZ 00530a30 f   TcpClient.obj
 0002:00052b70       ?DoSendData@CTcpClient@@AAEHPAUTItem@@@Z 00530b70 f   TcpClient.obj
 0002:00052e70       ?Stop@CTcpClient@@UAEHXZ   00530e70 f   TcpClient.obj
 0002:00053000       ?Reset@CTcpClient@@MAEXXZ  00531000 f   TcpClient.obj
 0002:000530c0       ?WaitForWorkerThreadEnd@CTcpClient@@AAEXK@Z 005310c0 f   TcpClient.obj
 0002:000531b0       ?Send@CTcpClient@@UAEHPBEHH@Z 005311b0 f   TcpClient.obj
 0002:000532b0       ?SendPackets@CTcpClient@@UAEHQBU_WSABUF@@H@Z 005312b0 f   TcpClient.obj
 0002:000534d0       ?SendInternal@CTcpClient@@AAEHQBU_WSABUF@@HAAW4EnSocketError@@@Z 005314d0 f   TcpClient.obj
 0002:00053650       ?SendSmallFile@CTcpClient@@UAEHPBDQAU_WSABUF@@1@Z 00531650 f   TcpClient.obj
 0002:000539e0       ??0CAtlFile@ATL@@QAE@XZ    005319e0 f i TcpClient.obj
 0002:00053a40       ?Create@CAtlFile@ATL@@QAEJPBDKKKKPAU_SECURITY_ATTRIBUTES@@PAX@Z 00531a40 f i TcpClient.obj
 0002:00053b80       _HRESULT_FROM_WIN32        00531b80 f i TcpClient.obj
 0002:00053bf0       ?GetSize@CAtlFile@ATL@@QBEJAA_K@Z 00531bf0 f i TcpClient.obj
 0002:00053d20       ??1CAtlFile@ATL@@QAE@XZ    00531d20 f i TcpClient.obj
 0002:00053d70       ?MapFile@CAtlFileMappingBase@ATL@@QAEJPAXK_KKK@Z 00531d70 f i TcpClient.obj
 0002:00054060       ??0?$CAtlFileMapping@D@ATL@@QAE@XZ 00532060 f i TcpClient.obj
 0002:000540c0       ??0CAtlFileMappingBase@ATL@@QAE@XZ 005320c0 f i TcpClient.obj
 0002:00054110       ??1?$CAtlFileMapping@D@ATL@@QAE@XZ 00532110 f i TcpClient.obj
 0002:00054160       ??1CAtlFileMappingBase@ATL@@QAE@XZ 00532160 f i TcpClient.obj
 0002:000541b0       ?Unmap@CAtlFileMappingBase@ATL@@QAEJXZ 005321b0 f i TcpClient.obj
 0002:00054290       ?SetLastError@CTcpClient@@AAEXW4EnSocketError@@PBDH@Z 00532290 f   TcpClient.obj
 0002:00054340       ?GetLocalAddress@CTcpClient@@UAEHQADAAHAAG@Z 00532340 f   TcpClient.obj
 0002:000543e0       ??B?$CBufferPtrT@E$0A@@@QAEPAEXZ 005323e0 f i TcpClient.obj
 0002:00054430       ??B?$CAtlFileMapping@D@ATL@@QBEPADXZ 00532430 f i TcpClient.obj
 0002:00054480       ?GetData@CAtlFileMappingBase@ATL@@QBEPAXXZ 00532480 f i TcpClient.obj
 0002:000544c0       ??RCTraceFileAndLineInfo@ATL@@QBAXPBDZZ 005324c0 f i TcpClient.obj
 0002:00054550       ?AtlHresultFromLastError@ATL@@YAJXZ 00532550 f i TcpClient.obj
 0002:000545c0       ?CreateFileA@CAtlTransactionManager@ATL@@QAEPAXPBDKKPAU_SECURITY_ATTRIBUTES@@KKPAX@Z 005325c0 f i TcpClient.obj
 0002:00054740       ??0CHandle@ATL@@QAE@XZ     00532740 f i TcpClient.obj
 0002:00054790       ??1CHandle@ATL@@QAE@XZ     00532790 f i TcpClient.obj
 0002:000547f0       ??BCHandle@ATL@@QBEPAXXZ   005327f0 f i TcpClient.obj
 0002:00054830       ?Attach@CHandle@ATL@@QAEXPAX@Z 00532830 f i TcpClient.obj
 0002:000548e0       ?Close@CHandle@ATL@@QAEXXZ 005328e0 f i TcpClient.obj
 0002:00054960       ?Reset@CEvt@@QAEHXZ        00532960 f i TcpClient.obj
 0002:000549c0       ?Set@CEvt@@QAEHXZ          005329c0 f i TcpClient.obj
 0002:00054a20       ?Ptr@TItem@@QAEPAEXZ       00532a20 f i TcpClient.obj
 0002:00054a60       ?SetItemCapacity@CItemPool@@QAEXK@Z 00532a60 f i TcpClient.obj
 0002:00054ab0       ?SetPoolSize@CItemPool@@QAEXK@Z 00532ab0 f i TcpClient.obj
 0002:00054b00       ?SetPoolHold@CItemPool@@QAEXK@Z 00532b00 f i TcpClient.obj
 0002:00054b50       ?Detach@TItemPtr@@QAEPAUTItem@@XZ 00532b50 f i TcpClient.obj
 0002:00054ba0       ?IsValid@TItemPtr@@QAE_NXZ 00532ba0 f i TcpClient.obj
 0002:00054bf0       ??CTItemPtr@@QAEPAUTItem@@XZ 00532bf0 f i TcpClient.obj
 0002:00054c30       ??BTItemPtr@@QAEPAUTItem@@XZ 00532c30 f i TcpClient.obj
 0002:00054c70       ??0TItemPtr@@QAE@AAVCItemPool@@PAUTItem@@@Z 00532c70 f i TcpClient.obj
 0002:00054cc0       ??1TItemPtr@@QAE@XZ        00532cc0 f i TcpClient.obj
 0002:00054d20       ?Reset@TItemPtr@@QAEPAUTItem@@PAU2@@Z 00532d20 f i TcpClient.obj
 0002:00054da0       ?PushFront@?$TSimpleList@UTItem@@@@QAEPAUTItem@@PAU2@@Z 00532da0 f i TcpClient.obj
 0002:00054e50       ??0CCalendarDlg@@QAE@XZ    00532e50 f   CalendarDlg.obj
 0002:00054fb0       ??_GCCalendarDlg@@UAEPAXI@Z 00532fb0 f i CalendarDlg.obj
 0002:00054fb0       ??_ECCalendarDlg@@UAEPAXI@Z 00532fb0 f i CalendarDlg.obj
 0002:00055020       ??1CCalendarDlg@@UAE@XZ    00533020 f   CalendarDlg.obj
 0002:000550e0       ?GetWindowClassName@CCalendarDlg@@UBEPBDXZ 005330e0 f   CalendarDlg.obj
 0002:00055120       ?Notify@CCalendarDlg@@MAEXAAUtagTNotifyUI@DuiLib@@@Z 00533120 f   CalendarDlg.obj
 0002:000555a0       ?GetSkinFile@CCalendarDlg@@UAE?AVCDuiString@DuiLib@@XZ 005335a0 f   CalendarDlg.obj
 0002:00055630       ?GetSkinFolder@CCalendarDlg@@UAE?AVCDuiString@DuiLib@@XZ 00533630 f   CalendarDlg.obj
 0002:00055770       ?CreateControl@CCalendarDlg@@UAEPAVCControlUI@DuiLib@@PBD@Z 00533770 f   CalendarDlg.obj
 0002:000557b0       ?ResponseDefaultKeyEvent@CCalendarDlg@@UAEJI@Z 005337b0 f   CalendarDlg.obj
 0002:00055810       ?OnFinalMessage@CCalendarDlg@@UAEXPAUHWND__@@@Z 00533810 f   CalendarDlg.obj
 0002:00055880       ?HandleMessage@CCalendarDlg@@UAEJIIJ@Z 00533880 f   CalendarDlg.obj
 0002:00055960       ?HandleCustomMessage@CCalendarDlg@@UAEJIIJAAH@Z 00533960 f   CalendarDlg.obj
 0002:000559a0       ?SetParentWnd@CCalendarDlg@@QAEXPAUHWND__@@@Z 005339a0 f   CalendarDlg.obj
 0002:000559f0       ?InitWindow@CCalendarDlg@@UAEXXZ 005339f0 f   CalendarDlg.obj
 0002:00055b40       ?OnPrepare@CCalendarDlg@@IAEXAAUtagTNotifyUI@DuiLib@@@Z 00533b40 f   CalendarDlg.obj
 0002:00055be0       ?DrawCalendar@CCalendarDlg@@QAEXU_SYSTEMTIME@@@Z 00533be0 f   CalendarDlg.obj
 0002:00056140       ?GetDayOfWeek@CCalendarDlg@@QAEHU_SYSTEMTIME@@@Z 00534140 f   CalendarDlg.obj
 0002:00056200       ?GetMonthDays@CCalendarDlg@@QAEHHH@Z 00534200 f   CalendarDlg.obj
 0002:000562d0       ?OnBtnNextYear@CCalendarDlg@@IAEXAAUtagTNotifyUI@DuiLib@@@Z 005342d0 f   CalendarDlg.obj
 0002:00056630       ?OnBtnPrevYear@CCalendarDlg@@IAEXAAUtagTNotifyUI@DuiLib@@@Z 00534630 f   CalendarDlg.obj
 0002:00056960       ?OnBtnPrevMonth@CCalendarDlg@@IAEXAAUtagTNotifyUI@DuiLib@@@Z 00534960 f   CalendarDlg.obj
 0002:00057010       ?OnBtnNextMonth@CCalendarDlg@@IAEXAAUtagTNotifyUI@DuiLib@@@Z 00535010 f   CalendarDlg.obj
 0002:000574e0       ?OnBtnRiliClick@CCalendarDlg@@IAEXAAUtagTNotifyUI@DuiLib@@V?$CStringT@DV?$StrTraitMFC_DLL@DV?$ChTraitsCRT@D@ATL@@@@@ATL@@@Z 005354e0 f   CalendarDlg.obj
 0002:00057be0       __tcsicmp                  00535be0 f i CalendarDlg.obj
 0002:00057c40       ?DrawBtnBackImage@CCalendarDlg@@QAEXPAVCControlUI@DuiLib@@_N@Z 00535c40 f   CalendarDlg.obj
 0002:00057d60       ?SetMonth@CCalendarDlg@@QAEXH@Z 00535d60 f   CalendarDlg.obj
 0002:00058100       ?GetMonth@CCalendarDlg@@QAEHVCDuiString@DuiLib@@@Z 00536100 f   CalendarDlg.obj
 0002:00058460       ?SetDateTime@CCalendarDlg@@QAEXU_SYSTEMTIME@@@Z 00536460 f   CalendarDlg.obj
 0002:00058500       ?GetDateTime@CCalendarDlg@@QAEAAU_SYSTEMTIME@@XZ 00536500 f   CalendarDlg.obj
 0002:00058540       ??HATL@@YA?AV?$CStringT@DV?$StrTraitMFC_DLL@DV?$ChTraitsCRT@D@ATL@@@@@0@ABV10@0@Z 00536540 f i CalendarDlg.obj
 0002:00058700       ??HATL@@YA?AV?$CStringT@DV?$StrTraitMFC_DLL@DV?$ChTraitsCRT@D@ATL@@@@@0@PBDABV10@@Z 00536700 f i CalendarDlg.obj
 0002:000588b0       ??0CBase64Coding@@QAE@XZ   005368b0 f   CBase64Coding.obj
 0002:00058900       ??1CBase64Coding@@UAE@XZ   00536900 f   CBase64Coding.obj
 0002:00058940       ?m_InitializeDecoderTable@CBase64Coding@@MAEXXZ 00536940 f   CBase64Coding.obj
 0002:00058c00       ?Decode@CBase64Coding@@UAEHABVCByteArray@@AAV2@@Z 00536c00 f   CBase64Coding.obj
 0002:00059170       ?Decode@CBase64Coding@@UAEHABV?$CStringT@DV?$StrTraitMFC_DLL@DV?$ChTraitsCRT@D@ATL@@@@@ATL@@AAVCByteArray@@@Z 00537170 f   CBase64Coding.obj
 0002:00059670       ?Encode@CBase64Coding@@UAEHABVCByteArray@@AAV2@@Z 00537670 f   CBase64Coding.obj
 0002:00059ba0       ?Encode@CBase64Coding@@UAEHABVCByteArray@@AAV?$CStringT@DV?$StrTraitMFC_DLL@DV?$ChTraitsCRT@D@ATL@@@@@ATL@@@Z 00537ba0 f   CBase64Coding.obj
 0002:0005a130       ??_ECBase64Coding@@UAEPAXI@Z 00538130 f i CBase64Coding.obj
 0002:0005a130       ??_GCBase64Coding@@UAEPAXI@Z 00538130 f i CBase64Coding.obj
 0002:0005a1a0       ??0CBytsDialog@@QAE@PBD000@Z 005381a0 f   CBytsDialog.obj
 0002:0005a460       ??_GCBytsDialog@@UAEPAXI@Z 00538460 f i CBytsDialog.obj
 0002:0005a460       ??_ECBytsDialog@@UAEPAXI@Z 00538460 f i CBytsDialog.obj
 0002:0005a4d0       ??1CBytsDialog@@UAE@XZ     005384d0 f   CBytsDialog.obj
 0002:0005a640       ?GetWindowClassName@CBytsDialog@@UBEPBDXZ 00538640 f   CBytsDialog.obj
 0002:0005a680       ?CreateControl@CBytsDialog@@UAEPAVCControlUI@DuiLib@@PBD@Z 00538680 f   CBytsDialog.obj
 0002:0005a6c0       ?InitWindow@CBytsDialog@@UAEXXZ 005386c0 f   CBytsDialog.obj
 0002:0005ac90       ?OnFinalMessage@CBytsDialog@@UAEXPAUHWND__@@@Z 00538c90 f   CBytsDialog.obj
 0002:0005ad60       ?GetSkinFile@CBytsDialog@@UAE?AVCDuiString@DuiLib@@XZ 00538d60 f   CBytsDialog.obj
 0002:0005adf0       ?GetSkinFolder@CBytsDialog@@UAE?AVCDuiString@DuiLib@@XZ 00538df0 f   CBytsDialog.obj
 0002:0005af30       ?OnClose@CBytsDialog@@UAEJIIJAAH@Z 00538f30 f   CBytsDialog.obj
 0002:0005af80       ?OnSetFocus@CBytsDialog@@UAEJIIJAAH@Z 00538f80 f   CBytsDialog.obj
 0002:0005afd0       ?OnSysCommand@CBytsDialog@@UAEJIIJAAH@Z 00538fd0 f   CBytsDialog.obj
 0002:0005b070       ?HandleMessage@CBytsDialog@@UAEJIIJ@Z 00539070 f   CBytsDialog.obj
 0002:0005b0f0       ?HandleCustomMessage@CBytsDialog@@UAEJIIJAAH@Z 005390f0 f   CBytsDialog.obj
 0002:0005b140       ?ResponseDefaultKeyEvent@CBytsDialog@@UAEJI@Z 00539140 f   CBytsDialog.obj
 0002:0005b180       ?OnTimer@CBytsDialog@@IAEXAAUtagTNotifyUI@DuiLib@@@Z 00539180 f   CBytsDialog.obj
 0002:0005b1c0       ?OnExit@CBytsDialog@@QAEXXZ 005391c0 f   CBytsDialog.obj
 0002:0005b220       ?OnPrepare@CBytsDialog@@IAEXAAUtagTNotifyUI@DuiLib@@@Z 00539220 f   CBytsDialog.obj
 0002:0005b2e0       ?Notify@CBytsDialog@@MAEXAAUtagTNotifyUI@DuiLib@@@Z 005392e0 f   CBytsDialog.obj
 0002:0005b570       ?CheckPhoneNum@CBytsDialog@@QAEHXZ 00539570 f   CBytsDialog.obj
 0002:0005b7e0       ?SwitchInterface@CBytsDialog@@IAEXH@Z 005397e0 f   CBytsDialog.obj
 0002:0005b920       ?OnSelectCheckBox@CBytsDialog@@IAEXAAUtagTNotifyUI@DuiLib@@@Z 00539920 f   CBytsDialog.obj
 0002:0005b960       ?OnBtnSubmit@CBytsDialog@@QAEXAAUtagTNotifyUI@DuiLib@@@Z 00539960 f   CBytsDialog.obj
 0002:0005be60       ??1ClientComment@@QAE@XZ   00539e60 f i CBytsDialog.obj
 0002:0005bf00       ?OnCloseBtnClick@CBytsDialog@@IAEXAAUtagTNotifyUI@DuiLib@@@Z 00539f00 f   CBytsDialog.obj
 0002:0005bf60       ?OnBtn_Min@CBytsDialog@@IAEXAAUtagTNotifyUI@DuiLib@@@Z 00539f60 f   CBytsDialog.obj
 0002:0005bfd0       ?OnBtn_Max@CBytsDialog@@IAEXAAUtagTNotifyUI@DuiLib@@@Z 00539fd0 f   CBytsDialog.obj
 0002:0005c040       ??0ClientComment@@QAE@XZ   0053a040 f i CBytsDialog.obj
 0002:0005c190       ??8ATL@@YA_NABV?$CStringT@DV?$StrTraitMFC_DLL@DV?$ChTraitsCRT@D@ATL@@@@@0@0@Z 0053a190 f i CBytsDialog.obj
 0002:0005c210       ??0CCreateGroupParam@@QAE@XZ 0053a210 f   CreateGroupParam.obj
 0002:0005c280       ??1CCreateGroupParam@@QAE@XZ 0053a280 f   CreateGroupParam.obj
 0002:0005c330       ??1?$map@HPAUtagCGPARAM@@U?$less@H@std@@V?$allocator@U?$pair@$$CBHPAUtagCGPARAM@@@std@@@3@@std@@QAE@XZ 0053a330 f i CreateGroupParam.obj
 0002:0005c380       ?SetMapCreateGroupParam@CCreateGroupParam@@QAEHHPBD0PAV?$vector@UGUPID@@V?$allocator@UGUPID@@@std@@@std@@@Z 0053a380 f   CreateGroupParam.obj
 0002:0005c560       ??0tagCGPARAM@@QAE@XZ      0053a560 f i CreateGroupParam.obj
 0002:0005c5c0       ?GetDataFromCreateMapKey@CCreateGroupParam@@QAEPAUtagCGPARAM@@H@Z 0053a5c0 f   CreateGroupParam.obj
 0002:0005c6b0       ?RemoveGroupParamFromKey@CCreateGroupParam@@QAEXH@Z 0053a6b0 f   CreateGroupParam.obj
 0002:0005c820       ??_GtagCGPARAM@@QAEPAXI@Z  0053a820 f i CreateGroupParam.obj
 0002:0005c890       ??1tagCGPARAM@@QAE@XZ      0053a890 f i CreateGroupParam.obj
 0002:0005c8f0       ?ClearMapCreate@CCreateGroupParam@@QAEXXZ 0053a8f0 f   CreateGroupParam.obj
 0002:0005ca50       ??0?$vector@UGUPID@@V?$allocator@UGUPID@@@std@@@std@@QAE@XZ 0053aa50 f i CreateGroupParam.obj
 0002:0005cac0       ??1?$vector@UGUPID@@V?$allocator@UGUPID@@@std@@@std@@QAE@XZ 0053aac0 f i CreateGroupParam.obj
 0002:0005cb60       ?begin@?$vector@UGUPID@@V?$allocator@UGUPID@@@std@@@std@@QAE?AV?$_Vector_iterator@V?$_Vector_val@UGUPID@@V?$allocator@UGUPID@@@std@@@std@@@2@XZ 0053ab60 f i CreateGroupParam.obj
 0002:0005cbd0       ?end@?$vector@UGUPID@@V?$allocator@UGUPID@@@std@@@std@@QAE?AV?$_Vector_iterator@V?$_Vector_val@UGUPID@@V?$allocator@UGUPID@@@std@@@std@@@2@XZ 0053abd0 f i CreateGroupParam.obj
 0002:0005cc40       ?clear@?$vector@UGUPID@@V?$allocator@UGUPID@@@std@@@std@@QAEXXZ 0053ac40 f i CreateGroupParam.obj
 0002:0005ccf0       ??0?$map@HPAUtagCGPARAM@@U?$less@H@std@@V?$allocator@U?$pair@$$CBHPAUtagCGPARAM@@@std@@@3@@std@@QAE@XZ 0053acf0 f i CreateGroupParam.obj
 0002:0005cd60       ??A?$map@HPAUtagCGPARAM@@U?$less@H@std@@V?$allocator@U?$pair@$$CBHPAUtagCGPARAM@@@std@@@3@@std@@QAEAAPAUtagCGPARAM@@ABH@Z 0053ad60 f i CreateGroupParam.obj
 0002:0005ceb0       ??1?$_Tree@V?$_Tmap_traits@HPAUtagCGPARAM@@U?$less@H@std@@V?$allocator@U?$pair@$$CBHPAUtagCGPARAM@@@std@@@3@$0A@@std@@@std@@QAE@XZ 0053aeb0 f i CreateGroupParam.obj
 0002:0005cf50       ?begin@?$_Tree@V?$_Tmap_traits@HPAUtagCGPARAM@@U?$less@H@std@@V?$allocator@U?$pair@$$CBHPAUtagCGPARAM@@@std@@@3@$0A@@std@@@std@@QAE?AV?$_Tree_iterator@V?$_Tree_val@V?$_Tmap_traits@HPAUtagCGPARAM@@U?$less@H@std@@V?$allocator@U?$pair@$$CBHPAUtagCGPARAM@@@std@@@3@$0A@@std@@@std@@@2@XZ 0053af50 f i CreateGroupParam.obj
 0002:0005cfc0       ?end@?$_Tree@V?$_Tmap_traits@HPAUtagCGPARAM@@U?$less@H@std@@V?$allocator@U?$pair@$$CBHPAUtagCGPARAM@@@std@@@3@$0A@@std@@@std@@QAE?AV?$_Tree_iterator@V?$_Tree_val@V?$_Tmap_traits@HPAUtagCGPARAM@@U?$less@H@std@@V?$allocator@U?$pair@$$CBHPAUtagCGPARAM@@@std@@@3@$0A@@std@@@std@@@2@XZ 0053afc0 f i CreateGroupParam.obj
 0002:0005d030       ?erase@?$_Tree@V?$_Tmap_traits@HPAUtagCGPARAM@@U?$less@H@std@@V?$allocator@U?$pair@$$CBHPAUtagCGPARAM@@@std@@@3@$0A@@std@@@std@@QAE?AV?$_Tree_iterator@V?$_Tree_val@V?$_Tmap_traits@HPAUtagCGPARAM@@U?$less@H@std@@V?$allocator@U?$pair@$$CBHPAUtagCGPARAM@@@std@@@3@$0A@@std@@@std@@@2@V?$_Tree_const_iterator@V?$_Tree_val@V?$_Tmap_traits@HPAUtagCGPARAM@@U?$less@H@std@@V?$allocator@U?$pair@$$CBHPAUtagCGPARAM@@@std@@@3@$0A@@std@@@std@@@2@@Z 0053b030 f i CreateGroupParam.obj
 0002:0005d9f0       ?clear@?$_Tree@V?$_Tmap_traits@HPAUtagCGPARAM@@U?$less@H@std@@V?$allocator@U?$pair@$$CBHPAUtagCGPARAM@@@std@@@3@$0A@@std@@@std@@QAEXXZ 0053b9f0 f i CreateGroupParam.obj
 0002:0005daa0       ?find@?$_Tree@V?$_Tmap_traits@HPAUtagCGPARAM@@U?$less@H@std@@V?$allocator@U?$pair@$$CBHPAUtagCGPARAM@@@std@@@3@$0A@@std@@@std@@QAE?AV?$_Tree_iterator@V?$_Tree_val@V?$_Tmap_traits@HPAUtagCGPARAM@@U?$less@H@std@@V?$allocator@U?$pair@$$CBHPAUtagCGPARAM@@@std@@@3@$0A@@std@@@std@@@2@ABH@Z 0053baa0 f i CreateGroupParam.obj
 0002:0005dbe0       ??C?$_Tree_iterator@V?$_Tree_val@V?$_Tmap_traits@HPAUtagCGPARAM@@U?$less@H@std@@V?$allocator@U?$pair@$$CBHPAUtagCGPARAM@@@std@@@3@$0A@@std@@@std@@@std@@QBEPAU?$pair@$$CBHPAUtagCGPARAM@@@1@XZ 0053bbe0 f i CreateGroupParam.obj
 0002:0005dc30       ??E?$_Tree_iterator@V?$_Tree_val@V?$_Tmap_traits@HPAUtagCGPARAM@@U?$less@H@std@@V?$allocator@U?$pair@$$CBHPAUtagCGPARAM@@@std@@@3@$0A@@std@@@std@@@std@@QAE?AV01@H@Z 0053bc30 f i CreateGroupParam.obj
 0002:0005dce0       ??9?$_Tree_const_iterator@V?$_Tree_val@V?$_Tmap_traits@HPAUtagCGPARAM@@U?$less@H@std@@V?$allocator@U?$pair@$$CBHPAUtagCGPARAM@@@std@@@3@$0A@@std@@@std@@@std@@QBE_NABV01@@Z 0053bce0 f i CreateGroupParam.obj
 0002:0005dd50       ?erase@?$vector@UGUPID@@V?$allocator@UGUPID@@@std@@@std@@QAE?AV?$_Vector_iterator@V?$_Vector_val@UGUPID@@V?$allocator@UGUPID@@@std@@@std@@@2@V?$_Vector_const_iterator@V?$_Vector_val@UGUPID@@V?$allocator@UGUPID@@@std@@@std@@@2@0@Z 0053bd50 f i CreateGroupParam.obj
 0002:0005de80       ?_Tidy@?$vector@UGUPID@@V?$allocator@UGUPID@@@std@@@std@@IAEXXZ 0053be80 f i CreateGroupParam.obj
 0002:0005df60       ??0?$_Vector_val@UGUPID@@V?$allocator@UGUPID@@@std@@@std@@QAE@V?$allocator@UGUPID@@@1@@Z 0053bf60 f i CreateGroupParam.obj
 0002:0005dff0       ??1?$_Vector_val@UGUPID@@V?$allocator@UGUPID@@@std@@@std@@QAE@XZ 0053bff0 f i CreateGroupParam.obj
 0002:0005e030       ??0?$allocator@UGUPID@@@std@@QAE@XZ 0053c030 f i CreateGroupParam.obj
 0002:0005e070       ??0?$_Tree@V?$_Tmap_traits@HPAUtagCGPARAM@@U?$less@H@std@@V?$allocator@U?$pair@$$CBHPAUtagCGPARAM@@@std@@@3@$0A@@std@@@std@@QAE@ABU?$less@H@1@ABV?$allocator@U?$pair@$$CBHPAUtagCGPARAM@@@std@@@1@@Z 0053c070 f i CreateGroupParam.obj
 0002:0005e0e0       ?lower_bound@?$_Tree@V?$_Tmap_traits@HPAUtagCGPARAM@@U?$less@H@std@@V?$allocator@U?$pair@$$CBHPAUtagCGPARAM@@@std@@@3@$0A@@std@@@std@@QAE?AV?$_Tree_iterator@V?$_Tree_val@V?$_Tmap_traits@HPAUtagCGPARAM@@U?$less@H@std@@V?$allocator@U?$pair@$$CBHPAUtagCGPARAM@@@std@@@3@$0A@@std@@@std@@@2@ABH@Z 0053c0e0 f i CreateGroupParam.obj
 0002:0005e150       ?_Erase@?$_Tree@V?$_Tmap_traits@HPAUtagCGPARAM@@U?$less@H@std@@V?$allocator@U?$pair@$$CBHPAUtagCGPARAM@@@std@@@3@$0A@@std@@@std@@IAEXPAU_Node@?$_Tree_nod@V?$_Tmap_traits@HPAUtagCGPARAM@@U?$less@H@std@@V?$allocator@U?$pair@$$CBHPAUtagCGPARAM@@@std@@@3@$0A@@std@@@2@@Z 0053c150 f i CreateGroupParam.obj
 0002:0005e240       ?_Lmost@?$_Tree@V?$_Tmap_traits@HPAUtagCGPARAM@@U?$less@H@std@@V?$allocator@U?$pair@$$CBHPAUtagCGPARAM@@@std@@@3@$0A@@std@@@std@@IBEAAPAU_Node@?$_Tree_nod@V?$_Tmap_traits@HPAUtagCGPARAM@@U?$less@H@std@@V?$allocator@U?$pair@$$CBHPAUtagCGPARAM@@@std@@@3@$0A@@std@@@2@XZ 0053c240 f i CreateGroupParam.obj
 0002:0005e2a0       ?_Lrotate@?$_Tree@V?$_Tmap_traits@HPAUtagCGPARAM@@U?$less@H@std@@V?$allocator@U?$pair@$$CBHPAUtagCGPARAM@@@std@@@3@$0A@@std@@@std@@IAEXPAU_Node@?$_Tree_nod@V?$_Tmap_traits@HPAUtagCGPARAM@@U?$less@H@std@@V?$allocator@U?$pair@$$CBHPAUtagCGPARAM@@@std@@@3@$0A@@std@@@2@@Z 0053c2a0 f i CreateGroupParam.obj
 0002:0005e450       ?_Rmost@?$_Tree@V?$_Tmap_traits@HPAUtagCGPARAM@@U?$less@H@std@@V?$allocator@U?$pair@$$CBHPAUtagCGPARAM@@@std@@@3@$0A@@std@@@std@@IBEAAPAU_Node@?$_Tree_nod@V?$_Tmap_traits@HPAUtagCGPARAM@@U?$less@H@std@@V?$allocator@U?$pair@$$CBHPAUtagCGPARAM@@@std@@@3@$0A@@std@@@2@XZ 0053c450 f i CreateGroupParam.obj
 0002:0005e4b0       ?_Root@?$_Tree@V?$_Tmap_traits@HPAUtagCGPARAM@@U?$less@H@std@@V?$allocator@U?$pair@$$CBHPAUtagCGPARAM@@@std@@@3@$0A@@std@@@std@@IBEAAPAU_Node@?$_Tree_nod@V?$_Tmap_traits@HPAUtagCGPARAM@@U?$less@H@std@@V?$allocator@U?$pair@$$CBHPAUtagCGPARAM@@@std@@@3@$0A@@std@@@2@XZ 0053c4b0 f i CreateGroupParam.obj
 0002:0005e510       ?_Rrotate@?$_Tree@V?$_Tmap_traits@HPAUtagCGPARAM@@U?$less@H@std@@V?$allocator@U?$pair@$$CBHPAUtagCGPARAM@@@std@@@3@$0A@@std@@@std@@IAEXPAU_Node@?$_Tree_nod@V?$_Tmap_traits@HPAUtagCGPARAM@@U?$less@H@std@@V?$allocator@U?$pair@$$CBHPAUtagCGPARAM@@@std@@@3@$0A@@std@@@2@@Z 0053c510 f i CreateGroupParam.obj
 0002:0005e6c0       ?_Tidy@?$_Tree@V?$_Tmap_traits@HPAUtagCGPARAM@@U?$less@H@std@@V?$allocator@U?$pair@$$CBHPAUtagCGPARAM@@@std@@@3@$0A@@std@@@std@@IAEXXZ 0053c6c0 f i CreateGroupParam.obj
 0002:0005e770       ??1?$_Tree_val@V?$_Tmap_traits@HPAUtagCGPARAM@@U?$less@H@std@@V?$allocator@U?$pair@$$CBHPAUtagCGPARAM@@@std@@@3@$0A@@std@@@std@@QAE@XZ 0053c770 f i CreateGroupParam.obj
 0002:0005e7d0       ?_Color@?$_Tree_val@V?$_Tmap_traits@HPAUtagCGPARAM@@U?$less@H@std@@V?$allocator@U?$pair@$$CBHPAUtagCGPARAM@@@std@@@3@$0A@@std@@@std@@SAAADPAU_Node@?$_Tree_nod@V?$_Tmap_traits@HPAUtagCGPARAM@@U?$less@H@std@@V?$allocator@U?$pair@$$CBHPAUtagCGPARAM@@@std@@@3@$0A@@std@@@2@@Z 0053c7d0 f i CreateGroupParam.obj
 0002:0005e810       ?_Isnil@?$_Tree_val@V?$_Tmap_traits@HPAUtagCGPARAM@@U?$less@H@std@@V?$allocator@U?$pair@$$CBHPAUtagCGPARAM@@@std@@@3@$0A@@std@@@std@@SAAADPAU_Node@?$_Tree_nod@V?$_Tmap_traits@HPAUtagCGPARAM@@U?$less@H@std@@V?$allocator@U?$pair@$$CBHPAUtagCGPARAM@@@std@@@3@$0A@@std@@@2@@Z 0053c810 f i CreateGroupParam.obj
 0002:0005e850       ?_Key@?$_Tree_val@V?$_Tmap_traits@HPAUtagCGPARAM@@U?$less@H@std@@V?$allocator@U?$pair@$$CBHPAUtagCGPARAM@@@std@@@3@$0A@@std@@@std@@SAAAHPAU_Node@?$_Tree_nod@V?$_Tmap_traits@HPAUtagCGPARAM@@U?$less@H@std@@V?$allocator@U?$pair@$$CBHPAUtagCGPARAM@@@std@@@3@$0A@@std@@@2@@Z 0053c850 f i CreateGroupParam.obj
 0002:0005e8b0       ?_Left@?$_Tree_val@V?$_Tmap_traits@HPAUtagCGPARAM@@U?$less@H@std@@V?$allocator@U?$pair@$$CBHPAUtagCGPARAM@@@std@@@3@$0A@@std@@@std@@SAAAPAU_Node@?$_Tree_nod@V?$_Tmap_traits@HPAUtagCGPARAM@@U?$less@H@std@@V?$allocator@U?$pair@$$CBHPAUtagCGPARAM@@@std@@@3@$0A@@std@@@2@PAU342@@Z 0053c8b0 f i CreateGroupParam.obj
 0002:0005e8f0       ?_Parent@?$_Tree_val@V?$_Tmap_traits@HPAUtagCGPARAM@@U?$less@H@std@@V?$allocator@U?$pair@$$CBHPAUtagCGPARAM@@@std@@@3@$0A@@std@@@std@@SAAAPAU_Node@?$_Tree_nod@V?$_Tmap_traits@HPAUtagCGPARAM@@U?$less@H@std@@V?$allocator@U?$pair@$$CBHPAUtagCGPARAM@@@std@@@3@$0A@@std@@@2@PAU342@@Z 0053c8f0 f i CreateGroupParam.obj
 0002:0005e930       ?_Right@?$_Tree_val@V?$_Tmap_traits@HPAUtagCGPARAM@@U?$less@H@std@@V?$allocator@U?$pair@$$CBHPAUtagCGPARAM@@@std@@@3@$0A@@std@@@std@@SAAAPAU_Node@?$_Tree_nod@V?$_Tmap_traits@HPAUtagCGPARAM@@U?$less@H@std@@V?$allocator@U?$pair@$$CBHPAUtagCGPARAM@@@std@@@3@$0A@@std@@@2@PAU342@@Z 0053c930 f i CreateGroupParam.obj
 0002:0005e970       ?_Myval@?$_Tree_val@V?$_Tmap_traits@HPAUtagCGPARAM@@U?$less@H@std@@V?$allocator@U?$pair@$$CBHPAUtagCGPARAM@@@std@@@3@$0A@@std@@@std@@SAAAU?$pair@$$CBHPAUtagCGPARAM@@@2@PAU_Node@?$_Tree_nod@V?$_Tmap_traits@HPAUtagCGPARAM@@U?$less@H@std@@V?$allocator@U?$pair@$$CBHPAUtagCGPARAM@@@std@@@3@$0A@@std@@@2@@Z 0053c970 f i CreateGroupParam.obj
 0002:0005e9b0       ?_Max@?$_Tree_val@V?$_Tmap_traits@HPAUtagCGPARAM@@U?$less@H@std@@V?$allocator@U?$pair@$$CBHPAUtagCGPARAM@@@std@@@3@$0A@@std@@@std@@SAPAU_Node@?$_Tree_nod@V?$_Tmap_traits@HPAUtagCGPARAM@@U?$less@H@std@@V?$allocator@U?$pair@$$CBHPAUtagCGPARAM@@@std@@@3@$0A@@std@@@2@PAU342@@Z 0053c9b0 f i CreateGroupParam.obj
 0002:0005ea30       ?_Min@?$_Tree_val@V?$_Tmap_traits@HPAUtagCGPARAM@@U?$less@H@std@@V?$allocator@U?$pair@$$CBHPAUtagCGPARAM@@@std@@@3@$0A@@std@@@std@@SAPAU_Node@?$_Tree_nod@V?$_Tmap_traits@HPAUtagCGPARAM@@U?$less@H@std@@V?$allocator@U?$pair@$$CBHPAUtagCGPARAM@@@std@@@3@$0A@@std@@@2@PAU342@@Z 0053ca30 f i CreateGroupParam.obj
 0002:0005eab0       ??0?$allocator@U?$pair@$$CBHPAUtagCGPARAM@@@std@@@std@@QAE@XZ 0053cab0 f i CreateGroupParam.obj
 0002:0005eaf0       ??R?$less@H@std@@QBE_NABH0@Z 0053caf0 f i CreateGroupParam.obj
 0002:0005eb40       ?deallocate@?$allocator@U_Node@?$_Tree_nod@V?$_Tmap_traits@HPAUtagCGPARAM@@U?$less@H@std@@V?$allocator@U?$pair@$$CBHPAUtagCGPARAM@@@std@@@3@$0A@@std@@@std@@@std@@QAEXPAU_Node@?$_Tree_nod@V?$_Tmap_traits@HPAUtagCGPARAM@@U?$less@H@std@@V?$allocator@U?$pair@$$CBHPAUtagCGPARAM@@@std@@@3@$0A@@std@@@2@I@Z 0053cb40 f i CreateGroupParam.obj
 0002:0005eba0       ??0?$_Vector_iterator@V?$_Vector_val@UGUPID@@V?$allocator@UGUPID@@@std@@@std@@@std@@QAE@PAUGUPID@@PBU_Container_base0@1@@Z 0053cba0 f i CreateGroupParam.obj
 0002:0005ec00       ??0?$_Tree_iterator@V?$_Tree_val@V?$_Tmap_traits@HPAUtagCGPARAM@@U?$less@H@std@@V?$allocator@U?$pair@$$CBHPAUtagCGPARAM@@@std@@@3@$0A@@std@@@std@@@std@@QAE@PAU_Node@?$_Tree_nod@V?$_Tmap_traits@HPAUtagCGPARAM@@U?$less@H@std@@V?$allocator@U?$pair@$$CBHPAUtagCGPARAM@@@std@@@3@$0A@@std@@@1@PBV?$_Tree_val@V?$_Tmap_traits@HPAUtagCGPARAM@@U?$less@H@std@@V?$allocator@U?$pair@$$CBHPAUtagCGPARAM@@@std@@@3@$0A@@std@@@1@@Z 0053cc00 f i CreateGroupParam.obj
 0002:0005ec60       ??D?$_Tree_iterator@V?$_Tree_val@V?$_Tmap_traits@HPAUtagCGPARAM@@U?$less@H@std@@V?$allocator@U?$pair@$$CBHPAUtagCGPARAM@@@std@@@3@$0A@@std@@@std@@@std@@QBEAAU?$pair@$$CBHPAUtagCGPARAM@@@1@XZ 0053cc60 f i CreateGroupParam.obj
 0002:0005ecb0       ??E?$_Tree_iterator@V?$_Tree_val@V?$_Tmap_traits@HPAUtagCGPARAM@@U?$less@H@std@@V?$allocator@U?$pair@$$CBHPAUtagCGPARAM@@@std@@@3@$0A@@std@@@std@@@std@@QAEAAV01@XZ 0053ccb0 f i CreateGroupParam.obj
 0002:0005ed10       ??E?$_Tree_const_iterator@V?$_Tree_val@V?$_Tmap_traits@HPAUtagCGPARAM@@U?$less@H@std@@V?$allocator@U?$pair@$$CBHPAUtagCGPARAM@@@std@@@3@$0A@@std@@@std@@@std@@QAEAAV01@XZ 0053cd10 f i CreateGroupParam.obj
 0002:0005ed70       ??8?$_Tree_const_iterator@V?$_Tree_val@V?$_Tmap_traits@HPAUtagCGPARAM@@U?$less@H@std@@V?$allocator@U?$pair@$$CBHPAUtagCGPARAM@@@std@@@3@$0A@@std@@@std@@@std@@QBE_NABV01@@Z 0053cd70 f i CreateGroupParam.obj
 0002:0005edc0       ?_Mynode@?$_Tree_unchecked_const_iterator@V?$_Tree_val@V?$_Tmap_traits@HPAUtagCGPARAM@@U?$less@H@std@@V?$allocator@U?$pair@$$CBHPAUtagCGPARAM@@@std@@@3@$0A@@std@@@std@@U_Iterator_base0@2@@std@@QBEPAU_Node@?$_Tree_nod@V?$_Tmap_traits@HPAUtagCGPARAM@@U?$less@H@std@@V?$allocator@U?$pair@$$CBHPAUtagCGPARAM@@@std@@@3@$0A@@std@@@2@XZ 0053cdc0 f i CreateGroupParam.obj
 0002:0005ee00       ??0?$pair@$$CBHPAUtagCGPARAM@@@std@@QAE@ABH$$QAPAUtagCGPARAM@@@Z 0053ce00 f i CreateGroupParam.obj
 0002:0005ee70       ?_Make_iter@?$vector@UGUPID@@V?$allocator@UGUPID@@@std@@@std@@QBE?AV?$_Vector_iterator@V?$_Vector_val@UGUPID@@V?$allocator@UGUPID@@@std@@@std@@@2@V?$_Vector_const_iterator@V?$_Vector_val@UGUPID@@V?$allocator@UGUPID@@@std@@@std@@@2@@Z 0053ce70 f i CreateGroupParam.obj
 0002:0005eed0       ?_Destroy@?$vector@UGUPID@@V?$allocator@UGUPID@@@std@@@std@@IAEXPAUGUPID@@0@Z 0053ced0 f i CreateGroupParam.obj
 0002:0005ef40       ??0?$allocator@UGUPID@@@std@@QAE@ABV01@@Z 0053cf40 f i CreateGroupParam.obj
 0002:0005ef80       ?deallocate@?$allocator@UGUPID@@@std@@QAEXPAUGUPID@@I@Z 0053cf80 f i CreateGroupParam.obj
 0002:0005efe0       ?erase@?$_Tree@V?$_Tmap_traits@HPAUtagCGPARAM@@U?$less@H@std@@V?$allocator@U?$pair@$$CBHPAUtagCGPARAM@@@std@@@3@$0A@@std@@@std@@QAE?AV?$_Tree_iterator@V?$_Tree_val@V?$_Tmap_traits@HPAUtagCGPARAM@@U?$less@H@std@@V?$allocator@U?$pair@$$CBHPAUtagCGPARAM@@@std@@@3@$0A@@std@@@std@@@2@V?$_Tree_const_iterator@V?$_Tree_val@V?$_Tmap_traits@HPAUtagCGPARAM@@U?$less@H@std@@V?$allocator@U?$pair@$$CBHPAUtagCGPARAM@@@std@@@3@$0A@@std@@@std@@@2@0@Z 0053cfe0 f i CreateGroupParam.obj
 0002:0005f100       ?_Lbound@?$_Tree@V?$_Tmap_traits@HPAUtagCGPARAM@@U?$less@H@std@@V?$allocator@U?$pair@$$CBHPAUtagCGPARAM@@@std@@@3@$0A@@std@@@std@@IAEPAU_Node@?$_Tree_nod@V?$_Tmap_traits@HPAUtagCGPARAM@@U?$less@H@std@@V?$allocator@U?$pair@$$CBHPAUtagCGPARAM@@@std@@@3@$0A@@std@@@2@ABH@Z 0053d100 f i CreateGroupParam.obj
 0002:0005f1e0       ??0?$_Tree_val@V?$_Tmap_traits@HPAUtagCGPARAM@@U?$less@H@std@@V?$allocator@U?$pair@$$CBHPAUtagCGPARAM@@@std@@@3@$0A@@std@@@std@@QAE@ABU?$less@H@1@V?$allocator@U?$pair@$$CBHPAUtagCGPARAM@@@std@@@1@@Z 0053d1e0 f i CreateGroupParam.obj
 0002:0005f2f0       ??0?$allocator@U?$pair@$$CBHPAUtagCGPARAM@@@std@@@std@@QAE@ABV01@@Z 0053d2f0 f i CreateGroupParam.obj
 0002:0005f330       ??0?$_Vector_const_iterator@V?$_Vector_val@UGUPID@@V?$allocator@UGUPID@@@std@@@std@@@std@@QAE@PAUGUPID@@PBU_Container_base0@1@@Z 0053d330 f i CreateGroupParam.obj
 0002:0005f3a0       ??9?$_Vector_const_iterator@V?$_Vector_val@UGUPID@@V?$allocator@UGUPID@@@std@@@std@@@std@@QBE_NABV01@@Z 0053d3a0 f i CreateGroupParam.obj
 0002:0005f410       ??0?$_Tree_const_iterator@V?$_Tree_val@V?$_Tmap_traits@HPAUtagCGPARAM@@U?$less@H@std@@V?$allocator@U?$pair@$$CBHPAUtagCGPARAM@@@std@@@3@$0A@@std@@@std@@@std@@QAE@PAU_Node@?$_Tree_nod@V?$_Tmap_traits@HPAUtagCGPARAM@@U?$less@H@std@@V?$allocator@U?$pair@$$CBHPAUtagCGPARAM@@@std@@@3@$0A@@std@@@1@PBV?$_Tree_val@V?$_Tmap_traits@HPAUtagCGPARAM@@U?$less@H@std@@V?$allocator@U?$pair@$$CBHPAUtagCGPARAM@@@std@@@3@$0A@@std@@@1@@Z 0053d410 f i CreateGroupParam.obj
 0002:0005f470       ??D?$_Tree_const_iterator@V?$_Tree_val@V?$_Tmap_traits@HPAUtagCGPARAM@@U?$less@H@std@@V?$allocator@U?$pair@$$CBHPAUtagCGPARAM@@@std@@@3@$0A@@std@@@std@@@std@@QBEABU?$pair@$$CBHPAUtagCGPARAM@@@1@XZ 0053d470 f i CreateGroupParam.obj
 0002:0005f4d0       ??E?$_Tree_unchecked_const_iterator@V?$_Tree_val@V?$_Tmap_traits@HPAUtagCGPARAM@@U?$less@H@std@@V?$allocator@U?$pair@$$CBHPAUtagCGPARAM@@@std@@@3@$0A@@std@@@std@@U_Iterator_base0@2@@std@@QAEAAV01@XZ 0053d4d0 f i CreateGroupParam.obj
 0002:0005f5f0       ??0?$_Pair_base@$$CBHPAUtagCGPARAM@@@std@@QAE@ABH$$QAPAUtagCGPARAM@@@Z 0053d5f0 f i CreateGroupParam.obj
 0002:0005f660       ??0?$_Tree_nod@V?$_Tmap_traits@HPAUtagCGPARAM@@U?$less@H@std@@V?$allocator@U?$pair@$$CBHPAUtagCGPARAM@@@std@@@3@$0A@@std@@@std@@QAE@ABU?$less@H@1@V?$allocator@U?$pair@$$CBHPAUtagCGPARAM@@@std@@@1@@Z 0053d660 f i CreateGroupParam.obj
 0002:0005f6f0       ?allocate@?$allocator@U_Node@?$_Tree_nod@V?$_Tmap_traits@HPAUtagCGPARAM@@U?$less@H@std@@V?$allocator@U?$pair@$$CBHPAUtagCGPARAM@@@std@@@3@$0A@@std@@@std@@@std@@QAEPAU_Node@?$_Tree_nod@V?$_Tmap_traits@HPAUtagCGPARAM@@U?$less@H@std@@V?$allocator@U?$pair@$$CBHPAUtagCGPARAM@@@std@@@3@$0A@@std@@@2@I@Z 0053d6f0 f i CreateGroupParam.obj
 0002:0005f750       ??8?$_Vector_const_iterator@V?$_Vector_val@UGUPID@@V?$allocator@UGUPID@@@std@@@std@@@std@@QBE_NABV01@@Z 0053d750 f i CreateGroupParam.obj
 0002:0005f7c0       ??E?$_Tree_const_iterator@V?$_Tree_val@V?$_Tmap_traits@HPAUtagCGPARAM@@U?$less@H@std@@V?$allocator@U?$pair@$$CBHPAUtagCGPARAM@@@std@@@3@$0A@@std@@@std@@@std@@QAE?AV01@H@Z 0053d7c0 f i CreateGroupParam.obj
 0002:0005f870       ??0?$_Tree_unchecked_const_iterator@V?$_Tree_val@V?$_Tmap_traits@HPAUtagCGPARAM@@U?$less@H@std@@V?$allocator@U?$pair@$$CBHPAUtagCGPARAM@@@std@@@3@$0A@@std@@@std@@U_Iterator_base0@2@@std@@QAE@PAU_Node@?$_Tree_nod@V?$_Tmap_traits@HPAUtagCGPARAM@@U?$less@H@std@@V?$allocator@U?$pair@$$CBHPAUtagCGPARAM@@@std@@@3@$0A@@std@@@1@PBV?$_Tree_val@V?$_Tmap_traits@HPAUtagCGPARAM@@U?$less@H@std@@V?$allocator@U?$pair@$$CBHPAUtagCGPARAM@@@std@@@3@$0A@@std@@@1@@Z 0053d870 f i CreateGroupParam.obj
 0002:0005f8e0       ??0?$_Tmap_traits@HPAUtagCGPARAM@@U?$less@H@std@@V?$allocator@U?$pair@$$CBHPAUtagCGPARAM@@@std@@@3@$0A@@std@@QAE@U?$less@H@1@@Z 0053d8e0 f i CreateGroupParam.obj
 0002:0005f920       ?_Compat@?$_Vector_const_iterator@V?$_Vector_val@UGUPID@@V?$allocator@UGUPID@@@std@@@std@@@std@@QBEXABV12@@Z 0053d920 f i CreateGroupParam.obj
 0002:0005f960       ??$assign@V?$_Vector_iterator@V?$_Vector_val@UGUPID@@V?$allocator@UGUPID@@@std@@@std@@@std@@@?$vector@UGUPID@@V?$allocator@UGUPID@@@std@@@std@@QAEXV?$_Vector_iterator@V?$_Vector_val@UGUPID@@V?$allocator@UGUPID@@@std@@@std@@@1@0@Z 0053d960 f i CreateGroupParam.obj
 0002:0005f9e0       ??$insert@U?$pair@$$CBHPAUtagCGPARAM@@@std@@@?$_Tree@V?$_Tmap_traits@HPAUtagCGPARAM@@U?$less@H@std@@V?$allocator@U?$pair@$$CBHPAUtagCGPARAM@@@std@@@3@$0A@@std@@@std@@QAE?AV?$_Tree_iterator@V?$_Tree_val@V?$_Tmap_traits@HPAUtagCGPARAM@@U?$less@H@std@@V?$allocator@U?$pair@$$CBHPAUtagCGPARAM@@@std@@@3@$0A@@std@@@std@@@1@V?$_Tree_const_iterator@V?$_Tree_val@V?$_Tmap_traits@HPAUtagCGPARAM@@U?$less@H@std@@V?$allocator@U?$pair@$$CBHPAUtagCGPARAM@@@std@@@3@$0A@@std@@@std@@@1@$$QAU?$pair@$$CBHPAUtagCGPARAM@@@1@@Z 0053d9e0 f i CreateGroupParam.obj
 0002:0005fa60       ??$addressof@U?$pair@$$CBHPAUtagCGPARAM@@@std@@@std@@YAPAU?$pair@$$CBHPAUtagCGPARAM@@@0@AAU10@@Z 0053da60 f i CreateGroupParam.obj
 0002:0005faa0       ??$_Dest_val@V?$allocator@U?$pair@$$CBHPAUtagCGPARAM@@@std@@@std@@U?$pair@$$CBHPAUtagCGPARAM@@@2@@std@@YAXAAV?$allocator@U?$pair@$$CBHPAUtagCGPARAM@@@std@@@0@PAU?$pair@$$CBHPAUtagCGPARAM@@@0@@Z 0053daa0 f i CreateGroupParam.obj
 0002:0005faf0       ??$_Move@PAUGUPID@@PAU1@@std@@YAPAUGUPID@@PAU1@00@Z 0053daf0 f i CreateGroupParam.obj
 0002:0005fb70       ??$_Kfn@$$CBHPAUtagCGPARAM@@@?$_Tmap_traits@HPAUtagCGPARAM@@U?$less@H@std@@V?$allocator@U?$pair@$$CBHPAUtagCGPARAM@@@std@@@3@$0A@@std@@SAABHABU?$pair@$$CBHPAUtagCGPARAM@@@1@@Z 0053db70 f i CreateGroupParam.obj
 0002:0005fbb0       ??$move@AAPAUtagCGPARAM@@@std@@YA$$QAPAUtagCGPARAM@@AAPAU1@@Z 0053dbb0 f i CreateGroupParam.obj
 0002:0005fbf0       ??$_Destroy_range@V?$allocator@UGUPID@@@std@@@std@@YAXPAUGUPID@@0AAV?$allocator@UGUPID@@@0@@Z 0053dbf0 f i CreateGroupParam.obj
 0002:0005fc70       ??$?0U?$pair@$$CBHPAUtagCGPARAM@@@std@@@?$allocator@U_Node@?$_Tree_nod@V?$_Tmap_traits@HPAUtagCGPARAM@@U?$less@H@std@@V?$allocator@U?$pair@$$CBHPAUtagCGPARAM@@@std@@@3@$0A@@std@@@std@@@std@@QAE@ABV?$allocator@U?$pair@$$CBHPAUtagCGPARAM@@@std@@@1@@Z 0053dc70 f i CreateGroupParam.obj
 0002:0005fcb0       ??$_Allocate@U_Node@?$_Tree_nod@V?$_Tmap_traits@HPAUtagCGPARAM@@U?$less@H@std@@V?$allocator@U?$pair@$$CBHPAUtagCGPARAM@@@std@@@3@$0A@@std@@@std@@@std@@YAPAU_Node@?$_Tree_nod@V?$_Tmap_traits@HPAUtagCGPARAM@@U?$less@H@std@@V?$allocator@U?$pair@$$CBHPAUtagCGPARAM@@@std@@@3@$0A@@std@@@0@IPAU120@@Z 0053dcb0 f i CreateGroupParam.obj
 0002:0005fd60       ?_Insert@?$_Tree@V?$_Tmap_traits@HPAUtagCGPARAM@@U?$less@H@std@@V?$allocator@U?$pair@$$CBHPAUtagCGPARAM@@@std@@@3@$0A@@std@@@std@@QAE?AV?$_Tree_iterator@V?$_Tree_val@V?$_Tmap_traits@HPAUtagCGPARAM@@U?$less@H@std@@V?$allocator@U?$pair@$$CBHPAUtagCGPARAM@@@std@@@3@$0A@@std@@@std@@@2@V?$_Tree_const_iterator@V?$_Tree_val@V?$_Tmap_traits@HPAUtagCGPARAM@@U?$less@H@std@@V?$allocator@U?$pair@$$CBHPAUtagCGPARAM@@@std@@@3@$0A@@std@@@std@@@2@PAU_Node@?$_Tree_nod@V?$_Tmap_traits@HPAUtagCGPARAM@@U?$less@H@std@@V?$allocator@U?$pair@$$CBHPAUtagCGPARAM@@@std@@@3@$0A@@std@@@2@@Z 0053dd60 f i CreateGroupParam.obj
 0002:00060570       ?destroy@?$allocator@U?$pair@$$CBHPAUtagCGPARAM@@@std@@@std@@QAEXPAU?$pair@$$CBHPAUtagCGPARAM@@@2@@Z 0053e570 f i CreateGroupParam.obj
 0002:000605d0       ?size@?$_Tree@V?$_Tmap_traits@HPAUtagCGPARAM@@U?$less@H@std@@V?$allocator@U?$pair@$$CBHPAUtagCGPARAM@@@std@@@3@$0A@@std@@@std@@QBEIXZ 0053e5d0 f i CreateGroupParam.obj
 0002:00060610       ?_Linsert@?$_Tree@V?$_Tmap_traits@HPAUtagCGPARAM@@U?$less@H@std@@V?$allocator@U?$pair@$$CBHPAUtagCGPARAM@@@std@@@3@$0A@@std@@@std@@QAE?AU?$pair@V?$_Tree_iterator@V?$_Tree_val@V?$_Tmap_traits@HPAUtagCGPARAM@@U?$less@H@std@@V?$allocator@U?$pair@$$CBHPAUtagCGPARAM@@@std@@@3@$0A@@std@@@std@@@std@@_N@2@PAU_Node@?$_Tree_nod@V?$_Tmap_traits@HPAUtagCGPARAM@@U?$less@H@std@@V?$allocator@U?$pair@$$CBHPAUtagCGPARAM@@@std@@@3@$0A@@std@@@2@_N@Z 0053e610 f i CreateGroupParam.obj
 0002:00060990       ?_Insert@?$_Tree@V?$_Tmap_traits@HPAUtagCGPARAM@@U?$less@H@std@@V?$allocator@U?$pair@$$CBHPAUtagCGPARAM@@@std@@@3@$0A@@std@@@std@@IAE?AV?$_Tree_iterator@V?$_Tree_val@V?$_Tmap_traits@HPAUtagCGPARAM@@U?$less@H@std@@V?$allocator@U?$pair@$$CBHPAUtagCGPARAM@@@std@@@3@$0A@@std@@@std@@@2@_NPAU_Node@?$_Tree_nod@V?$_Tmap_traits@HPAUtagCGPARAM@@U?$less@H@std@@V?$allocator@U?$pair@$$CBHPAUtagCGPARAM@@@std@@@3@$0A@@std@@@2@1@Z 0053e990 f i CreateGroupParam.obj
 0002:00060f10       ??0?$_Tree_const_iterator@V?$_Tree_val@V?$_Tmap_traits@HPAUtagCGPARAM@@U?$less@H@std@@V?$allocator@U?$pair@$$CBHPAUtagCGPARAM@@@std@@@3@$0A@@std@@@std@@@std@@QAE@XZ 0053ef10 f i CreateGroupParam.obj
 0002:00060f70       ??F?$_Tree_const_iterator@V?$_Tree_val@V?$_Tmap_traits@HPAUtagCGPARAM@@U?$less@H@std@@V?$allocator@U?$pair@$$CBHPAUtagCGPARAM@@@std@@@3@$0A@@std@@@std@@@std@@QAEAAV01@XZ 0053ef70 f i CreateGroupParam.obj
 0002:00060fd0       ?max_size@?$_Tree@V?$_Tmap_traits@HPAUtagCGPARAM@@U?$less@H@std@@V?$allocator@U?$pair@$$CBHPAUtagCGPARAM@@@std@@@3@$0A@@std@@@std@@QBEIXZ 0053efd0 f i CreateGroupParam.obj
 0002:00061030       ??F?$_Tree_iterator@V?$_Tree_val@V?$_Tmap_traits@HPAUtagCGPARAM@@U?$less@H@std@@V?$allocator@U?$pair@$$CBHPAUtagCGPARAM@@@std@@@3@$0A@@std@@@std@@@std@@QAEAAV01@XZ 0053f030 f i CreateGroupParam.obj
 0002:00061090       ??0?$_Tree_unchecked_const_iterator@V?$_Tree_val@V?$_Tmap_traits@HPAUtagCGPARAM@@U?$less@H@std@@V?$allocator@U?$pair@$$CBHPAUtagCGPARAM@@@std@@@3@$0A@@std@@@std@@U_Iterator_base0@2@@std@@QAE@XZ 0053f090 f i CreateGroupParam.obj
 0002:000610e0       ??F?$_Tree_unchecked_const_iterator@V?$_Tree_val@V?$_Tmap_traits@HPAUtagCGPARAM@@U?$less@H@std@@V?$allocator@U?$pair@$$CBHPAUtagCGPARAM@@@std@@@3@$0A@@std@@@std@@U_Iterator_base0@2@@std@@QAEAAV01@XZ 0053f0e0 f i CreateGroupParam.obj
 0002:00061230       ??0?$pair@V?$_Tree_iterator@V?$_Tree_val@V?$_Tmap_traits@HPAUtagCGPARAM@@U?$less@H@std@@V?$allocator@U?$pair@$$CBHPAUtagCGPARAM@@@std@@@3@$0A@@std@@@std@@@std@@_N@std@@QAE@$$QAV?$_Tree_iterator@V?$_Tree_val@V?$_Tmap_traits@HPAUtagCGPARAM@@U?$less@H@std@@V?$allocator@U?$pair@$$CBHPAUtagCGPARAM@@@std@@@3@$0A@@std@@@std@@@1@$$QA_N@Z 0053f230 f i CreateGroupParam.obj
 0002:000612b0       ?max_size@?$allocator@U?$pair@$$CBHPAUtagCGPARAM@@@std@@@std@@QBEIXZ 0053f2b0 f i CreateGroupParam.obj
 0002:00061320       ??0?$_Pair_base@V?$_Tree_iterator@V?$_Tree_val@V?$_Tmap_traits@HPAUtagCGPARAM@@U?$less@H@std@@V?$allocator@U?$pair@$$CBHPAUtagCGPARAM@@@std@@@3@$0A@@std@@@std@@@std@@_N@std@@QAE@$$QAV?$_Tree_iterator@V?$_Tree_val@V?$_Tmap_traits@HPAUtagCGPARAM@@U?$less@H@std@@V?$allocator@U?$pair@$$CBHPAUtagCGPARAM@@@std@@@3@$0A@@std@@@std@@@1@$$QA_N@Z 0053f320 f i CreateGroupParam.obj
 0002:000613a0       ??$_Iter_cat@V?$_Vector_iterator@V?$_Vector_val@UGUPID@@V?$allocator@UGUPID@@@std@@@std@@@std@@@std@@YA?AUrandom_access_iterator_tag@0@ABV?$_Vector_iterator@V?$_Vector_val@UGUPID@@V?$allocator@UGUPID@@@std@@@std@@@0@@Z 0053f3a0 f i CreateGroupParam.obj
 0002:00061420       ??$_Assign@V?$_Vector_iterator@V?$_Vector_val@UGUPID@@V?$allocator@UGUPID@@@std@@@std@@@std@@@?$vector@UGUPID@@V?$allocator@UGUPID@@@std@@@std@@QAEXV?$_Vector_iterator@V?$_Vector_val@UGUPID@@V?$allocator@UGUPID@@@std@@@std@@@1@0Uinput_iterator_tag@1@@Z 0053f420 f i CreateGroupParam.obj
 0002:00061500       ??$forward@U?$pair@$$CBHPAUtagCGPARAM@@@std@@@std@@YA$$QAU?$pair@$$CBHPAUtagCGPARAM@@@0@AAU10@@Z 0053f500 f i CreateGroupParam.obj
 0002:00061540       ??$_Buynode@U?$pair@$$CBHPAUtagCGPARAM@@@std@@@?$_Tree_val@V?$_Tmap_traits@HPAUtagCGPARAM@@U?$less@H@std@@V?$allocator@U?$pair@$$CBHPAUtagCGPARAM@@@std@@@3@$0A@@std@@@std@@QAEPAU_Node@?$_Tree_nod@V?$_Tmap_traits@HPAUtagCGPARAM@@U?$less@H@std@@V?$allocator@U?$pair@$$CBHPAUtagCGPARAM@@@std@@@3@$0A@@std@@@1@$$QAU?$pair@$$CBHPAUtagCGPARAM@@@1@@Z 0053f540 f i CreateGroupParam.obj
 0002:00061690       ??$_Ptr_cat@UGUPID@@U1@@std@@YA?AU_Nonscalar_ptr_iterator_tag@0@PAUGUPID@@0@Z 0053f690 f i CreateGroupParam.obj
 0002:00061700       ??$_Move@PAUGUPID@@PAU1@@std@@YAPAUGUPID@@PAU1@00U_Nonscalar_ptr_iterator_tag@0@@Z 0053f700 f i CreateGroupParam.obj
 0002:00061790       ??$_Destroy_range@V?$allocator@UGUPID@@@std@@@std@@YAXPAUGUPID@@0AAV?$allocator@UGUPID@@@0@U_Nonscalar_ptr_iterator_tag@0@@Z 0053f790 f i CreateGroupParam.obj
 0002:00061800       ??$_Destroy@U?$pair@$$CBHPAUtagCGPARAM@@@std@@@std@@YAXPAU?$pair@$$CBHPAUtagCGPARAM@@@0@@Z 0053f800 f i CreateGroupParam.obj
 0002:00061830       ??$?0AAV?$_Tree_iterator@V?$_Tree_val@V?$_Tmap_traits@HPAUtagCGPARAM@@U?$less@H@std@@V?$allocator@U?$pair@$$CBHPAUtagCGPARAM@@@std@@@3@$0A@@std@@@std@@@std@@_N@?$pair@V?$_Tree_iterator@V?$_Tree_val@V?$_Tmap_traits@HPAUtagCGPARAM@@U?$less@H@std@@V?$allocator@U?$pair@$$CBHPAUtagCGPARAM@@@std@@@3@$0A@@std@@@std@@@std@@_N@std@@QAE@AAV?$_Tree_iterator@V?$_Tree_val@V?$_Tmap_traits@HPAUtagCGPARAM@@U?$less@H@std@@V?$allocator@U?$pair@$$CBHPAUtagCGPARAM@@@std@@@3@$0A@@std@@@std@@@1@$$QA_N@Z 0053f830 f i CreateGroupParam.obj
 0002:000618b0       ??$move@AAV?$_Tree_iterator@V?$_Tree_val@V?$_Tmap_traits@HPAUtagCGPARAM@@U?$less@H@std@@V?$allocator@U?$pair@$$CBHPAUtagCGPARAM@@@std@@@3@$0A@@std@@@std@@@std@@@std@@YA$$QAV?$_Tree_iterator@V?$_Tree_val@V?$_Tmap_traits@HPAUtagCGPARAM@@U?$less@H@std@@V?$allocator@U?$pair@$$CBHPAUtagCGPARAM@@@std@@@3@$0A@@std@@@std@@@0@AAV10@@Z 0053f8b0 f i CreateGroupParam.obj
 0002:000618f0       ?_Buynode@?$_Tree_val@V?$_Tmap_traits@HPAUtagCGPARAM@@U?$less@H@std@@V?$allocator@U?$pair@$$CBHPAUtagCGPARAM@@@std@@@3@$0A@@std@@@std@@QAEPAU_Node@?$_Tree_nod@V?$_Tmap_traits@HPAUtagCGPARAM@@U?$less@H@std@@V?$allocator@U?$pair@$$CBHPAUtagCGPARAM@@@std@@@3@$0A@@std@@@2@XZ 0053f8f0 f i CreateGroupParam.obj
 0002:000619c0       ??$insert@V?$_Vector_iterator@V?$_Vector_val@UGUPID@@V?$allocator@UGUPID@@@std@@@std@@@std@@@?$vector@UGUPID@@V?$allocator@UGUPID@@@std@@@std@@QAEXV?$_Vector_const_iterator@V?$_Vector_val@UGUPID@@V?$allocator@UGUPID@@@std@@@std@@@1@V?$_Vector_iterator@V?$_Vector_val@UGUPID@@V?$allocator@UGUPID@@@std@@@std@@@1@1@Z 0053f9c0 f i CreateGroupParam.obj
 0002:00061a50       ??$_Cons_val@V?$allocator@U?$pair@$$CBHPAUtagCGPARAM@@@std@@@std@@U?$pair@$$CBHPAUtagCGPARAM@@@2@U32@@std@@YAXAAV?$allocator@U?$pair@$$CBHPAUtagCGPARAM@@@std@@@0@PAU?$pair@$$CBHPAUtagCGPARAM@@@0@$$QAU20@@Z 0053fa50 f i CreateGroupParam.obj
 0002:00061ab0       ??$move@AAUGUPID@@@std@@YA$$QAUGUPID@@AAU1@@Z 0053fab0 f i CreateGroupParam.obj
 0002:00061af0       ??$_Dest_val@V?$allocator@UGUPID@@@std@@UGUPID@@@std@@YAXAAV?$allocator@UGUPID@@@0@PAUGUPID@@@Z 0053faf0 f i CreateGroupParam.obj
 0002:00061b40       ??$forward@AAV?$_Tree_iterator@V?$_Tree_val@V?$_Tmap_traits@HPAUtagCGPARAM@@U?$less@H@std@@V?$allocator@U?$pair@$$CBHPAUtagCGPARAM@@@std@@@3@$0A@@std@@@std@@@std@@@std@@YAAAV?$_Tree_iterator@V?$_Tree_val@V?$_Tmap_traits@HPAUtagCGPARAM@@U?$less@H@std@@V?$allocator@U?$pair@$$CBHPAUtagCGPARAM@@@std@@@3@$0A@@std@@@std@@@0@AAV10@@Z 0053fb40 f i CreateGroupParam.obj
 0002:00061b80       ??$?0AAV?$_Tree_iterator@V?$_Tree_val@V?$_Tmap_traits@HPAUtagCGPARAM@@U?$less@H@std@@V?$allocator@U?$pair@$$CBHPAUtagCGPARAM@@@std@@@3@$0A@@std@@@std@@@std@@_N@?$_Pair_base@V?$_Tree_iterator@V?$_Tree_val@V?$_Tmap_traits@HPAUtagCGPARAM@@U?$less@H@std@@V?$allocator@U?$pair@$$CBHPAUtagCGPARAM@@@std@@@3@$0A@@std@@@std@@@std@@_N@std@@QAE@AAV?$_Tree_iterator@V?$_Tree_val@V?$_Tmap_traits@HPAUtagCGPARAM@@U?$less@H@std@@V?$allocator@U?$pair@$$CBHPAUtagCGPARAM@@@std@@@3@$0A@@std@@@std@@@1@$$QA_N@Z 0053fb80 f i CreateGroupParam.obj
 0002:00061c00       ?destroy@?$allocator@UGUPID@@@std@@QAEXPAUGUPID@@@Z 0053fc00 f i CreateGroupParam.obj
 0002:00061c60       ?construct@?$allocator@U?$pair@$$CBHPAUtagCGPARAM@@@std@@@std@@QAEXPAU?$pair@$$CBHPAUtagCGPARAM@@@2@$$QAU32@@Z 0053fc60 f i CreateGroupParam.obj
 0002:00061d60       ??$_Insert@V?$_Vector_iterator@V?$_Vector_val@UGUPID@@V?$allocator@UGUPID@@@std@@@std@@@std@@@?$vector@UGUPID@@V?$allocator@UGUPID@@@std@@@std@@QAEXV?$_Vector_const_iterator@V?$_Vector_val@UGUPID@@V?$allocator@UGUPID@@@std@@@std@@@1@V?$_Vector_iterator@V?$_Vector_val@UGUPID@@V?$allocator@UGUPID@@@std@@@std@@@1@1Uforward_iterator_tag@1@@Z 0053fd60 f i CreateGroupParam.obj
 0002:000620d0       ??$_Destroy@UGUPID@@@std@@YAXPAUGUPID@@@Z 005400d0 f i CreateGroupParam.obj
 0002:00062100       ??$?0$$CBHPAUtagCGPARAM@@@?$pair@$$CBHPAUtagCGPARAM@@@std@@QAE@$$QAU01@@Z 00540100 f i CreateGroupParam.obj
 0002:00062180       ?capacity@?$vector@UGUPID@@V?$allocator@UGUPID@@@std@@@std@@QBEIXZ 00540180 f i CreateGroupParam.obj
 0002:000621d0       ?size@?$vector@UGUPID@@V?$allocator@UGUPID@@@std@@@std@@QBEIXZ 005401d0 f i CreateGroupParam.obj
 0002:00062220       ?max_size@?$vector@UGUPID@@V?$allocator@UGUPID@@@std@@@std@@QBEIXZ 00540220 f i CreateGroupParam.obj
 0002:00062280       ?_Grow_to@?$vector@UGUPID@@V?$allocator@UGUPID@@@std@@@std@@IBEII@Z 00540280 f i CreateGroupParam.obj
 0002:00062330       ?_Xlen@?$vector@UGUPID@@V?$allocator@UGUPID@@@std@@@std@@IBEXXZ 00540330 f i CreateGroupParam.obj
 0002:00062390       ?_Orphan_range@?$vector@UGUPID@@V?$allocator@UGUPID@@@std@@@std@@IBEXPAUGUPID@@0@Z 00540390 f i CreateGroupParam.obj
 0002:000623d0       ?allocate@?$allocator@UGUPID@@@std@@QAEPAUGUPID@@I@Z 005403d0 f i CreateGroupParam.obj
 0002:00062430       ??0?$_Pair_base@$$CBHPAUtagCGPARAM@@@std@@QAE@$$QBH$$QAPAUtagCGPARAM@@@Z 00540430 f i CreateGroupParam.obj
 0002:000624b0       ?max_size@?$allocator@UGUPID@@@std@@QBEIXZ 005404b0 f i CreateGroupParam.obj
 0002:00062520       ??$_Distance@V?$_Vector_iterator@V?$_Vector_val@UGUPID@@V?$allocator@UGUPID@@@std@@@std@@@std@@I@std@@YAXV?$_Vector_iterator@V?$_Vector_val@UGUPID@@V?$allocator@UGUPID@@@std@@@std@@@0@0AAI@Z 00540520 f i CreateGroupParam.obj
 0002:000625a0       ??$_Umove@PAUGUPID@@@?$vector@UGUPID@@V?$allocator@UGUPID@@@std@@@std@@IAEPAUGUPID@@PAU2@00@Z 005405a0 f i CreateGroupParam.obj
 0002:00062610       ??$_Ucopy@V?$_Vector_iterator@V?$_Vector_val@UGUPID@@V?$allocator@UGUPID@@@std@@@std@@@std@@@?$vector@UGUPID@@V?$allocator@UGUPID@@@std@@@std@@IAEPAUGUPID@@V?$_Vector_iterator@V?$_Vector_val@UGUPID@@V?$allocator@UGUPID@@@std@@@std@@@1@0PAU2@@Z 00540610 f i CreateGroupParam.obj
 0002:00062680       ??$rotate@PAUGUPID@@@std@@YAPAUGUPID@@PAU1@00@Z 00540680 f i CreateGroupParam.obj
 0002:00062760       ??$forward@$$CBH@std@@YA$$QBHABH@Z 00540760 f i CreateGroupParam.obj
 0002:000627a0       ??$forward@PAUtagCGPARAM@@@std@@YA$$QAPAUtagCGPARAM@@AAPAU1@@Z 005407a0 f i CreateGroupParam.obj
 0002:000627e0       ??$_Allocate@UGUPID@@@std@@YAPAUGUPID@@IPAU1@@Z 005407e0 f i CreateGroupParam.obj
 0002:00062890       ??$move@ABH@std@@YA$$QBHABH@Z 00540890 f i CreateGroupParam.obj
 0002:000628d0       ??$_Distance2@V?$_Vector_iterator@V?$_Vector_val@UGUPID@@V?$allocator@UGUPID@@@std@@@std@@@std@@I@std@@YAXV?$_Vector_iterator@V?$_Vector_val@UGUPID@@V?$allocator@UGUPID@@@std@@@std@@@0@0AAIUrandom_access_iterator_tag@0@@Z 005408d0 f i CreateGroupParam.obj
 0002:00062930       ??$_Uninitialized_move@PAUGUPID@@PAU1@V?$allocator@UGUPID@@@std@@@std@@YAPAUGUPID@@PAU1@00AAV?$allocator@UGUPID@@@0@@Z 00540930 f i CreateGroupParam.obj
 0002:000629d0       ??$_Uninitialized_copy@V?$_Vector_iterator@V?$_Vector_val@UGUPID@@V?$allocator@UGUPID@@@std@@@std@@@std@@PAUGUPID@@V?$allocator@UGUPID@@@2@@std@@YAPAUGUPID@@V?$_Vector_iterator@V?$_Vector_val@UGUPID@@V?$allocator@UGUPID@@@std@@@std@@@0@0PAU1@AAV?$allocator@UGUPID@@@0@@Z 005409d0 f i CreateGroupParam.obj
 0002:00062a60       ??$_Unchecked@PAUGUPID@@@std@@YAPAUGUPID@@PAU1@@Z 00540a60 f i CreateGroupParam.obj
 0002:00062aa0       ??$_Iter_cat@PAUGUPID@@@std@@YA?AUrandom_access_iterator_tag@0@ABQAUGUPID@@@Z 00540aa0 f i CreateGroupParam.obj
 0002:00062b20       ??$_Rotate@PAUGUPID@@@std@@YAXPAUGUPID@@00Urandom_access_iterator_tag@0@@Z 00540b20 f i CreateGroupParam.obj
 0002:00062ba0       ??$distance@PAUGUPID@@@std@@YAHPAUGUPID@@0@Z 00540ba0 f i CreateGroupParam.obj
 0002:00062c60       ??$advance@PAUGUPID@@H@std@@YAXAAPAUGUPID@@H@Z 00540c60 f i CreateGroupParam.obj
 0002:00062cd0       ??G?$_Vector_iterator@V?$_Vector_val@UGUPID@@V?$allocator@UGUPID@@@std@@@std@@@std@@QBEHABV?$_Vector_const_iterator@V?$_Vector_val@UGUPID@@V?$allocator@UGUPID@@@std@@@std@@@1@@Z 00540cd0 f i CreateGroupParam.obj
 0002:00062d30       ??G?$_Vector_const_iterator@V?$_Vector_val@UGUPID@@V?$allocator@UGUPID@@@std@@@std@@@std@@QBEHABV01@@Z 00540d30 f i CreateGroupParam.obj
 0002:00062da0       ??$_Val_type@PAUGUPID@@@std@@YAPAUGUPID@@PAU1@@Z 00540da0 f i CreateGroupParam.obj
 0002:00062dd0       ??$_Uninit_move@PAUGUPID@@PAU1@V?$allocator@UGUPID@@@std@@U1@@std@@YAPAUGUPID@@PAU1@00AAV?$allocator@UGUPID@@@0@0U_Nonscalar_ptr_iterator_tag@0@@Z 00540dd0 f i CreateGroupParam.obj
 0002:00062ef0       ??$_Ptr_cat@V?$_Vector_iterator@V?$_Vector_val@UGUPID@@V?$allocator@UGUPID@@@std@@@std@@@std@@PAUGUPID@@@std@@YA?AU_Nonscalar_ptr_iterator_tag@0@AAV?$_Vector_iterator@V?$_Vector_val@UGUPID@@V?$allocator@UGUPID@@@std@@@std@@@0@AAPAUGUPID@@@Z 00540ef0 f i CreateGroupParam.obj
 0002:00062f60       ??$_Uninit_copy@V?$_Vector_iterator@V?$_Vector_val@UGUPID@@V?$allocator@UGUPID@@@std@@@std@@@std@@PAUGUPID@@V?$allocator@UGUPID@@@2@@std@@YAPAUGUPID@@V?$_Vector_iterator@V?$_Vector_val@UGUPID@@V?$allocator@UGUPID@@@std@@@std@@@0@0PAU1@AAV?$allocator@UGUPID@@@0@U_Nonscalar_ptr_iterator_tag@0@@Z 00540f60 f i CreateGroupParam.obj
 0002:000630b0       ??$_Dist_type@PAUGUPID@@@std@@YAPAHPAUGUPID@@@Z 005410b0 f i CreateGroupParam.obj
 0002:000630e0       ??$_Rotate@PAUGUPID@@HU1@@std@@YAXPAUGUPID@@00PAH0@Z 005410e0 f i CreateGroupParam.obj
 0002:00063290       ??$_Distance2@PAUGUPID@@H@std@@YAXPAUGUPID@@0AAHUrandom_access_iterator_tag@0@@Z 00541290 f i CreateGroupParam.obj
 0002:000632e0       ??$_Advance@PAUGUPID@@H@std@@YAXAAPAUGUPID@@HUrandom_access_iterator_tag@0@@Z 005412e0 f i CreateGroupParam.obj
 0002:00063330       ??D?$_Vector_iterator@V?$_Vector_val@UGUPID@@V?$allocator@UGUPID@@@std@@@std@@@std@@QBEAAUGUPID@@XZ 00541330 f i CreateGroupParam.obj
 0002:00063380       ??E?$_Vector_iterator@V?$_Vector_val@UGUPID@@V?$allocator@UGUPID@@@std@@@std@@@std@@QAEAAV01@XZ 00541380 f i CreateGroupParam.obj
 0002:000633e0       ??D?$_Vector_const_iterator@V?$_Vector_val@UGUPID@@V?$allocator@UGUPID@@@std@@@std@@@std@@QBEABUGUPID@@XZ 005413e0 f i CreateGroupParam.obj
 0002:00063420       ??E?$_Vector_const_iterator@V?$_Vector_val@UGUPID@@V?$allocator@UGUPID@@@std@@@std@@@std@@QAEAAV01@XZ 00541420 f i CreateGroupParam.obj
 0002:00063470       ??$_Cons_val@V?$allocator@UGUPID@@@std@@UGUPID@@U3@@std@@YAXAAV?$allocator@UGUPID@@@0@PAUGUPID@@$$QAU2@@Z 00541470 f i CreateGroupParam.obj
 0002:000634d0       ??$_Cons_val@V?$allocator@UGUPID@@@std@@UGUPID@@AAU3@@std@@YAXAAV?$allocator@UGUPID@@@0@PAUGUPID@@AAU2@@Z 005414d0 f i CreateGroupParam.obj
 0002:00063530       ??$iter_swap@PAUGUPID@@PAU1@@std@@YAXPAUGUPID@@0@Z 00541530 f i CreateGroupParam.obj
 0002:00063590       ?construct@?$allocator@UGUPID@@@std@@QAEXPAUGUPID@@$$QAU3@@Z 00541590 f i CreateGroupParam.obj
 0002:00063690       ??$forward@UGUPID@@@std@@YA$$QAUGUPID@@AAU1@@Z 00541690 f i CreateGroupParam.obj
 0002:000636d0       ??$forward@AAUGUPID@@@std@@YAAAUGUPID@@AAU1@@Z 005416d0 f i CreateGroupParam.obj
 0002:00063710       ??$construct@AAUGUPID@@@?$allocator@UGUPID@@@std@@QAEXPAUGUPID@@AAU2@@Z 00541710 f i CreateGroupParam.obj
 0002:00063810       ??$swap@UGUPID@@@std@@YAXAAUGUPID@@0@Z 00541810 f i CreateGroupParam.obj
 0002:00063900       ??$_Move@AAUGUPID@@@std@@YA$$QAUGUPID@@AAU1@@Z 00541900 f i CreateGroupParam.obj
 0002:00063940       ?__nstrcpy@@YAXPADPBDJ@Z   00541940 f i CreateGroupParam.obj
 0002:000639d0       ?InitReqBufHead@@YAHAAUIMREQBUFFER@@JJ@Z 005419d0 f   Func.obj
 0002:00063a30       ?GetBuildNo@@YAGPADG@Z     00541a30 f   Func.obj
 0002:00063de0       ?GetNextMsg@@YA_NV?$_Vector_iterator@V?$_Vector_val@UFriendListItemInfo@DuiLib@@V?$allocator@UFriendListItemInfo@DuiLib@@@std@@@std@@@std@@PAURECEIVED_MSG@@@Z 00541de0 f   Func.obj
 0002:00063ee0       ?GetNextMsg_More@@YA_NPAV?$vector@URECEIVED_MSG@@V?$allocator@URECEIVED_MSG@@@std@@@std@@PAURECEIVED_MSG@@@Z 00541ee0 f   Func.obj
 0002:00063fa0       ?UpdateVtClientInfo@@YAXV?$CStringT@DV?$StrTraitMFC_DLL@DV?$ChTraitsCRT@D@ATL@@@@@ATL@@H@Z 00541fa0 f   Func.obj
 0002:000641b0       ?UpdateGroupFlag@@YAXH@Z   005421b0 f   Func.obj
 0002:00064240       ?SetGroupFlag@@YAXH_N@Z    00542240 f   Func.obj
 0002:000642c0       ?GetGroupIDByName@@YAHV?$CStringT@DV?$StrTraitMFC_DLL@DV?$ChTraitsCRT@D@ATL@@@@@ATL@@@Z 005422c0 f   Func.obj
 0002:000643f0       ?GetNowTimeHourAndMin@@YAHXZ 005423f0 f   Func.obj
 0002:000644c0       ?GetGroupClientNums@@YAHH@Z 005424c0 f   Func.obj
 0002:000645a0       ?GetRoomClientOnlineNums@@YAHXZ 005425a0 f   Func.obj
 0002:00064640       ?GetGroupClientOnlineNums@@YAHH@Z 00542640 f   Func.obj
 0002:00064710       ?IsAllGroupLoad@@YAHXZ     00542710 f   Func.obj
 0002:000647a0       ?IsInvtRoomClient@@YAHV?$CStringT@DV?$StrTraitMFC_DLL@DV?$ChTraitsCRT@D@ATL@@@@@ATL@@@Z 005427a0 f   Func.obj
 0002:00064990       ?ConvertMsgContent@@YA?AV?$CStringT@DV?$StrTraitMFC_DLL@DV?$ChTraitsCRT@D@ATL@@@@@ATL@@PBD@Z 00542990 f   Func.obj
 0002:00064cc0       ?ConvertMsgToChiefMsg@@YA?AV?$CStringT@DV?$StrTraitMFC_DLL@DV?$ChTraitsCRT@D@ATL@@@@@ATL@@EPBD@Z 00542cc0 f   Func.obj
 0002:00065450       ?ConvertIdToNoPhonrNum@@YA?AV?$CStringT@DV?$StrTraitMFC_DLL@DV?$ChTraitsCRT@D@ATL@@@@@ATL@@V12@@Z 00543450 f   Func.obj
 0002:00065770       ?CreateGUID@@YA_NPAD@Z     00543770 f   Func.obj
 0002:00065840       ?MakeGuid@@YA?AV?$CStringT@DV?$StrTraitMFC_DLL@DV?$ChTraitsCRT@D@ATL@@@@@ATL@@PAD@Z 00543840 f   Func.obj
 0002:00065a30       ?ConvertTimeToLong@@YAX_JAAJ1@Z 00543a30 f   Func.obj
 0002:00065b50       ?ConvertTimeToLong2@@YAXHHAAJ@Z 00543b50 f   Func.obj
 0002:00065fe0       ?SafeStrcpy@@YAPADPADPBDG@Z 00543fe0 f   Func.obj
 0002:00066070       ?InitSQLITE@@YAXXZ         00544070 f   Func.obj
 0002:000660e0       ?LoadConfig@@YAXXZ         005440e0 f   Func.obj
 0002:00066a30       __tcsstr                   00544a30 f i Func.obj
 0002:00066a90       ?LoginSuc_Ex@@YAXXZ        00544a90 f   Func.obj
 0002:00066d10       ?LoadUserConfig@@YAXXZ     00544d10 f   Func.obj
 0002:00067120       ?SaveUserConfig@@YAXXZ     00545120 f   Func.obj
 0002:000674f0       ?PlaySoundThread@@YAIPAX@Z 005454f0 f   Func.obj
 0002:00067560       ?WriteUserLog@@YAXPBDZZ    00545560 f   Func.obj
 0002:00067810       ?WriteUserLog_Ex@@YAXPBDZZ 00545810 f   Func.obj
 0002:00067a60       ?TestFileExist@@YA_NV?$CStringT@DV?$StrTraitMFC_DLL@DV?$ChTraitsCRT@D@ATL@@@@@ATL@@@Z 00545a60 f   Func.obj
 0002:00067be0       ?IntToStr@@YA?AV?$CStringT@DV?$StrTraitMFC_DLL@DV?$ChTraitsCRT@D@ATL@@@@@ATL@@H@Z 00545be0 f   Func.obj
 0002:00067d70       ?MD5StringTo32@@YAXPAD0@Z  00545d70 f   Func.obj
 0002:00067fd0       ?TestJson@@YAXXZ           00545fd0 f   Func.obj
 0002:00068490       ?SafeSprintf@@YAHPADJPBDZZ 00546490 f i Func.obj
 0002:00068610       ?InsertVtUser@@YAHAAV?$vector@UGUSER_INFO@@V?$allocator@UGUSER_INFO@@@std@@@std@@UGUSER_INFO@@@Z 00546610 f   Func.obj
 0002:00068770       ?DeleteVtUser@@YAHAAV?$vector@UGUSER_INFO@@V?$allocator@UGUSER_INFO@@@std@@@std@@UGUSER_INFO@@@Z 00546770 f   Func.obj
 0002:000688e0       ?UTF8Convert@@YA?AV?$CStringT@DV?$StrTraitMFC_DLL@DV?$ChTraitsCRT@D@ATL@@@@@ATL@@AAV12@HH@Z 005468e0 f   Func.obj
 0002:00068bf0       ?Base64_Encode@@YAJPAEJ0JH@Z 00546bf0 f   Func.obj
 0002:00069160       ?CreatePackage@@YAPAVCClientPackage@@G@Z 00547160 f   Func.obj
 0002:000692b0       ?CaculateAshValue@@YAHAAH00@Z 005472b0 f   Func.obj
 0002:00069320       ?CreateGrayPngFromColorPng@@YAHPBD0@Z 00547320 f   Func.obj
 0002:000699a0       ?AtlA2WHelper@@YGPA_WPA_WPBDHI@Z 005479a0 f i Func.obj
 0002:00069b10       ?GDIPlus_CombineImage@@YAHPB_WPA_W11@Z 00547b10 f   Func.obj
 0002:00069da0       ?SetPictureAlpha@@YAXPBD0M@Z 00547da0 f   Func.obj
 0002:0006a6a0       ??_GGraphics@Gdiplus@@QAEPAXI@Z 005486a0 f i Func.obj
 0002:0006a710       ?GetEncoderClsid@@YA_NPB_WPAU_GUID@@@Z 00548710 f   Func.obj
 0002:0006a900       ?CompressImagePixel@@YA_NPB_W0IIPA_W@Z 00548900 f   Func.obj
 0002:0006ae90       ?CompressImageQuality@@YA_NPB_W0K@Z 00548e90 f   Func.obj
 0002:0006b140       ?HandleImage@@YA_NPBD0@Z   00549140 f   Func.obj
 0002:0006b8c0       ?HandleHeadImage@@YA_NPBD00@Z 005498c0 f   Func.obj
 0002:0006bdd0       ?HandleHeadImage2@@YA_NPBD00@Z 00549dd0 f   Func.obj
 0002:0006c220       ?HandleHeadImage3@@YA_NPBD00@Z 0054a220 f   Func.obj
 0002:0006c4d0       ?HrToMessage@@YA?AV?$CStringT@DV?$StrTraitMFC_DLL@DV?$ChTraitsCRT@D@ATL@@@@@ATL@@J@Z 0054a4d0 f   Func.obj
 0002:0006c690       ?IsHasRights@@YAHH@Z       0054a690 f   Func.obj
 0002:0006c820       ?GetCurrentDate@@YAXAAV?$CStringT@DV?$StrTraitMFC_DLL@DV?$ChTraitsCRT@D@ATL@@@@@ATL@@00@Z 0054a820 f   Func.obj
 0002:0006cb10       ?SortByName@@YAHABUROOMANALYS_INFO@@0@Z 0054ab10 f   Func.obj
 0002:0006cb80       ?SortByNameAndOnline@@YAHABUROOMANALYS_INFO@@0@Z 0054ab80 f   Func.obj
 0002:0006cc40       ?SortByNameAndOnlineClient@@YAHABUUSER_ROOMCLIENT_INFO@@0@Z 0054ac40 f   Func.obj
 0002:0006cd00       ?FindClientInRoom@@YAPAUUSER_ROOMCLIENT_INFO@@V?$CStringT@DV?$StrTraitMFC_DLL@DV?$ChTraitsCRT@D@ATL@@@@@ATL@@@Z 0054ad00 f   Func.obj
 0002:0006cef0       ?FindAnalysInRoom@@YAXHAAUALLCLIENT_ROOM_INFO@@@Z 0054aef0 f   Func.obj
 0002:0006d040       ?SetClientOnLine@@YAXV?$CStringT@DV?$StrTraitMFC_DLL@DV?$ChTraitsCRT@D@ATL@@@@@ATL@@_N@Z 0054b040 f   Func.obj
 0002:0006d270       ?WhitchRoomForAnalys@@YAHV?$map@HUALLCLIENT_ROOM_INFO@@U?$less@H@std@@V?$allocator@U?$pair@$$CBHUALLCLIENT_ROOM_INFO@@@std@@@3@@std@@V?$CStringT@DV?$StrTraitMFC_DLL@DV?$ChTraitsCRT@D@ATL@@@@@ATL@@@Z 0054b270 f   Func.obj
 0002:0006d550       ??1?$map@HUALLCLIENT_ROOM_INFO@@U?$less@H@std@@V?$allocator@U?$pair@$$CBHUALLCLIENT_ROOM_INFO@@@std@@@3@@std@@QAE@XZ 0054b550 f i Func.obj
 0002:0006d5a0       ?GetClientInfoInGroup@@YAXPAVNode@DuiLib@@AAV?$vector@UUSER_ROOMCLIENT_INFO@@V?$allocator@UUSER_ROOMCLIENT_INFO@@@std@@@std@@1@Z 0054b5a0 f   Func.obj
 0002:0006d6e0       ?_EncodeURL@@YA?AV?$basic_string@DU?$char_traits@D@std@@V?$allocator@D@2@@std@@PAD@Z 0054b6e0 f   Func.obj
 0002:0006dd90       ?astr_ustr@@YAHPBDPA_W@Z   0054bd90 f   Func.obj
 0002:0006ded0       ?begin@?$vector@UUSER_ROOMCLIENT_INFO@@V?$allocator@UUSER_ROOMCLIENT_INFO@@@std@@@std@@QAE?AV?$_Vector_iterator@V?$_Vector_val@UUSER_ROOMCLIENT_INFO@@V?$allocator@UUSER_ROOMCLIENT_INFO@@@std@@@std@@@2@XZ 0054bed0 f i Func.obj
 0002:0006df40       ?end@?$vector@UUSER_ROOMCLIENT_INFO@@V?$allocator@UUSER_ROOMCLIENT_INFO@@@std@@@std@@QAE?AV?$_Vector_iterator@V?$_Vector_val@UUSER_ROOMCLIENT_INFO@@V?$allocator@UUSER_ROOMCLIENT_INFO@@@std@@@std@@@2@XZ 0054bf40 f i Func.obj
 0002:0006dfb0       ?size@?$vector@UUSER_ROOMCLIENT_INFO@@V?$allocator@UUSER_ROOMCLIENT_INFO@@@std@@@std@@QBEIXZ 0054bfb0 f i Func.obj
 0002:0006e000       ??A?$vector@UUSER_ROOMCLIENT_INFO@@V?$allocator@UUSER_ROOMCLIENT_INFO@@@std@@@std@@QAEAAUUSER_ROOMCLIENT_INFO@@I@Z 0054c000 f i Func.obj
 0002:0006e050       ?push_back@?$vector@UUSER_ROOMCLIENT_INFO@@V?$allocator@UUSER_ROOMCLIENT_INFO@@@std@@@std@@QAEXABUUSER_ROOMCLIENT_INFO@@@Z 0054c050 f i Func.obj
 0002:0006e1e0       ??A?$map@HHU?$less@H@std@@V?$allocator@U?$pair@$$CBHH@std@@@2@@std@@QAEAAHABH@Z 0054c1e0 f i Func.obj
 0002:0006e330       ??C?$_Vector_iterator@V?$_Vector_val@UFriendListItemInfo@DuiLib@@V?$allocator@UFriendListItemInfo@DuiLib@@@std@@@std@@@std@@QBEPAUFriendListItemInfo@DuiLib@@XZ 0054c330 f i Func.obj
 0002:0006e380       ??1?$_Tree@V?$_Tmap_traits@HUALLCLIENT_ROOM_INFO@@U?$less@H@std@@V?$allocator@U?$pair@$$CBHUALLCLIENT_ROOM_INFO@@@std@@@3@$0A@@std@@@std@@QAE@XZ 0054c380 f i Func.obj
 0002:0006e420       ?begin@?$_Tree@V?$_Tmap_traits@HUALLCLIENT_ROOM_INFO@@U?$less@H@std@@V?$allocator@U?$pair@$$CBHUALLCLIENT_ROOM_INFO@@@std@@@3@$0A@@std@@@std@@QAE?AV?$_Tree_iterator@V?$_Tree_val@V?$_Tmap_traits@HUALLCLIENT_ROOM_INFO@@U?$less@H@std@@V?$allocator@U?$pair@$$CBHUALLCLIENT_ROOM_INFO@@@std@@@3@$0A@@std@@@std@@@2@XZ 0054c420 f i Func.obj
 0002:0006e490       ?end@?$_Tree@V?$_Tmap_traits@HUALLCLIENT_ROOM_INFO@@U?$less@H@std@@V?$allocator@U?$pair@$$CBHUALLCLIENT_ROOM_INFO@@@std@@@3@$0A@@std@@@std@@QAE?AV?$_Tree_iterator@V?$_Tree_val@V?$_Tmap_traits@HUALLCLIENT_ROOM_INFO@@U?$less@H@std@@V?$allocator@U?$pair@$$CBHUALLCLIENT_ROOM_INFO@@@std@@@3@$0A@@std@@@std@@@2@XZ 0054c490 f i Func.obj
 0002:0006e500       ?begin@?$vector@URECEIVED_MSG@@V?$allocator@URECEIVED_MSG@@@std@@@std@@QAE?AV?$_Vector_iterator@V?$_Vector_val@URECEIVED_MSG@@V?$allocator@URECEIVED_MSG@@@std@@@std@@@2@XZ 0054c500 f i Func.obj
 0002:0006e570       ?size@?$vector@URECEIVED_MSG@@V?$allocator@URECEIVED_MSG@@@std@@@std@@QBEIXZ 0054c570 f i Func.obj
 0002:0006e5c0       ?front@?$vector@URECEIVED_MSG@@V?$allocator@URECEIVED_MSG@@@std@@@std@@QAEAAURECEIVED_MSG@@XZ 0054c5c0 f i Func.obj
 0002:0006e620       ?erase@?$vector@URECEIVED_MSG@@V?$allocator@URECEIVED_MSG@@@std@@@std@@QAE?AV?$_Vector_iterator@V?$_Vector_val@URECEIVED_MSG@@V?$allocator@URECEIVED_MSG@@@std@@@std@@@2@V?$_Vector_const_iterator@V?$_Vector_val@URECEIVED_MSG@@V?$allocator@URECEIVED_MSG@@@std@@@std@@@2@@Z 0054c620 f i Func.obj
 0002:0006e6e0       ?begin@?$vector@UGUSER_INFO@@V?$allocator@UGUSER_INFO@@@std@@@std@@QAE?AV?$_Vector_iterator@V?$_Vector_val@UGUSER_INFO@@V?$allocator@UGUSER_INFO@@@std@@@std@@@2@XZ 0054c6e0 f i Func.obj
 0002:0006e750       ?end@?$vector@UGUSER_INFO@@V?$allocator@UGUSER_INFO@@@std@@@std@@QAE?AV?$_Vector_iterator@V?$_Vector_val@UGUSER_INFO@@V?$allocator@UGUSER_INFO@@@std@@@std@@@2@XZ 0054c750 f i Func.obj
 0002:0006e7c0       ?push_back@?$vector@UGUSER_INFO@@V?$allocator@UGUSER_INFO@@@std@@@std@@QAEXABUGUSER_INFO@@@Z 0054c7c0 f i Func.obj
 0002:0006e940       ?erase@?$vector@UGUSER_INFO@@V?$allocator@UGUSER_INFO@@@std@@@std@@QAE?AV?$_Vector_iterator@V?$_Vector_val@UGUSER_INFO@@V?$allocator@UGUSER_INFO@@@std@@@std@@@2@V?$_Vector_const_iterator@V?$_Vector_val@UGUSER_INFO@@V?$allocator@UGUSER_INFO@@@std@@@std@@@2@@Z 0054c940 f i Func.obj
 0002:0006ea00       ??0?$_Vector_iterator@V?$_Vector_val@UGUSER_INFO@@V?$allocator@UGUSER_INFO@@@std@@@std@@@std@@QAE@XZ 0054ca00 f i Func.obj
 0002:0006ea60       ??C?$_Vector_iterator@V?$_Vector_val@UGUSER_INFO@@V?$allocator@UGUSER_INFO@@@std@@@std@@@std@@QBEPAUGUSER_INFO@@XZ 0054ca60 f i Func.obj
 0002:0006eab0       ??E?$_Vector_iterator@V?$_Vector_val@UGUSER_INFO@@V?$allocator@UGUSER_INFO@@@std@@@std@@@std@@QAE?AV01@H@Z 0054cab0 f i Func.obj
 0002:0006eb60       ??9?$_Vector_const_iterator@V?$_Vector_val@UGUSER_INFO@@V?$allocator@UGUSER_INFO@@@std@@@std@@@std@@QBE_NABV01@@Z 0054cb60 f i Func.obj
 0002:0006ebd0       ??0?$_Vector_iterator@V?$_Vector_val@UUSER_ROOMCLIENT_INFO@@V?$allocator@UUSER_ROOMCLIENT_INFO@@@std@@@std@@@std@@QAE@XZ 0054cbd0 f i Func.obj
 0002:0006ec30       ??D?$_Vector_iterator@V?$_Vector_val@UUSER_ROOMCLIENT_INFO@@V?$allocator@UUSER_ROOMCLIENT_INFO@@@std@@@std@@@std@@QBEAAUUSER_ROOMCLIENT_INFO@@XZ 0054cc30 f i Func.obj
 0002:0006ec80       ??C?$_Vector_iterator@V?$_Vector_val@UUSER_ROOMCLIENT_INFO@@V?$allocator@UUSER_ROOMCLIENT_INFO@@@std@@@std@@@std@@QBEPAUUSER_ROOMCLIENT_INFO@@XZ 0054cc80 f i Func.obj
 0002:0006ecd0       ??E?$_Vector_iterator@V?$_Vector_val@UUSER_ROOMCLIENT_INFO@@V?$allocator@UUSER_ROOMCLIENT_INFO@@@std@@@std@@@std@@QAE?AV01@H@Z 0054ccd0 f i Func.obj
 0002:0006ed80       ??9?$_Vector_const_iterator@V?$_Vector_val@UUSER_ROOMCLIENT_INFO@@V?$allocator@UUSER_ROOMCLIENT_INFO@@@std@@@std@@@std@@QBE_NABV01@@Z 0054cd80 f i Func.obj
 0002:0006edf0       ??C?$_Tree_iterator@V?$_Tree_val@V?$_Tmap_traits@HUALLCLIENT_ROOM_INFO@@U?$less@H@std@@V?$allocator@U?$pair@$$CBHUALLCLIENT_ROOM_INFO@@@std@@@3@$0A@@std@@@std@@@std@@QBEPAU?$pair@$$CBHUALLCLIENT_ROOM_INFO@@@1@XZ 0054cdf0 f i Func.obj
 0002:0006ee40       ??E?$_Tree_iterator@V?$_Tree_val@V?$_Tmap_traits@HUALLCLIENT_ROOM_INFO@@U?$less@H@std@@V?$allocator@U?$pair@$$CBHUALLCLIENT_ROOM_INFO@@@std@@@3@$0A@@std@@@std@@@std@@QAE?AV01@H@Z 0054ce40 f i Func.obj
 0002:0006eef0       ??9?$_Tree_const_iterator@V?$_Tree_val@V?$_Tmap_traits@HUALLCLIENT_ROOM_INFO@@U?$less@H@std@@V?$allocator@U?$pair@$$CBHUALLCLIENT_ROOM_INFO@@@std@@@3@$0A@@std@@@std@@@std@@QBE_NABV01@@Z 0054cef0 f i Func.obj
 0002:0006ef60       ?size@?$vector@UROOMANALYS_INFO@@V?$allocator@UROOMANALYS_INFO@@@std@@@std@@QBEIXZ 0054cf60 f i Func.obj
 0002:0006efb0       ?at@?$vector@UROOMANALYS_INFO@@V?$allocator@UROOMANALYS_INFO@@@std@@@std@@QAEAAUROOMANALYS_INFO@@I@Z 0054cfb0 f i Func.obj
 0002:0006f030       ?_Inside@?$vector@UUSER_ROOMCLIENT_INFO@@V?$allocator@UUSER_ROOMCLIENT_INFO@@@std@@@std@@IBE_NPBUUSER_ROOMCLIENT_INFO@@@Z 0054d030 f i Func.obj
 0002:0006f0b0       ?_Reserve@?$vector@UUSER_ROOMCLIENT_INFO@@V?$allocator@UUSER_ROOMCLIENT_INFO@@@std@@@std@@IAEXI@Z 0054d0b0 f i Func.obj
 0002:0006f160       ?_Orphan_range@?$vector@UUSER_ROOMCLIENT_INFO@@V?$allocator@UUSER_ROOMCLIENT_INFO@@@std@@@std@@IBEXPAUUSER_ROOMCLIENT_INFO@@0@Z 0054d160 f i Func.obj
 0002:0006f1a0       ?end@?$_Tree@V?$_Tmap_traits@HHU?$less@H@std@@V?$allocator@U?$pair@$$CBHH@std@@@2@$0A@@std@@@std@@QAE?AV?$_Tree_iterator@V?$_Tree_val@V?$_Tmap_traits@HHU?$less@H@std@@V?$allocator@U?$pair@$$CBHH@std@@@2@$0A@@std@@@std@@@2@XZ 0054d1a0 f i Func.obj
 0002:0006f210       ?lower_bound@?$_Tree@V?$_Tmap_traits@HHU?$less@H@std@@V?$allocator@U?$pair@$$CBHH@std@@@2@$0A@@std@@@std@@QAE?AV?$_Tree_iterator@V?$_Tree_val@V?$_Tmap_traits@HHU?$less@H@std@@V?$allocator@U?$pair@$$CBHH@std@@@2@$0A@@std@@@std@@@2@ABH@Z 0054d210 f i Func.obj
 0002:0006f280       ?_Key@?$_Tree_val@V?$_Tmap_traits@HHU?$less@H@std@@V?$allocator@U?$pair@$$CBHH@std@@@2@$0A@@std@@@std@@SAAAHPAU_Node@?$_Tree_nod@V?$_Tmap_traits@HHU?$less@H@std@@V?$allocator@U?$pair@$$CBHH@std@@@2@$0A@@std@@@2@@Z 0054d280 f i Func.obj
 0002:0006f2e0       ??D?$_Vector_iterator@V?$_Vector_val@UFriendListItemInfo@DuiLib@@V?$allocator@UFriendListItemInfo@DuiLib@@@std@@@std@@@std@@QBEAAUFriendListItemInfo@DuiLib@@XZ 0054d2e0 f i Func.obj
 0002:0006f330       ?_Lmost@?$_Tree@V?$_Tmap_traits@HUALLCLIENT_ROOM_INFO@@U?$less@H@std@@V?$allocator@U?$pair@$$CBHUALLCLIENT_ROOM_INFO@@@std@@@3@$0A@@std@@@std@@IBEAAPAU_Node@?$_Tree_nod@V?$_Tmap_traits@HUALLCLIENT_ROOM_INFO@@U?$less@H@std@@V?$allocator@U?$pair@$$CBHUALLCLIENT_ROOM_INFO@@@std@@@3@$0A@@std@@@2@XZ 0054d330 f i Func.obj
 0002:0006f390       ?_Tidy@?$_Tree@V?$_Tmap_traits@HUALLCLIENT_ROOM_INFO@@U?$less@H@std@@V?$allocator@U?$pair@$$CBHUALLCLIENT_ROOM_INFO@@@std@@@3@$0A@@std@@@std@@IAEXXZ 0054d390 f i Func.obj
 0002:0006f440       ??1?$_Tree_val@V?$_Tmap_traits@HUALLCLIENT_ROOM_INFO@@U?$less@H@std@@V?$allocator@U?$pair@$$CBHUALLCLIENT_ROOM_INFO@@@std@@@3@$0A@@std@@@std@@QAE@XZ 0054d440 f i Func.obj
 0002:0006f4a0       ?_Make_iter@?$vector@URECEIVED_MSG@@V?$allocator@URECEIVED_MSG@@@std@@@std@@QBE?AV?$_Vector_iterator@V?$_Vector_val@URECEIVED_MSG@@V?$allocator@URECEIVED_MSG@@@std@@@std@@@2@V?$_Vector_const_iterator@V?$_Vector_val@URECEIVED_MSG@@V?$allocator@URECEIVED_MSG@@@std@@@std@@@2@@Z 0054d4a0 f i Func.obj
 0002:0006f500       ?_Destroy@?$vector@URECEIVED_MSG@@V?$allocator@URECEIVED_MSG@@@std@@@std@@IAEXPAURECEIVED_MSG@@0@Z 0054d500 f i Func.obj
 0002:0006f570       ??0?$_Vector_iterator@V?$_Vector_val@URECEIVED_MSG@@V?$allocator@URECEIVED_MSG@@@std@@@std@@@std@@QAE@PAURECEIVED_MSG@@PBU_Container_base0@1@@Z 0054d570 f i Func.obj
 0002:0006f5d0       ??D?$_Vector_iterator@V?$_Vector_val@URECEIVED_MSG@@V?$allocator@URECEIVED_MSG@@@std@@@std@@@std@@QBEAAURECEIVED_MSG@@XZ 0054d5d0 f i Func.obj
 0002:0006f620       ?_Make_iter@?$vector@UGUSER_INFO@@V?$allocator@UGUSER_INFO@@@std@@@std@@QBE?AV?$_Vector_iterator@V?$_Vector_val@UGUSER_INFO@@V?$allocator@UGUSER_INFO@@@std@@@std@@@2@V?$_Vector_const_iterator@V?$_Vector_val@UGUSER_INFO@@V?$allocator@UGUSER_INFO@@@std@@@std@@@2@@Z 0054d620 f i Func.obj
 0002:0006f680       ?_Destroy@?$vector@UGUSER_INFO@@V?$allocator@UGUSER_INFO@@@std@@@std@@IAEXPAUGUSER_INFO@@0@Z 0054d680 f i Func.obj
 0002:0006f6f0       ?_Inside@?$vector@UGUSER_INFO@@V?$allocator@UGUSER_INFO@@@std@@@std@@IBE_NPBUGUSER_INFO@@@Z 0054d6f0 f i Func.obj
 0002:0006f770       ?_Reserve@?$vector@UGUSER_INFO@@V?$allocator@UGUSER_INFO@@@std@@@std@@IAEXI@Z 0054d770 f i Func.obj
 0002:0006f820       ?_Orphan_range@?$vector@UGUSER_INFO@@V?$allocator@UGUSER_INFO@@@std@@@std@@IBEXPAUGUSER_INFO@@0@Z 0054d820 f i Func.obj
 0002:0006f860       ??0?$_Vector_iterator@V?$_Vector_val@UGUSER_INFO@@V?$allocator@UGUSER_INFO@@@std@@@std@@@std@@QAE@PAUGUSER_INFO@@PBU_Container_base0@1@@Z 0054d860 f i Func.obj
 0002:0006f8c0       ??D?$_Vector_iterator@V?$_Vector_val@UGUSER_INFO@@V?$allocator@UGUSER_INFO@@@std@@@std@@@std@@QBEAAUGUSER_INFO@@XZ 0054d8c0 f i Func.obj
 0002:0006f910       ??E?$_Vector_iterator@V?$_Vector_val@UGUSER_INFO@@V?$allocator@UGUSER_INFO@@@std@@@std@@@std@@QAEAAV01@XZ 0054d910 f i Func.obj
 0002:0006f970       ??0?$_Vector_const_iterator@V?$_Vector_val@UGUSER_INFO@@V?$allocator@UGUSER_INFO@@@std@@@std@@@std@@QAE@XZ 0054d970 f i Func.obj
 0002:0006f9c0       ??8?$_Vector_const_iterator@V?$_Vector_val@UGUSER_INFO@@V?$allocator@UGUSER_INFO@@@std@@@std@@@std@@QBE_NABV01@@Z 0054d9c0 f i Func.obj
 0002:0006fa30       ??0?$_Vector_iterator@V?$_Vector_val@UUSER_ROOMCLIENT_INFO@@V?$allocator@UUSER_ROOMCLIENT_INFO@@@std@@@std@@@std@@QAE@PAUUSER_ROOMCLIENT_INFO@@PBU_Container_base0@1@@Z 0054da30 f i Func.obj
 0002:0006fa90       ??E?$_Vector_iterator@V?$_Vector_val@UUSER_ROOMCLIENT_INFO@@V?$allocator@UUSER_ROOMCLIENT_INFO@@@std@@@std@@@std@@QAEAAV01@XZ 0054da90 f i Func.obj
 0002:0006faf0       ??0?$_Vector_const_iterator@V?$_Vector_val@UUSER_ROOMCLIENT_INFO@@V?$allocator@UUSER_ROOMCLIENT_INFO@@@std@@@std@@@std@@QAE@XZ 0054daf0 f i Func.obj
 0002:0006fb40       ??D?$_Vector_const_iterator@V?$_Vector_val@UUSER_ROOMCLIENT_INFO@@V?$allocator@UUSER_ROOMCLIENT_INFO@@@std@@@std@@@std@@QBEABUUSER_ROOMCLIENT_INFO@@XZ 0054db40 f i Func.obj
 0002:0006fb80       ??8?$_Vector_const_iterator@V?$_Vector_val@UUSER_ROOMCLIENT_INFO@@V?$allocator@UUSER_ROOMCLIENT_INFO@@@std@@@std@@@std@@QBE_NABV01@@Z 0054db80 f i Func.obj
 0002:0006fbf0       ??0?$_Tree_iterator@V?$_Tree_val@V?$_Tmap_traits@HUALLCLIENT_ROOM_INFO@@U?$less@H@std@@V?$allocator@U?$pair@$$CBHUALLCLIENT_ROOM_INFO@@@std@@@3@$0A@@std@@@std@@@std@@QAE@PAU_Node@?$_Tree_nod@V?$_Tmap_traits@HUALLCLIENT_ROOM_INFO@@U?$less@H@std@@V?$allocator@U?$pair@$$CBHUALLCLIENT_ROOM_INFO@@@std@@@3@$0A@@std@@@1@PBV?$_Tree_val@V?$_Tmap_traits@HUALLCLIENT_ROOM_INFO@@U?$less@H@std@@V?$allocator@U?$pair@$$CBHUALLCLIENT_ROOM_INFO@@@std@@@3@$0A@@std@@@1@@Z 0054dbf0 f i Func.obj
 0002:0006fc50       ??D?$_Tree_iterator@V?$_Tree_val@V?$_Tmap_traits@HUALLCLIENT_ROOM_INFO@@U?$less@H@std@@V?$allocator@U?$pair@$$CBHUALLCLIENT_ROOM_INFO@@@std@@@3@$0A@@std@@@std@@@std@@QBEAAU?$pair@$$CBHUALLCLIENT_ROOM_INFO@@@1@XZ 0054dc50 f i Func.obj
 0002:0006fca0       ??E?$_Tree_iterator@V?$_Tree_val@V?$_Tmap_traits@HUALLCLIENT_ROOM_INFO@@U?$less@H@std@@V?$allocator@U?$pair@$$CBHUALLCLIENT_ROOM_INFO@@@std@@@3@$0A@@std@@@std@@@std@@QAEAAV01@XZ 0054dca0 f i Func.obj
 0002:0006fd00       ??8?$_Tree_const_iterator@V?$_Tree_val@V?$_Tmap_traits@HUALLCLIENT_ROOM_INFO@@U?$less@H@std@@V?$allocator@U?$pair@$$CBHUALLCLIENT_ROOM_INFO@@@std@@@3@$0A@@std@@@std@@@std@@QBE_NABV01@@Z 0054dd00 f i Func.obj
 0002:0006fd50       ?_Xran@?$vector@UROOMANALYS_INFO@@V?$allocator@UROOMANALYS_INFO@@@std@@@std@@IBEXXZ 0054dd50 f i Func.obj
 0002:0006fdb0       ??D?$_Tree_iterator@V?$_Tree_val@V?$_Tmap_traits@HHU?$less@H@std@@V?$allocator@U?$pair@$$CBHH@std@@@2@$0A@@std@@@std@@@std@@QBEAAU?$pair@$$CBHH@1@XZ 0054ddb0 f i Func.obj
 0002:0006fe00       ??8?$_Tree_const_iterator@V?$_Tree_val@V?$_Tmap_traits@HHU?$less@H@std@@V?$allocator@U?$pair@$$CBHH@std@@@2@$0A@@std@@@std@@@std@@QBE_NABV01@@Z 0054de00 f i Func.obj
 0002:0006fe50       ?_Mynode@?$_Tree_unchecked_const_iterator@V?$_Tree_val@V?$_Tmap_traits@HHU?$less@H@std@@V?$allocator@U?$pair@$$CBHH@std@@@2@$0A@@std@@@std@@U_Iterator_base0@2@@std@@QBEPAU_Node@?$_Tree_nod@V?$_Tmap_traits@HHU?$less@H@std@@V?$allocator@U?$pair@$$CBHH@std@@@2@$0A@@std@@@2@XZ 0054de50 f i Func.obj
 0002:0006fe90       ??0?$pair@$$CBHH@std@@QAE@ABH$$QAH@Z 0054de90 f i Func.obj
 0002:0006ff00       ?reserve@?$vector@UUSER_ROOMCLIENT_INFO@@V?$allocator@UUSER_ROOMCLIENT_INFO@@@std@@@std@@QAEXI@Z 0054df00 f i Func.obj
 0002:000700f0       ?capacity@?$vector@UUSER_ROOMCLIENT_INFO@@V?$allocator@UUSER_ROOMCLIENT_INFO@@@std@@@std@@QBEIXZ 0054e0f0 f i Func.obj
 0002:00070140       ?max_size@?$vector@UUSER_ROOMCLIENT_INFO@@V?$allocator@UUSER_ROOMCLIENT_INFO@@@std@@@std@@QBEIXZ 0054e140 f i Func.obj
 0002:000701a0       ?_Grow_to@?$vector@UUSER_ROOMCLIENT_INFO@@V?$allocator@UUSER_ROOMCLIENT_INFO@@@std@@@std@@IBEII@Z 0054e1a0 f i Func.obj
 0002:00070250       ?_Xlen@?$vector@UUSER_ROOMCLIENT_INFO@@V?$allocator@UUSER_ROOMCLIENT_INFO@@@std@@@std@@IBEXXZ 0054e250 f i Func.obj
 0002:000702b0       ?_Lbound@?$_Tree@V?$_Tmap_traits@HHU?$less@H@std@@V?$allocator@U?$pair@$$CBHH@std@@@2@$0A@@std@@@std@@IAEPAU_Node@?$_Tree_nod@V?$_Tmap_traits@HHU?$less@H@std@@V?$allocator@U?$pair@$$CBHH@std@@@2@$0A@@std@@@2@ABH@Z 0054e2b0 f i Func.obj
 0002:00070390       ?_Myval@?$_Tree_val@V?$_Tmap_traits@HHU?$less@H@std@@V?$allocator@U?$pair@$$CBHH@std@@@2@$0A@@std@@@std@@SAAAU?$pair@$$CBHH@2@PAU_Node@?$_Tree_nod@V?$_Tmap_traits@HHU?$less@H@std@@V?$allocator@U?$pair@$$CBHH@std@@@2@$0A@@std@@@2@@Z 0054e390 f i Func.obj
 0002:000703d0       ??D?$_Vector_const_iterator@V?$_Vector_val@UFriendListItemInfo@DuiLib@@V?$allocator@UFriendListItemInfo@DuiLib@@@std@@@std@@@std@@QBEABUFriendListItemInfo@DuiLib@@XZ 0054e3d0 f i Func.obj
 0002:00070410       ?erase@?$_Tree@V?$_Tmap_traits@HUALLCLIENT_ROOM_INFO@@U?$less@H@std@@V?$allocator@U?$pair@$$CBHUALLCLIENT_ROOM_INFO@@@std@@@3@$0A@@std@@@std@@QAE?AV?$_Tree_iterator@V?$_Tree_val@V?$_Tmap_traits@HUALLCLIENT_ROOM_INFO@@U?$less@H@std@@V?$allocator@U?$pair@$$CBHUALLCLIENT_ROOM_INFO@@@std@@@3@$0A@@std@@@std@@@2@V?$_Tree_const_iterator@V?$_Tree_val@V?$_Tmap_traits@HUALLCLIENT_ROOM_INFO@@U?$less@H@std@@V?$allocator@U?$pair@$$CBHUALLCLIENT_ROOM_INFO@@@std@@@3@$0A@@std@@@std@@@2@0@Z 0054e410 f i Func.obj
 0002:00070530       ?_Left@?$_Tree_val@V?$_Tmap_traits@HUALLCLIENT_ROOM_INFO@@U?$less@H@std@@V?$allocator@U?$pair@$$CBHUALLCLIENT_ROOM_INFO@@@std@@@3@$0A@@std@@@std@@SAAAPAU_Node@?$_Tree_nod@V?$_Tmap_traits@HUALLCLIENT_ROOM_INFO@@U?$less@H@std@@V?$allocator@U?$pair@$$CBHUALLCLIENT_ROOM_INFO@@@std@@@3@$0A@@std@@@2@PAU342@@Z 0054e530 f i Func.obj
 0002:00070570       ?deallocate@?$allocator@U_Node@?$_Tree_nod@V?$_Tmap_traits@HUALLCLIENT_ROOM_INFO@@U?$less@H@std@@V?$allocator@U?$pair@$$CBHUALLCLIENT_ROOM_INFO@@@std@@@3@$0A@@std@@@std@@@std@@QAEXPAU_Node@?$_Tree_nod@V?$_Tmap_traits@HUALLCLIENT_ROOM_INFO@@U?$less@H@std@@V?$allocator@U?$pair@$$CBHUALLCLIENT_ROOM_INFO@@@std@@@3@$0A@@std@@@2@I@Z 0054e570 f i Func.obj
 0002:000705d0       ??0?$_Vector_const_iterator@V?$_Vector_val@URECEIVED_MSG@@V?$allocator@URECEIVED_MSG@@@std@@@std@@@std@@QAE@PAURECEIVED_MSG@@PBU_Container_base0@1@@Z 0054e5d0 f i Func.obj
 0002:00070640       ??D?$_Vector_const_iterator@V?$_Vector_val@URECEIVED_MSG@@V?$allocator@URECEIVED_MSG@@@std@@@std@@@std@@QBEABURECEIVED_MSG@@XZ 0054e640 f i Func.obj
 0002:00070680       ?reserve@?$vector@UGUSER_INFO@@V?$allocator@UGUSER_INFO@@@std@@@std@@QAEXI@Z 0054e680 f i Func.obj
 0002:00070860       ?capacity@?$vector@UGUSER_INFO@@V?$allocator@UGUSER_INFO@@@std@@@std@@QBEIXZ 0054e860 f i Func.obj
 0002:000708b0       ?size@?$vector@UGUSER_INFO@@V?$allocator@UGUSER_INFO@@@std@@@std@@QBEIXZ 0054e8b0 f i Func.obj
 0002:00070900       ?max_size@?$vector@UGUSER_INFO@@V?$allocator@UGUSER_INFO@@@std@@@std@@QBEIXZ 0054e900 f i Func.obj
 0002:00070960       ?_Grow_to@?$vector@UGUSER_INFO@@V?$allocator@UGUSER_INFO@@@std@@@std@@IBEII@Z 0054e960 f i Func.obj
 0002:00070a10       ?_Xlen@?$vector@UGUSER_INFO@@V?$allocator@UGUSER_INFO@@@std@@@std@@IBEXXZ 0054ea10 f i Func.obj
 0002:00070a70       ??0?$_Vector_const_iterator@V?$_Vector_val@UGUSER_INFO@@V?$allocator@UGUSER_INFO@@@std@@@std@@@std@@QAE@PAUGUSER_INFO@@PBU_Container_base0@1@@Z 0054ea70 f i Func.obj
 0002:00070ae0       ??D?$_Vector_const_iterator@V?$_Vector_val@UGUSER_INFO@@V?$allocator@UGUSER_INFO@@@std@@@std@@@std@@QBEABUGUSER_INFO@@XZ 0054eae0 f i Func.obj
 0002:00070b20       ??E?$_Vector_const_iterator@V?$_Vector_val@UGUSER_INFO@@V?$allocator@UGUSER_INFO@@@std@@@std@@@std@@QAEAAV01@XZ 0054eb20 f i Func.obj
 0002:00070b70       ?_Compat@?$_Vector_const_iterator@V?$_Vector_val@UGUSER_INFO@@V?$allocator@UGUSER_INFO@@@std@@@std@@@std@@QBEXABV12@@Z 0054eb70 f i Func.obj
 0002:00070bb0       ??0?$_Vector_const_iterator@V?$_Vector_val@UUSER_ROOMCLIENT_INFO@@V?$allocator@UUSER_ROOMCLIENT_INFO@@@std@@@std@@@std@@QAE@PAUUSER_ROOMCLIENT_INFO@@PBU_Container_base0@1@@Z 0054ebb0 f i Func.obj
 0002:00070c20       ??E?$_Vector_const_iterator@V?$_Vector_val@UUSER_ROOMCLIENT_INFO@@V?$allocator@UUSER_ROOMCLIENT_INFO@@@std@@@std@@@std@@QAEAAV01@XZ 0054ec20 f i Func.obj
 0002:00070c70       ?_Compat@?$_Vector_const_iterator@V?$_Vector_val@UUSER_ROOMCLIENT_INFO@@V?$allocator@UUSER_ROOMCLIENT_INFO@@@std@@@std@@@std@@QBEXABV12@@Z 0054ec70 f i Func.obj
 0002:00070cb0       ??0?$_Tree_const_iterator@V?$_Tree_val@V?$_Tmap_traits@HUALLCLIENT_ROOM_INFO@@U?$less@H@std@@V?$allocator@U?$pair@$$CBHUALLCLIENT_ROOM_INFO@@@std@@@3@$0A@@std@@@std@@@std@@QAE@PAU_Node@?$_Tree_nod@V?$_Tmap_traits@HUALLCLIENT_ROOM_INFO@@U?$less@H@std@@V?$allocator@U?$pair@$$CBHUALLCLIENT_ROOM_INFO@@@std@@@3@$0A@@std@@@1@PBV?$_Tree_val@V?$_Tmap_traits@HUALLCLIENT_ROOM_INFO@@U?$less@H@std@@V?$allocator@U?$pair@$$CBHUALLCLIENT_ROOM_INFO@@@std@@@3@$0A@@std@@@1@@Z 0054ecb0 f i Func.obj
 0002:00070d10       ??D?$_Tree_const_iterator@V?$_Tree_val@V?$_Tmap_traits@HUALLCLIENT_ROOM_INFO@@U?$less@H@std@@V?$allocator@U?$pair@$$CBHUALLCLIENT_ROOM_INFO@@@std@@@3@$0A@@std@@@std@@@std@@QBEABU?$pair@$$CBHUALLCLIENT_ROOM_INFO@@@1@XZ 0054ed10 f i Func.obj
 0002:00070d70       ??E?$_Tree_const_iterator@V?$_Tree_val@V?$_Tmap_traits@HUALLCLIENT_ROOM_INFO@@U?$less@H@std@@V?$allocator@U?$pair@$$CBHUALLCLIENT_ROOM_INFO@@@std@@@3@$0A@@std@@@std@@@std@@QAEAAV01@XZ 0054ed70 f i Func.obj
 0002:00070dd0       ??0?$_Tree_iterator@V?$_Tree_val@V?$_Tmap_traits@HHU?$less@H@std@@V?$allocator@U?$pair@$$CBHH@std@@@2@$0A@@std@@@std@@@std@@QAE@PAU_Node@?$_Tree_nod@V?$_Tmap_traits@HHU?$less@H@std@@V?$allocator@U?$pair@$$CBHH@std@@@2@$0A@@std@@@1@PBV?$_Tree_val@V?$_Tmap_traits@HHU?$less@H@std@@V?$allocator@U?$pair@$$CBHH@std@@@2@$0A@@std@@@1@@Z 0054edd0 f i Func.obj
 0002:00070e30       ??D?$_Tree_const_iterator@V?$_Tree_val@V?$_Tmap_traits@HHU?$less@H@std@@V?$allocator@U?$pair@$$CBHH@std@@@2@$0A@@std@@@std@@@std@@QBEABU?$pair@$$CBHH@1@XZ 0054ee30 f i Func.obj
 0002:00070e90       ??0?$_Pair_base@$$CBHH@std@@QAE@ABH$$QAH@Z 0054ee90 f i Func.obj
 0002:00070f00       ?_Destroy@?$vector@UUSER_ROOMCLIENT_INFO@@V?$allocator@UUSER_ROOMCLIENT_INFO@@@std@@@std@@IAEXPAUUSER_ROOMCLIENT_INFO@@0@Z 0054ef00 f i Func.obj
 0002:00070f70       ?deallocate@?$allocator@UUSER_ROOMCLIENT_INFO@@@std@@QAEXPAUUSER_ROOMCLIENT_INFO@@I@Z 0054ef70 f i Func.obj
 0002:00070fd0       ?allocate@?$allocator@UUSER_ROOMCLIENT_INFO@@@std@@QAEPAUUSER_ROOMCLIENT_INFO@@I@Z 0054efd0 f i Func.obj
 0002:00071030       ?max_size@?$allocator@UUSER_ROOMCLIENT_INFO@@@std@@QBEIXZ 0054f030 f i Func.obj
 0002:000710a0       ?_Root@?$_Tree@V?$_Tmap_traits@HHU?$less@H@std@@V?$allocator@U?$pair@$$CBHH@std@@@2@$0A@@std@@@std@@IBEAAPAU_Node@?$_Tree_nod@V?$_Tmap_traits@HHU?$less@H@std@@V?$allocator@U?$pair@$$CBHH@std@@@2@$0A@@std@@@2@XZ 0054f0a0 f i Func.obj
 0002:00071100       ?_Isnil@?$_Tree_val@V?$_Tmap_traits@HHU?$less@H@std@@V?$allocator@U?$pair@$$CBHH@std@@@2@$0A@@std@@@std@@SAAADPAU_Node@?$_Tree_nod@V?$_Tmap_traits@HHU?$less@H@std@@V?$allocator@U?$pair@$$CBHH@std@@@2@$0A@@std@@@2@@Z 0054f100 f i Func.obj
 0002:00071140       ?_Left@?$_Tree_val@V?$_Tmap_traits@HHU?$less@H@std@@V?$allocator@U?$pair@$$CBHH@std@@@2@$0A@@std@@@std@@SAAAPAU_Node@?$_Tree_nod@V?$_Tmap_traits@HHU?$less@H@std@@V?$allocator@U?$pair@$$CBHH@std@@@2@$0A@@std@@@2@PAU342@@Z 0054f140 f i Func.obj
 0002:00071180       ?_Right@?$_Tree_val@V?$_Tmap_traits@HHU?$less@H@std@@V?$allocator@U?$pair@$$CBHH@std@@@2@$0A@@std@@@std@@SAAAPAU_Node@?$_Tree_nod@V?$_Tmap_traits@HHU?$less@H@std@@V?$allocator@U?$pair@$$CBHH@std@@@2@$0A@@std@@@2@PAU342@@Z 0054f180 f i Func.obj
 0002:000711c0       ?erase@?$_Tree@V?$_Tmap_traits@HUALLCLIENT_ROOM_INFO@@U?$less@H@std@@V?$allocator@U?$pair@$$CBHUALLCLIENT_ROOM_INFO@@@std@@@3@$0A@@std@@@std@@QAE?AV?$_Tree_iterator@V?$_Tree_val@V?$_Tmap_traits@HUALLCLIENT_ROOM_INFO@@U?$less@H@std@@V?$allocator@U?$pair@$$CBHUALLCLIENT_ROOM_INFO@@@std@@@3@$0A@@std@@@std@@@2@V?$_Tree_const_iterator@V?$_Tree_val@V?$_Tmap_traits@HUALLCLIENT_ROOM_INFO@@U?$less@H@std@@V?$allocator@U?$pair@$$CBHUALLCLIENT_ROOM_INFO@@@std@@@3@$0A@@std@@@std@@@2@@Z 0054f1c0 f i Func.obj
 0002:00071b80       ?clear@?$_Tree@V?$_Tmap_traits@HUALLCLIENT_ROOM_INFO@@U?$less@H@std@@V?$allocator@U?$pair@$$CBHUALLCLIENT_ROOM_INFO@@@std@@@3@$0A@@std@@@std@@QAEXXZ 0054fb80 f i Func.obj
 0002:00071c30       ?_Myval@?$_Tree_val@V?$_Tmap_traits@HUALLCLIENT_ROOM_INFO@@U?$less@H@std@@V?$allocator@U?$pair@$$CBHUALLCLIENT_ROOM_INFO@@@std@@@3@$0A@@std@@@std@@SAAAU?$pair@$$CBHUALLCLIENT_ROOM_INFO@@@2@PAU_Node@?$_Tree_nod@V?$_Tmap_traits@HUALLCLIENT_ROOM_INFO@@U?$less@H@std@@V?$allocator@U?$pair@$$CBHUALLCLIENT_ROOM_INFO@@@std@@@3@$0A@@std@@@2@@Z 0054fc30 f i Func.obj
 0002:00071c70       ?deallocate@?$allocator@UGUSER_INFO@@@std@@QAEXPAUGUSER_INFO@@I@Z 0054fc70 f i Func.obj
 0002:00071cd0       ?allocate@?$allocator@UGUSER_INFO@@@std@@QAEPAUGUSER_INFO@@I@Z 0054fcd0 f i Func.obj
 0002:00071d30       ?max_size@?$allocator@UGUSER_INFO@@@std@@QBEIXZ 0054fd30 f i Func.obj
 0002:00071da0       ??E?$_Tree_const_iterator@V?$_Tree_val@V?$_Tmap_traits@HUALLCLIENT_ROOM_INFO@@U?$less@H@std@@V?$allocator@U?$pair@$$CBHUALLCLIENT_ROOM_INFO@@@std@@@3@$0A@@std@@@std@@@std@@QAE?AV01@H@Z 0054fda0 f i Func.obj
 0002:00071e50       ??0?$_Tree_unchecked_const_iterator@V?$_Tree_val@V?$_Tmap_traits@HUALLCLIENT_ROOM_INFO@@U?$less@H@std@@V?$allocator@U?$pair@$$CBHUALLCLIENT_ROOM_INFO@@@std@@@3@$0A@@std@@@std@@U_Iterator_base0@2@@std@@QAE@PAU_Node@?$_Tree_nod@V?$_Tmap_traits@HUALLCLIENT_ROOM_INFO@@U?$less@H@std@@V?$allocator@U?$pair@$$CBHUALLCLIENT_ROOM_INFO@@@std@@@3@$0A@@std@@@1@PBV?$_Tree_val@V?$_Tmap_traits@HUALLCLIENT_ROOM_INFO@@U?$less@H@std@@V?$allocator@U?$pair@$$CBHUALLCLIENT_ROOM_INFO@@@std@@@3@$0A@@std@@@1@@Z 0054fe50 f i Func.obj
 0002:00071ec0       ??E?$_Tree_unchecked_const_iterator@V?$_Tree_val@V?$_Tmap_traits@HUALLCLIENT_ROOM_INFO@@U?$less@H@std@@V?$allocator@U?$pair@$$CBHUALLCLIENT_ROOM_INFO@@@std@@@3@$0A@@std@@@std@@U_Iterator_base0@2@@std@@QAEAAV01@XZ 0054fec0 f i Func.obj
 0002:00071fe0       ??0?$_Tree_const_iterator@V?$_Tree_val@V?$_Tmap_traits@HHU?$less@H@std@@V?$allocator@U?$pair@$$CBHH@std@@@2@$0A@@std@@@std@@@std@@QAE@PAU_Node@?$_Tree_nod@V?$_Tmap_traits@HHU?$less@H@std@@V?$allocator@U?$pair@$$CBHH@std@@@2@$0A@@std@@@1@PBV?$_Tree_val@V?$_Tmap_traits@HHU?$less@H@std@@V?$allocator@U?$pair@$$CBHH@std@@@2@$0A@@std@@@1@@Z 0054ffe0 f i Func.obj
 0002:00072040       ?_Parent@?$_Tree_val@V?$_Tmap_traits@HHU?$less@H@std@@V?$allocator@U?$pair@$$CBHH@std@@@2@$0A@@std@@@std@@SAAAPAU_Node@?$_Tree_nod@V?$_Tmap_traits@HHU?$less@H@std@@V?$allocator@U?$pair@$$CBHH@std@@@2@$0A@@std@@@2@PAU342@@Z 00550040 f i Func.obj
 0002:00072080       ?_Erase@?$_Tree@V?$_Tmap_traits@HUALLCLIENT_ROOM_INFO@@U?$less@H@std@@V?$allocator@U?$pair@$$CBHUALLCLIENT_ROOM_INFO@@@std@@@3@$0A@@std@@@std@@IAEXPAU_Node@?$_Tree_nod@V?$_Tmap_traits@HUALLCLIENT_ROOM_INFO@@U?$less@H@std@@V?$allocator@U?$pair@$$CBHUALLCLIENT_ROOM_INFO@@@std@@@3@$0A@@std@@@2@@Z 00550080 f i Func.obj
 0002:00072170       ?_Lrotate@?$_Tree@V?$_Tmap_traits@HUALLCLIENT_ROOM_INFO@@U?$less@H@std@@V?$allocator@U?$pair@$$CBHUALLCLIENT_ROOM_INFO@@@std@@@3@$0A@@std@@@std@@IAEXPAU_Node@?$_Tree_nod@V?$_Tmap_traits@HUALLCLIENT_ROOM_INFO@@U?$less@H@std@@V?$allocator@U?$pair@$$CBHUALLCLIENT_ROOM_INFO@@@std@@@3@$0A@@std@@@2@@Z 00550170 f i Func.obj
 0002:00072320       ?_Rmost@?$_Tree@V?$_Tmap_traits@HUALLCLIENT_ROOM_INFO@@U?$less@H@std@@V?$allocator@U?$pair@$$CBHUALLCLIENT_ROOM_INFO@@@std@@@3@$0A@@std@@@std@@IBEAAPAU_Node@?$_Tree_nod@V?$_Tmap_traits@HUALLCLIENT_ROOM_INFO@@U?$less@H@std@@V?$allocator@U?$pair@$$CBHUALLCLIENT_ROOM_INFO@@@std@@@3@$0A@@std@@@2@XZ 00550320 f i Func.obj
 0002:00072380       ?_Root@?$_Tree@V?$_Tmap_traits@HUALLCLIENT_ROOM_INFO@@U?$less@H@std@@V?$allocator@U?$pair@$$CBHUALLCLIENT_ROOM_INFO@@@std@@@3@$0A@@std@@@std@@IBEAAPAU_Node@?$_Tree_nod@V?$_Tmap_traits@HUALLCLIENT_ROOM_INFO@@U?$less@H@std@@V?$allocator@U?$pair@$$CBHUALLCLIENT_ROOM_INFO@@@std@@@3@$0A@@std@@@2@XZ 00550380 f i Func.obj
 0002:000723e0       ?_Rrotate@?$_Tree@V?$_Tmap_traits@HUALLCLIENT_ROOM_INFO@@U?$less@H@std@@V?$allocator@U?$pair@$$CBHUALLCLIENT_ROOM_INFO@@@std@@@3@$0A@@std@@@std@@IAEXPAU_Node@?$_Tree_nod@V?$_Tmap_traits@HUALLCLIENT_ROOM_INFO@@U?$less@H@std@@V?$allocator@U?$pair@$$CBHUALLCLIENT_ROOM_INFO@@@std@@@3@$0A@@std@@@2@@Z 005503e0 f i Func.obj
 0002:00072590       ?_Color@?$_Tree_val@V?$_Tmap_traits@HUALLCLIENT_ROOM_INFO@@U?$less@H@std@@V?$allocator@U?$pair@$$CBHUALLCLIENT_ROOM_INFO@@@std@@@3@$0A@@std@@@std@@SAAADPAU_Node@?$_Tree_nod@V?$_Tmap_traits@HUALLCLIENT_ROOM_INFO@@U?$less@H@std@@V?$allocator@U?$pair@$$CBHUALLCLIENT_ROOM_INFO@@@std@@@3@$0A@@std@@@2@@Z 00550590 f i Func.obj
 0002:000725d0       ?_Isnil@?$_Tree_val@V?$_Tmap_traits@HUALLCLIENT_ROOM_INFO@@U?$less@H@std@@V?$allocator@U?$pair@$$CBHUALLCLIENT_ROOM_INFO@@@std@@@3@$0A@@std@@@std@@SAAADPAU_Node@?$_Tree_nod@V?$_Tmap_traits@HUALLCLIENT_ROOM_INFO@@U?$less@H@std@@V?$allocator@U?$pair@$$CBHUALLCLIENT_ROOM_INFO@@@std@@@3@$0A@@std@@@2@@Z 005505d0 f i Func.obj
 0002:00072610       ?_Parent@?$_Tree_val@V?$_Tmap_traits@HUALLCLIENT_ROOM_INFO@@U?$less@H@std@@V?$allocator@U?$pair@$$CBHUALLCLIENT_ROOM_INFO@@@std@@@3@$0A@@std@@@std@@SAAAPAU_Node@?$_Tree_nod@V?$_Tmap_traits@HUALLCLIENT_ROOM_INFO@@U?$less@H@std@@V?$allocator@U?$pair@$$CBHUALLCLIENT_ROOM_INFO@@@std@@@3@$0A@@std@@@2@PAU342@@Z 00550610 f i Func.obj
 0002:00072650       ?_Right@?$_Tree_val@V?$_Tmap_traits@HUALLCLIENT_ROOM_INFO@@U?$less@H@std@@V?$allocator@U?$pair@$$CBHUALLCLIENT_ROOM_INFO@@@std@@@3@$0A@@std@@@std@@SAAAPAU_Node@?$_Tree_nod@V?$_Tmap_traits@HUALLCLIENT_ROOM_INFO@@U?$less@H@std@@V?$allocator@U?$pair@$$CBHUALLCLIENT_ROOM_INFO@@@std@@@3@$0A@@std@@@2@PAU342@@Z 00550650 f i Func.obj
 0002:00072690       ?_Max@?$_Tree_val@V?$_Tmap_traits@HUALLCLIENT_ROOM_INFO@@U?$less@H@std@@V?$allocator@U?$pair@$$CBHUALLCLIENT_ROOM_INFO@@@std@@@3@$0A@@std@@@std@@SAPAU_Node@?$_Tree_nod@V?$_Tmap_traits@HUALLCLIENT_ROOM_INFO@@U?$less@H@std@@V?$allocator@U?$pair@$$CBHUALLCLIENT_ROOM_INFO@@@std@@@3@$0A@@std@@@2@PAU342@@Z 00550690 f i Func.obj
 0002:00072710       ?_Min@?$_Tree_val@V?$_Tmap_traits@HUALLCLIENT_ROOM_INFO@@U?$less@H@std@@V?$allocator@U?$pair@$$CBHUALLCLIENT_ROOM_INFO@@@std@@@3@$0A@@std@@@std@@SAPAU_Node@?$_Tree_nod@V?$_Tmap_traits@HUALLCLIENT_ROOM_INFO@@U?$less@H@std@@V?$allocator@U?$pair@$$CBHUALLCLIENT_ROOM_INFO@@@std@@@3@$0A@@std@@@2@PAU342@@Z 00550710 f i Func.obj
 0002:00072790       ?_Mynode@?$_Tree_unchecked_const_iterator@V?$_Tree_val@V?$_Tmap_traits@HUALLCLIENT_ROOM_INFO@@U?$less@H@std@@V?$allocator@U?$pair@$$CBHUALLCLIENT_ROOM_INFO@@@std@@@3@$0A@@std@@@std@@U_Iterator_base0@2@@std@@QBEPAU_Node@?$_Tree_nod@V?$_Tmap_traits@HUALLCLIENT_ROOM_INFO@@U?$less@H@std@@V?$allocator@U?$pair@$$CBHUALLCLIENT_ROOM_INFO@@@std@@@3@$0A@@std@@@2@XZ 00550790 f i Func.obj
 0002:000727d0       ??0?$_Tree_unchecked_const_iterator@V?$_Tree_val@V?$_Tmap_traits@HHU?$less@H@std@@V?$allocator@U?$pair@$$CBHH@std@@@2@$0A@@std@@@std@@U_Iterator_base0@2@@std@@QAE@PAU_Node@?$_Tree_nod@V?$_Tmap_traits@HHU?$less@H@std@@V?$allocator@U?$pair@$$CBHH@std@@@2@$0A@@std@@@1@PBV?$_Tree_val@V?$_Tmap_traits@HHU?$less@H@std@@V?$allocator@U?$pair@$$CBHH@std@@@2@$0A@@std@@@1@@Z 005507d0 f i Func.obj
 0002:00072840       ??$find@V?$_Vector_iterator@V?$_Vector_val@UUSER_ROOMCLIENT_INFO@@V?$allocator@UUSER_ROOMCLIENT_INFO@@@std@@@std@@@std@@UUSER_ROOMCLIENT_INFO@@@std@@YA?AV?$_Vector_iterator@V?$_Vector_val@UUSER_ROOMCLIENT_INFO@@V?$allocator@UUSER_ROOMCLIENT_INFO@@@std@@@std@@@0@V10@0ABUUSER_ROOMCLIENT_INFO@@@Z 00550840 f i Func.obj
 0002:000728d0       ??$addressof@$$CBUUSER_ROOMCLIENT_INFO@@@std@@YAPBUUSER_ROOMCLIENT_INFO@@ABU1@@Z 005508d0 f i Func.obj
 0002:00072910       ??$_Cons_val@V?$allocator@UUSER_ROOMCLIENT_INFO@@@std@@UUSER_ROOMCLIENT_INFO@@AAU3@@std@@YAXAAV?$allocator@UUSER_ROOMCLIENT_INFO@@@0@PAUUSER_ROOMCLIENT_INFO@@AAU2@@Z 00550910 f i Func.obj
 0002:00072970       ??$_Cons_val@V?$allocator@UUSER_ROOMCLIENT_INFO@@@std@@UUSER_ROOMCLIENT_INFO@@ABU3@@std@@YAXAAV?$allocator@UUSER_ROOMCLIENT_INFO@@@0@PAUUSER_ROOMCLIENT_INFO@@ABU2@@Z 00550970 f i Func.obj
 0002:000729d0       ??$insert@U?$pair@$$CBHH@std@@@?$_Tree@V?$_Tmap_traits@HHU?$less@H@std@@V?$allocator@U?$pair@$$CBHH@std@@@2@$0A@@std@@@std@@QAE?AV?$_Tree_iterator@V?$_Tree_val@V?$_Tmap_traits@HHU?$less@H@std@@V?$allocator@U?$pair@$$CBHH@std@@@2@$0A@@std@@@std@@@1@V?$_Tree_const_iterator@V?$_Tree_val@V?$_Tmap_traits@HHU?$less@H@std@@V?$allocator@U?$pair@$$CBHH@std@@@2@$0A@@std@@@std@@@1@$$QAU?$pair@$$CBHH@1@@Z 005509d0 f i Func.obj
 0002:00072a50       ??$_Move@PAURECEIVED_MSG@@PAU1@@std@@YAPAURECEIVED_MSG@@PAU1@00@Z 00550a50 f i Func.obj
 0002:00072ad0       ??$addressof@$$CBUGUSER_INFO@@@std@@YAPBUGUSER_INFO@@ABU1@@Z 00550ad0 f i Func.obj
 0002:00072b10       ??$_Cons_val@V?$allocator@UGUSER_INFO@@@std@@UGUSER_INFO@@AAU3@@std@@YAXAAV?$allocator@UGUSER_INFO@@@0@PAUGUSER_INFO@@AAU2@@Z 00550b10 f i Func.obj
 0002:00072b70       ??$_Cons_val@V?$allocator@UGUSER_INFO@@@std@@UGUSER_INFO@@ABU3@@std@@YAXAAV?$allocator@UGUSER_INFO@@@0@PAUGUSER_INFO@@ABU2@@Z 00550b70 f i Func.obj
 0002:00072bd0       ??$_Move@PAUGUSER_INFO@@PAU1@@std@@YAPAUGUSER_INFO@@PAU1@00@Z 00550bd0 f i Func.obj
 0002:00072c50       ??$_Kfn@$$CBHH@?$_Tmap_traits@HHU?$less@H@std@@V?$allocator@U?$pair@$$CBHH@std@@@2@$0A@@std@@SAABHABU?$pair@$$CBHH@1@@Z 00550c50 f i Func.obj
 0002:00072c90       ??$_Destroy_range@V?$allocator@URECEIVED_MSG@@@std@@@std@@YAXPAURECEIVED_MSG@@0AAV?$allocator@URECEIVED_MSG@@@0@@Z 00550c90 f i Func.obj
 0002:00072d10       ??$_Destroy_range@V?$allocator@UGUSER_INFO@@@std@@@std@@YAXPAUGUSER_INFO@@0AAV?$allocator@UGUSER_INFO@@@0@@Z 00550d10 f i Func.obj
 0002:00072d90       ??$move@AAH@std@@YA$$QAHAAH@Z 00550d90 f i Func.obj
 0002:00072dd0       ??$_Umove@PAUUSER_ROOMCLIENT_INFO@@@?$vector@UUSER_ROOMCLIENT_INFO@@V?$allocator@UUSER_ROOMCLIENT_INFO@@@std@@@std@@IAEPAUUSER_ROOMCLIENT_INFO@@PAU2@00@Z 00550dd0 f i Func.obj
 0002:00072e40       ??$_Umove@PAUGUSER_INFO@@@?$vector@UGUSER_INFO@@V?$allocator@UGUSER_INFO@@@std@@@std@@IAEPAUGUSER_INFO@@PAU2@00@Z 00550e40 f i Func.obj
 0002:00072eb0       ??$_Destroy_range@V?$allocator@UUSER_ROOMCLIENT_INFO@@@std@@@std@@YAXPAUUSER_ROOMCLIENT_INFO@@0AAV?$allocator@UUSER_ROOMCLIENT_INFO@@@0@@Z 00550eb0 f i Func.obj
 0002:00072f30       ??$_Allocate@UUSER_ROOMCLIENT_INFO@@@std@@YAPAUUSER_ROOMCLIENT_INFO@@IPAU1@@Z 00550f30 f i Func.obj
 0002:00072fe0       ??$addressof@U?$pair@$$CBHUALLCLIENT_ROOM_INFO@@@std@@@std@@YAPAU?$pair@$$CBHUALLCLIENT_ROOM_INFO@@@0@AAU10@@Z 00550fe0 f i Func.obj
 0002:00073020       ??$_Dest_val@V?$allocator@U?$pair@$$CBHUALLCLIENT_ROOM_INFO@@@std@@@std@@U?$pair@$$CBHUALLCLIENT_ROOM_INFO@@@2@@std@@YAXAAV?$allocator@U?$pair@$$CBHUALLCLIENT_ROOM_INFO@@@std@@@0@PAU?$pair@$$CBHUALLCLIENT_ROOM_INFO@@@0@@Z 00551020 f i Func.obj
 0002:00073070       ??$_Allocate@UGUSER_INFO@@@std@@YAPAUGUSER_INFO@@IPAU1@@Z 00551070 f i Func.obj
 0002:00073120       ?construct@?$allocator@UUSER_ROOMCLIENT_INFO@@@std@@QAEXPAUUSER_ROOMCLIENT_INFO@@ABU3@@Z 00551120 f i Func.obj
 0002:00073180       ?_Insert@?$_Tree@V?$_Tmap_traits@HHU?$less@H@std@@V?$allocator@U?$pair@$$CBHH@std@@@2@$0A@@std@@@std@@QAE?AV?$_Tree_iterator@V?$_Tree_val@V?$_Tmap_traits@HHU?$less@H@std@@V?$allocator@U?$pair@$$CBHH@std@@@2@$0A@@std@@@std@@@2@V?$_Tree_const_iterator@V?$_Tree_val@V?$_Tmap_traits@HHU?$less@H@std@@V?$allocator@U?$pair@$$CBHH@std@@@2@$0A@@std@@@std@@@2@PAU_Node@?$_Tree_nod@V?$_Tmap_traits@HHU?$less@H@std@@V?$allocator@U?$pair@$$CBHH@std@@@2@$0A@@std@@@2@@Z 00551180 f i Func.obj
 0002:00073990       ?destroy@?$allocator@U?$pair@$$CBHUALLCLIENT_ROOM_INFO@@@std@@@std@@QAEXPAU?$pair@$$CBHUALLCLIENT_ROOM_INFO@@@2@@Z 00551990 f i Func.obj
 0002:000739f0       ?construct@?$allocator@UGUSER_INFO@@@std@@QAEXPAUGUSER_INFO@@ABU3@@Z 005519f0 f i Func.obj
 0002:00073a50       ?begin@?$_Tree@V?$_Tmap_traits@HHU?$less@H@std@@V?$allocator@U?$pair@$$CBHH@std@@@2@$0A@@std@@@std@@QAE?AV?$_Tree_iterator@V?$_Tree_val@V?$_Tmap_traits@HHU?$less@H@std@@V?$allocator@U?$pair@$$CBHH@std@@@2@$0A@@std@@@std@@@2@XZ 00551a50 f i Func.obj
 0002:00073ac0       ?size@?$_Tree@V?$_Tmap_traits@HHU?$less@H@std@@V?$allocator@U?$pair@$$CBHH@std@@@2@$0A@@std@@@std@@QBEIXZ 00551ac0 f i Func.obj
 0002:00073b00       ?_Linsert@?$_Tree@V?$_Tmap_traits@HHU?$less@H@std@@V?$allocator@U?$pair@$$CBHH@std@@@2@$0A@@std@@@std@@QAE?AU?$pair@V?$_Tree_iterator@V?$_Tree_val@V?$_Tmap_traits@HHU?$less@H@std@@V?$allocator@U?$pair@$$CBHH@std@@@2@$0A@@std@@@std@@@std@@_N@2@PAU_Node@?$_Tree_nod@V?$_Tmap_traits@HHU?$less@H@std@@V?$allocator@U?$pair@$$CBHH@std@@@2@$0A@@std@@@2@_N@Z 00551b00 f i Func.obj
 0002:00073e80       ?_Insert@?$_Tree@V?$_Tmap_traits@HHU?$less@H@std@@V?$allocator@U?$pair@$$CBHH@std@@@2@$0A@@std@@@std@@IAE?AV?$_Tree_iterator@V?$_Tree_val@V?$_Tmap_traits@HHU?$less@H@std@@V?$allocator@U?$pair@$$CBHH@std@@@2@$0A@@std@@@std@@@2@_NPAU_Node@?$_Tree_nod@V?$_Tmap_traits@HHU?$less@H@std@@V?$allocator@U?$pair@$$CBHH@std@@@2@$0A@@std@@@2@1@Z 00551e80 f i Func.obj
 0002:00074400       ?_Rmost@?$_Tree@V?$_Tmap_traits@HHU?$less@H@std@@V?$allocator@U?$pair@$$CBHH@std@@@2@$0A@@std@@@std@@IBEAAPAU_Node@?$_Tree_nod@V?$_Tmap_traits@HHU?$less@H@std@@V?$allocator@U?$pair@$$CBHH@std@@@2@$0A@@std@@@2@XZ 00552400 f i Func.obj
 0002:00074460       ??0?$_Tree_const_iterator@V?$_Tree_val@V?$_Tmap_traits@HHU?$less@H@std@@V?$allocator@U?$pair@$$CBHH@std@@@2@$0A@@std@@@std@@@std@@QAE@XZ 00552460 f i Func.obj
 0002:000744c0       ??E?$_Tree_const_iterator@V?$_Tree_val@V?$_Tmap_traits@HHU?$less@H@std@@V?$allocator@U?$pair@$$CBHH@std@@@2@$0A@@std@@@std@@@std@@QAEAAV01@XZ 005524c0 f i Func.obj
 0002:00074520       ??F?$_Tree_const_iterator@V?$_Tree_val@V?$_Tmap_traits@HHU?$less@H@std@@V?$allocator@U?$pair@$$CBHH@std@@@2@$0A@@std@@@std@@@std@@QAEAAV01@XZ 00552520 f i Func.obj
 0002:00074580       ?max_size@?$_Tree@V?$_Tmap_traits@HHU?$less@H@std@@V?$allocator@U?$pair@$$CBHH@std@@@2@$0A@@std@@@std@@QBEIXZ 00552580 f i Func.obj
 0002:000745e0       ?_Lmost@?$_Tree@V?$_Tmap_traits@HHU?$less@H@std@@V?$allocator@U?$pair@$$CBHH@std@@@2@$0A@@std@@@std@@IBEAAPAU_Node@?$_Tree_nod@V?$_Tmap_traits@HHU?$less@H@std@@V?$allocator@U?$pair@$$CBHH@std@@@2@$0A@@std@@@2@XZ 005525e0 f i Func.obj
 0002:00074640       ?_Lrotate@?$_Tree@V?$_Tmap_traits@HHU?$less@H@std@@V?$allocator@U?$pair@$$CBHH@std@@@2@$0A@@std@@@std@@IAEXPAU_Node@?$_Tree_nod@V?$_Tmap_traits@HHU?$less@H@std@@V?$allocator@U?$pair@$$CBHH@std@@@2@$0A@@std@@@2@@Z 00552640 f i Func.obj
 0002:000747f0       ?_Rrotate@?$_Tree@V?$_Tmap_traits@HHU?$less@H@std@@V?$allocator@U?$pair@$$CBHH@std@@@2@$0A@@std@@@std@@IAEXPAU_Node@?$_Tree_nod@V?$_Tmap_traits@HHU?$less@H@std@@V?$allocator@U?$pair@$$CBHH@std@@@2@$0A@@std@@@2@@Z 005527f0 f i Func.obj
 0002:000749a0       ?_Color@?$_Tree_val@V?$_Tmap_traits@HHU?$less@H@std@@V?$allocator@U?$pair@$$CBHH@std@@@2@$0A@@std@@@std@@SAAADPAU_Node@?$_Tree_nod@V?$_Tmap_traits@HHU?$less@H@std@@V?$allocator@U?$pair@$$CBHH@std@@@2@$0A@@std@@@2@@Z 005529a0 f i Func.obj
 0002:000749e0       ?deallocate@?$allocator@U_Node@?$_Tree_nod@V?$_Tmap_traits@HHU?$less@H@std@@V?$allocator@U?$pair@$$CBHH@std@@@2@$0A@@std@@@std@@@std@@QAEXPAU_Node@?$_Tree_nod@V?$_Tmap_traits@HHU?$less@H@std@@V?$allocator@U?$pair@$$CBHH@std@@@2@$0A@@std@@@2@I@Z 005529e0 f i Func.obj
 0002:00074a40       ??F?$_Tree_iterator@V?$_Tree_val@V?$_Tmap_traits@HHU?$less@H@std@@V?$allocator@U?$pair@$$CBHH@std@@@2@$0A@@std@@@std@@@std@@QAEAAV01@XZ 00552a40 f i Func.obj
 0002:00074aa0       ??0?$_Tree_unchecked_const_iterator@V?$_Tree_val@V?$_Tmap_traits@HHU?$less@H@std@@V?$allocator@U?$pair@$$CBHH@std@@@2@$0A@@std@@@std@@U_Iterator_base0@2@@std@@QAE@XZ 00552aa0 f i Func.obj
 0002:00074af0       ??E?$_Tree_unchecked_const_iterator@V?$_Tree_val@V?$_Tmap_traits@HHU?$less@H@std@@V?$allocator@U?$pair@$$CBHH@std@@@2@$0A@@std@@@std@@U_Iterator_base0@2@@std@@QAEAAV01@XZ 00552af0 f i Func.obj
 0002:00074c10       ??F?$_Tree_unchecked_const_iterator@V?$_Tree_val@V?$_Tmap_traits@HHU?$less@H@std@@V?$allocator@U?$pair@$$CBHH@std@@@2@$0A@@std@@@std@@U_Iterator_base0@2@@std@@QAEAAV01@XZ 00552c10 f i Func.obj
 0002:00074d60       ??0?$pair@V?$_Tree_iterator@V?$_Tree_val@V?$_Tmap_traits@HHU?$less@H@std@@V?$allocator@U?$pair@$$CBHH@std@@@2@$0A@@std@@@std@@@std@@_N@std@@QAE@$$QAV?$_Tree_iterator@V?$_Tree_val@V?$_Tmap_traits@HHU?$less@H@std@@V?$allocator@U?$pair@$$CBHH@std@@@2@$0A@@std@@@std@@@1@$$QA_N@Z 00552d60 f i Func.obj
 0002:00074de0       ?_Max@?$_Tree_val@V?$_Tmap_traits@HHU?$less@H@std@@V?$allocator@U?$pair@$$CBHH@std@@@2@$0A@@std@@@std@@SAPAU_Node@?$_Tree_nod@V?$_Tmap_traits@HHU?$less@H@std@@V?$allocator@U?$pair@$$CBHH@std@@@2@$0A@@std@@@2@PAU342@@Z 00552de0 f i Func.obj
 0002:00074e60       ?_Min@?$_Tree_val@V?$_Tmap_traits@HHU?$less@H@std@@V?$allocator@U?$pair@$$CBHH@std@@@2@$0A@@std@@@std@@SAPAU_Node@?$_Tree_nod@V?$_Tmap_traits@HHU?$less@H@std@@V?$allocator@U?$pair@$$CBHH@std@@@2@$0A@@std@@@2@PAU342@@Z 00552e60 f i Func.obj
 0002:00074ee0       ?max_size@?$allocator@U?$pair@$$CBHH@std@@@std@@QBEIXZ 00552ee0 f i Func.obj
 0002:00074f50       ??0?$_Pair_base@V?$_Tree_iterator@V?$_Tree_val@V?$_Tmap_traits@HHU?$less@H@std@@V?$allocator@U?$pair@$$CBHH@std@@@2@$0A@@std@@@std@@@std@@_N@std@@QAE@$$QAV?$_Tree_iterator@V?$_Tree_val@V?$_Tmap_traits@HHU?$less@H@std@@V?$allocator@U?$pair@$$CBHH@std@@@2@$0A@@std@@@std@@@1@$$QA_N@Z 00552f50 f i Func.obj
 0002:00074fd0       ??$_Unchecked@V?$_Vector_val@UUSER_ROOMCLIENT_INFO@@V?$allocator@UUSER_ROOMCLIENT_INFO@@@std@@@std@@@std@@YAPAUUSER_ROOMCLIENT_INFO@@V?$_Vector_iterator@V?$_Vector_val@UUSER_ROOMCLIENT_INFO@@V?$allocator@UUSER_ROOMCLIENT_INFO@@@std@@@std@@@0@@Z 00552fd0 f i Func.obj
 0002:00075020       ??$_Find@PAUUSER_ROOMCLIENT_INFO@@U1@@std@@YAPAUUSER_ROOMCLIENT_INFO@@PAU1@0ABU1@@Z 00553020 f i Func.obj
 0002:000750a0       ??$_Rechecked@V?$_Vector_val@UUSER_ROOMCLIENT_INFO@@V?$allocator@UUSER_ROOMCLIENT_INFO@@@std@@@std@@@std@@YAAAV?$_Vector_iterator@V?$_Vector_val@UUSER_ROOMCLIENT_INFO@@V?$allocator@UUSER_ROOMCLIENT_INFO@@@std@@@std@@@0@AAV10@PAUUSER_ROOMCLIENT_INFO@@@Z 005530a0 f i Func.obj
 0002:000750f0       ??$forward@AAUUSER_ROOMCLIENT_INFO@@@std@@YAAAUUSER_ROOMCLIENT_INFO@@AAU1@@Z 005530f0 f i Func.obj
 0002:00075130       ??$construct@AAUUSER_ROOMCLIENT_INFO@@@?$allocator@UUSER_ROOMCLIENT_INFO@@@std@@QAEXPAUUSER_ROOMCLIENT_INFO@@AAU2@@Z 00553130 f i Func.obj
 0002:00075240       ??$forward@ABUUSER_ROOMCLIENT_INFO@@@std@@YAABUUSER_ROOMCLIENT_INFO@@ABU1@@Z 00553240 f i Func.obj
 0002:00075280       ??$forward@U?$pair@$$CBHH@std@@@std@@YA$$QAU?$pair@$$CBHH@0@AAU10@@Z 00553280 f i Func.obj
 0002:000752c0       ??$_Buynode@U?$pair@$$CBHH@std@@@?$_Tree_val@V?$_Tmap_traits@HHU?$less@H@std@@V?$allocator@U?$pair@$$CBHH@std@@@2@$0A@@std@@@std@@QAEPAU_Node@?$_Tree_nod@V?$_Tmap_traits@HHU?$less@H@std@@V?$allocator@U?$pair@$$CBHH@std@@@2@$0A@@std@@@1@$$QAU?$pair@$$CBHH@1@@Z 005532c0 f i Func.obj
 0002:00075410       ??$_Ptr_cat@URECEIVED_MSG@@U1@@std@@YA?AU_Nonscalar_ptr_iterator_tag@0@PAURECEIVED_MSG@@0@Z 00553410 f i Func.obj
 0002:00075480       ??$_Move@PAURECEIVED_MSG@@PAU1@@std@@YAPAURECEIVED_MSG@@PAU1@00U_Nonscalar_ptr_iterator_tag@0@@Z 00553480 f i Func.obj
 0002:00075510       ??$forward@AAUGUSER_INFO@@@std@@YAAAUGUSER_INFO@@AAU1@@Z 00553510 f i Func.obj
 0002:00075550       ??$construct@AAUGUSER_INFO@@@?$allocator@UGUSER_INFO@@@std@@QAEXPAUGUSER_INFO@@AAU2@@Z 00553550 f i Func.obj
 0002:00075660       ??$forward@ABUGUSER_INFO@@@std@@YAABUGUSER_INFO@@ABU1@@Z 00553660 f i Func.obj
 0002:000756a0       ??$_Ptr_cat@UGUSER_INFO@@U1@@std@@YA?AU_Nonscalar_ptr_iterator_tag@0@PAUGUSER_INFO@@0@Z 005536a0 f i Func.obj
 0002:00075710       ??$_Move@PAUGUSER_INFO@@PAU1@@std@@YAPAUGUSER_INFO@@PAU1@00U_Nonscalar_ptr_iterator_tag@0@@Z 00553710 f i Func.obj
 0002:000757a0       ??$_Destroy_range@V?$allocator@URECEIVED_MSG@@@std@@@std@@YAXPAURECEIVED_MSG@@0AAV?$allocator@URECEIVED_MSG@@@0@U_Nonscalar_ptr_iterator_tag@0@@Z 005537a0 f i Func.obj
 0002:00075810       ??$_Destroy_range@V?$allocator@UGUSER_INFO@@@std@@@std@@YAXPAUGUSER_INFO@@0AAV?$allocator@UGUSER_INFO@@@0@U_Nonscalar_ptr_iterator_tag@0@@Z 00553810 f i Func.obj
 0002:00075880       ??$_Uninitialized_move@PAUUSER_ROOMCLIENT_INFO@@PAU1@V?$allocator@UUSER_ROOMCLIENT_INFO@@@std@@@std@@YAPAUUSER_ROOMCLIENT_INFO@@PAU1@00AAV?$allocator@UUSER_ROOMCLIENT_INFO@@@0@@Z 00553880 f i Func.obj
 0002:00075920       ??$_Uninitialized_move@PAUGUSER_INFO@@PAU1@V?$allocator@UGUSER_INFO@@@std@@@std@@YAPAUGUSER_INFO@@PAU1@00AAV?$allocator@UGUSER_INFO@@@0@@Z 00553920 f i Func.obj
 0002:000759c0       ??$_Ptr_cat@UUSER_ROOMCLIENT_INFO@@U1@@std@@YA?AU_Nonscalar_ptr_iterator_tag@0@PAUUSER_ROOMCLIENT_INFO@@0@Z 005539c0 f i Func.obj
 0002:00075a30       ??$_Destroy_range@V?$allocator@UUSER_ROOMCLIENT_INFO@@@std@@@std@@YAXPAUUSER_ROOMCLIENT_INFO@@0AAV?$allocator@UUSER_ROOMCLIENT_INFO@@@0@U_Nonscalar_ptr_iterator_tag@0@@Z 00553a30 f i Func.obj
 0002:00075aa0       ??$_Construct@UUSER_ROOMCLIENT_INFO@@ABU1@@std@@YAXPAUUSER_ROOMCLIENT_INFO@@ABU1@@Z 00553aa0 f i Func.obj
 0002:00075bb0       ??$_Destroy@U?$pair@$$CBHUALLCLIENT_ROOM_INFO@@@std@@@std@@YAXPAU?$pair@$$CBHUALLCLIENT_ROOM_INFO@@@0@@Z 00553bb0 f i Func.obj
 0002:00075be0       ??$_Construct@UGUSER_INFO@@ABU1@@std@@YAXPAUGUSER_INFO@@ABU1@@Z 00553be0 f i Func.obj
 0002:00075cf0       ??$addressof@U?$pair@$$CBHH@std@@@std@@YAPAU?$pair@$$CBHH@0@AAU10@@Z 00553cf0 f i Func.obj
 0002:00075d30       ??$_Dest_val@V?$allocator@U?$pair@$$CBHH@std@@@std@@U?$pair@$$CBHH@2@@std@@YAXAAV?$allocator@U?$pair@$$CBHH@std@@@0@PAU?$pair@$$CBHH@0@@Z 00553d30 f i Func.obj
 0002:00075d80       ??$?0AAV?$_Tree_iterator@V?$_Tree_val@V?$_Tmap_traits@HHU?$less@H@std@@V?$allocator@U?$pair@$$CBHH@std@@@2@$0A@@std@@@std@@@std@@_N@?$pair@V?$_Tree_iterator@V?$_Tree_val@V?$_Tmap_traits@HHU?$less@H@std@@V?$allocator@U?$pair@$$CBHH@std@@@2@$0A@@std@@@std@@@std@@_N@std@@QAE@AAV?$_Tree_iterator@V?$_Tree_val@V?$_Tmap_traits@HHU?$less@H@std@@V?$allocator@U?$pair@$$CBHH@std@@@2@$0A@@std@@@std@@@1@$$QA_N@Z 00553d80 f i Func.obj
 0002:00075e00       ??$move@AAV?$_Tree_iterator@V?$_Tree_val@V?$_Tmap_traits@HHU?$less@H@std@@V?$allocator@U?$pair@$$CBHH@std@@@2@$0A@@std@@@std@@@std@@@std@@YA$$QAV?$_Tree_iterator@V?$_Tree_val@V?$_Tmap_traits@HHU?$less@H@std@@V?$allocator@U?$pair@$$CBHH@std@@@2@$0A@@std@@@std@@@0@AAV10@@Z 00553e00 f i Func.obj
 0002:00075e40       ?_Buynode@?$_Tree_val@V?$_Tmap_traits@HHU?$less@H@std@@V?$allocator@U?$pair@$$CBHH@std@@@2@$0A@@std@@@std@@QAEPAU_Node@?$_Tree_nod@V?$_Tmap_traits@HHU?$less@H@std@@V?$allocator@U?$pair@$$CBHH@std@@@2@$0A@@std@@@2@XZ 00553e40 f i Func.obj
 0002:00075f10       ?destroy@?$allocator@U?$pair@$$CBHH@std@@@std@@QAEXPAU?$pair@$$CBHH@2@@Z 00553f10 f i Func.obj
 0002:00075f70       ?_Rechecked@?$_Vector_iterator@V?$_Vector_val@UUSER_ROOMCLIENT_INFO@@V?$allocator@UUSER_ROOMCLIENT_INFO@@@std@@@std@@@std@@QAEAAV12@PAUUSER_ROOMCLIENT_INFO@@@Z 00553f70 f i Func.obj
 0002:00075fc0       ?_Unchecked@?$_Vector_iterator@V?$_Vector_val@UUSER_ROOMCLIENT_INFO@@V?$allocator@UUSER_ROOMCLIENT_INFO@@@std@@@std@@@std@@QBEPAUUSER_ROOMCLIENT_INFO@@XZ 00553fc0 f i Func.obj
 0002:00076000       ?allocate@?$allocator@U_Node@?$_Tree_nod@V?$_Tmap_traits@HHU?$less@H@std@@V?$allocator@U?$pair@$$CBHH@std@@@2@$0A@@std@@@std@@@std@@QAEPAU_Node@?$_Tree_nod@V?$_Tmap_traits@HHU?$less@H@std@@V?$allocator@U?$pair@$$CBHH@std@@@2@$0A@@std@@@2@I@Z 00554000 f i Func.obj
 0002:00076060       ??$_Cons_val@V?$allocator@U?$pair@$$CBHH@std@@@std@@U?$pair@$$CBHH@2@U32@@std@@YAXAAV?$allocator@U?$pair@$$CBHH@std@@@0@PAU?$pair@$$CBHH@0@$$QAU20@@Z 00554060 f i Func.obj
 0002:000760c0       ??$move@AAURECEIVED_MSG@@@std@@YA$$QAURECEIVED_MSG@@AAU1@@Z 005540c0 f i Func.obj
 0002:00076100       ??$move@AAUGUSER_INFO@@@std@@YA$$QAUGUSER_INFO@@AAU1@@Z 00554100 f i Func.obj
 0002:00076140       ??$_Dest_val@V?$allocator@URECEIVED_MSG@@@std@@URECEIVED_MSG@@@std@@YAXAAV?$allocator@URECEIVED_MSG@@@0@PAURECEIVED_MSG@@@Z 00554140 f i Func.obj
 0002:00076190       ??$_Dest_val@V?$allocator@UGUSER_INFO@@@std@@UGUSER_INFO@@@std@@YAXAAV?$allocator@UGUSER_INFO@@@0@PAUGUSER_INFO@@@Z 00554190 f i Func.obj
 0002:000761e0       ??$_Val_type@PAUUSER_ROOMCLIENT_INFO@@@std@@YAPAUUSER_ROOMCLIENT_INFO@@PAU1@@Z 005541e0 f i Func.obj
 0002:00076210       ??$_Uninit_move@PAUUSER_ROOMCLIENT_INFO@@PAU1@V?$allocator@UUSER_ROOMCLIENT_INFO@@@std@@U1@@std@@YAPAUUSER_ROOMCLIENT_INFO@@PAU1@00AAV?$allocator@UUSER_ROOMCLIENT_INFO@@@0@0U_Nonscalar_ptr_iterator_tag@0@@Z 00554210 f i Func.obj
 0002:00076340       ??$_Val_type@PAUGUSER_INFO@@@std@@YAPAUGUSER_INFO@@PAU1@@Z 00554340 f i Func.obj
 0002:00076370       ??$_Uninit_move@PAUGUSER_INFO@@PAU1@V?$allocator@UGUSER_INFO@@@std@@U1@@std@@YAPAUGUSER_INFO@@PAU1@00AAV?$allocator@UGUSER_INFO@@@0@0U_Nonscalar_ptr_iterator_tag@0@@Z 00554370 f i Func.obj
 0002:00076490       ??$_Dest_val@V?$allocator@UUSER_ROOMCLIENT_INFO@@@std@@UUSER_ROOMCLIENT_INFO@@@std@@YAXAAV?$allocator@UUSER_ROOMCLIENT_INFO@@@0@PAUUSER_ROOMCLIENT_INFO@@@Z 00554490 f i Func.obj
 0002:000764e0       ??$forward@AAV?$_Tree_iterator@V?$_Tree_val@V?$_Tmap_traits@HHU?$less@H@std@@V?$allocator@U?$pair@$$CBHH@std@@@2@$0A@@std@@@std@@@std@@@std@@YAAAV?$_Tree_iterator@V?$_Tree_val@V?$_Tmap_traits@HHU?$less@H@std@@V?$allocator@U?$pair@$$CBHH@std@@@2@$0A@@std@@@std@@@0@AAV10@@Z 005544e0 f i Func.obj
 0002:00076520       ??$?0AAV?$_Tree_iterator@V?$_Tree_val@V?$_Tmap_traits@HHU?$less@H@std@@V?$allocator@U?$pair@$$CBHH@std@@@2@$0A@@std@@@std@@@std@@_N@?$_Pair_base@V?$_Tree_iterator@V?$_Tree_val@V?$_Tmap_traits@HHU?$less@H@std@@V?$allocator@U?$pair@$$CBHH@std@@@2@$0A@@std@@@std@@@std@@_N@std@@QAE@AAV?$_Tree_iterator@V?$_Tree_val@V?$_Tmap_traits@HHU?$less@H@std@@V?$allocator@U?$pair@$$CBHH@std@@@2@$0A@@std@@@std@@@1@$$QA_N@Z 00554520 f i Func.obj
 0002:000765a0       ??$_Destroy@U?$pair@$$CBHH@std@@@std@@YAXPAU?$pair@$$CBHH@0@@Z 005545a0 f i Func.obj
 0002:000765d0       ??$_Allocate@U_Node@?$_Tree_nod@V?$_Tmap_traits@HHU?$less@H@std@@V?$allocator@U?$pair@$$CBHH@std@@@2@$0A@@std@@@std@@@std@@YAPAU_Node@?$_Tree_nod@V?$_Tmap_traits@HHU?$less@H@std@@V?$allocator@U?$pair@$$CBHH@std@@@2@$0A@@std@@@0@IPAU120@@Z 005545d0 f i Func.obj
 0002:00076680       ?destroy@?$allocator@UUSER_ROOMCLIENT_INFO@@@std@@QAEXPAUUSER_ROOMCLIENT_INFO@@@Z 00554680 f i Func.obj
 0002:000766e0       ?construct@?$allocator@U?$pair@$$CBHH@std@@@std@@QAEXPAU?$pair@$$CBHH@2@$$QAU32@@Z 005546e0 f i Func.obj
 0002:000767e0       ?destroy@?$allocator@URECEIVED_MSG@@@std@@QAEXPAURECEIVED_MSG@@@Z 005547e0 f i Func.obj
 0002:00076840       ?destroy@?$allocator@UGUSER_INFO@@@std@@QAEXPAUGUSER_INFO@@@Z 00554840 f i Func.obj
 0002:000768a0       ??$_Cons_val@V?$allocator@UUSER_ROOMCLIENT_INFO@@@std@@UUSER_ROOMCLIENT_INFO@@U3@@std@@YAXAAV?$allocator@UUSER_ROOMCLIENT_INFO@@@0@PAUUSER_ROOMCLIENT_INFO@@$$QAU2@@Z 005548a0 f i Func.obj
 0002:00076900       ??$_Cons_val@V?$allocator@UGUSER_INFO@@@std@@UGUSER_INFO@@U3@@std@@YAXAAV?$allocator@UGUSER_INFO@@@0@PAUGUSER_INFO@@$$QAU2@@Z 00554900 f i Func.obj
 0002:00076960       ??$_Destroy@UUSER_ROOMCLIENT_INFO@@@std@@YAXPAUUSER_ROOMCLIENT_INFO@@@Z 00554960 f i Func.obj
 0002:00076990       ??$?0$$CBHH@?$pair@$$CBHH@std@@QAE@$$QAU01@@Z 00554990 f i Func.obj
 0002:00076a10       ??$_Destroy@URECEIVED_MSG@@@std@@YAXPAURECEIVED_MSG@@@Z 00554a10 f i Func.obj
 0002:00076a40       ??$_Destroy@UGUSER_INFO@@@std@@YAXPAUGUSER_INFO@@@Z 00554a40 f i Func.obj
 0002:00076a70       ?construct@?$allocator@UUSER_ROOMCLIENT_INFO@@@std@@QAEXPAUUSER_ROOMCLIENT_INFO@@$$QAU3@@Z 00554a70 f i Func.obj
 0002:00076b80       ?construct@?$allocator@UGUSER_INFO@@@std@@QAEXPAUGUSER_INFO@@$$QAU3@@Z 00554b80 f i Func.obj
 0002:00076c90       ??0?$_Pair_base@$$CBHH@std@@QAE@$$QBH$$QAH@Z 00554c90 f i Func.obj
 0002:00076d10       ??$forward@UUSER_ROOMCLIENT_INFO@@@std@@YA$$QAUUSER_ROOMCLIENT_INFO@@AAU1@@Z 00554d10 f i Func.obj
 0002:00076d50       ??$forward@UGUSER_INFO@@@std@@YA$$QAUGUSER_INFO@@AAU1@@Z 00554d50 f i Func.obj
 0002:00076d90       ??$forward@H@std@@YA$$QAHAAH@Z 00554d90 f i Func.obj
 0002:00076dd0       ?Format@CTime@ATL@@QBE?AV?$CStringT@DV?$StrTraitMFC_DLL@DV?$ChTraitsCRT@D@ATL@@@@@2@PBD@Z 00554dd0 f i Func.obj
 0002:00076f80       ??3GdiplusBase@Gdiplus@@SAXPAX@Z 00554f80 f i Func.obj
 0002:00076fd0       ??2GdiplusBase@Gdiplus@@SAPAXI@Z 00554fd0 f i Func.obj
 0002:00077020       ??0RectF@Gdiplus@@QAE@MMMM@Z 00555020 f i Func.obj
 0002:00077090       ??0Rect@Gdiplus@@QAE@HHHH@Z 00555090 f i Func.obj
 0002:00077100       ??0Color@Gdiplus@@QAE@XZ   00555100 f i Func.obj
 0002:00077150       ??0Color@Gdiplus@@QAE@K@Z  00555150 f i Func.obj
 0002:000771a0       ?GetA@Color@Gdiplus@@QBEEXZ 005551a0 f i Func.obj
 0002:000771f0       ?GetAlpha@Color@Gdiplus@@QBEEXZ 005551f0 f i Func.obj
 0002:00077230       ?GetR@Color@Gdiplus@@QBEEXZ 00555230 f i Func.obj
 0002:00077280       ?GetRed@Color@Gdiplus@@QBEEXZ 00555280 f i Func.obj
 0002:000772c0       ?GetG@Color@Gdiplus@@QBEEXZ 005552c0 f i Func.obj
 0002:00077310       ?GetGreen@Color@Gdiplus@@QBEEXZ 00555310 f i Func.obj
 0002:00077350       ?GetB@Color@Gdiplus@@QBEEXZ 00555350 f i Func.obj
 0002:000773a0       ?GetBlue@Color@Gdiplus@@QBEEXZ 005553a0 f i Func.obj
 0002:000773e0       ?MakeARGB@Color@Gdiplus@@SAKEEEE@Z 005553e0 f i Func.obj
 0002:00077440       ??0ImageAttributes@Gdiplus@@QAE@XZ 00555440 f i Func.obj
 0002:000774b0       ??1ImageAttributes@Gdiplus@@QAE@XZ 005554b0 f i Func.obj
 0002:00077510       ?SetColorMatrix@ImageAttributes@Gdiplus@@QAE?AW4Status@2@PBUColorMatrix@2@W4ColorMatrixFlags@2@W4ColorAdjustType@2@@Z 00555510 f i Func.obj
 0002:00077590       ?SetStatus@ImageAttributes@Gdiplus@@IBE?AW4Status@2@W432@@Z 00555590 f i Func.obj
 0002:000775f0       ?FromImage@Graphics@Gdiplus@@SAPAV12@PAVImage@2@@Z 005555f0 f i Func.obj
 0002:000776e0       ??0Graphics@Gdiplus@@QAE@PAVImage@1@@Z 005556e0 f i Func.obj
 0002:000777a0       ??1Graphics@Gdiplus@@QAE@XZ 005557a0 f i Func.obj
 0002:00077800       ?SetInterpolationMode@Graphics@Gdiplus@@QAE?AW4Status@2@W4InterpolationMode@2@@Z 00555800 f i Func.obj
 0002:00077870       ?SetSmoothingMode@Graphics@Gdiplus@@QAE?AW4Status@2@W4SmoothingMode@2@@Z 00555870 f i Func.obj
 0002:000778e0       ?DrawImage@Graphics@Gdiplus@@QAE?AW4Status@2@PAVImage@2@HH@Z 005558e0 f i Func.obj
 0002:00077980       ?DrawImage@Graphics@Gdiplus@@QAE?AW4Status@2@PAVImage@2@ABVRectF@2@MMMMW4Unit@2@PBVImageAttributes@2@P6GHPAX@Z4@Z 00555980 f i Func.obj
 0002:00077aa0       ?DrawImage@Graphics@Gdiplus@@QAE?AW4Status@2@PAVImage@2@ABVRect@2@HHHHW4Unit@2@PBVImageAttributes@2@P6GHPAX@Z4@Z 00555aa0 f i Func.obj
 0002:00077ba0       ?SetNativeGraphics@Graphics@Gdiplus@@IAEXPAVGpGraphics@2@@Z 00555ba0 f i Func.obj
 0002:00077bf0       ?SetStatus@Graphics@Gdiplus@@IBE?AW4Status@2@W432@@Z 00555bf0 f i Func.obj
 0002:00077c50       ??0Image@Gdiplus@@QAE@PB_WH@Z 00555c50 f i Func.obj
 0002:00077d00       ??_EImage@Gdiplus@@UAEPAXI@Z 00555d00 f i Func.obj
 0002:00077d00       ??_GImage@Gdiplus@@UAEPAXI@Z 00555d00 f i Func.obj
 0002:00077d70       ??1Image@Gdiplus@@UAE@XZ   00555d70 f i Func.obj
 0002:00077dd0       ?Clone@Image@Gdiplus@@UAEPAV12@XZ 00555dd0 f i Func.obj
 0002:00077f30       ?SetStatus@Image@Gdiplus@@IBE?AW4Status@2@W432@@Z 00555f30 f i Func.obj
 0002:00077f90       ?Save@Image@Gdiplus@@QAE?AW4Status@2@PB_WPBU_GUID@@PBVEncoderParameters@2@@Z 00555f90 f i Func.obj
 0002:00078000       ?GetWidth@Image@Gdiplus@@QAEIXZ 00556000 f i Func.obj
 0002:000780b0       ?GetHeight@Image@Gdiplus@@QAEIXZ 005560b0 f i Func.obj
 0002:00078160       ?GetLastStatus@Image@Gdiplus@@QBE?AW4Status@2@XZ 00556160 f i Func.obj
 0002:000781b0       ??0Image@Gdiplus@@IAE@PAVGpImage@1@W4Status@1@@Z 005561b0 f i Func.obj
 0002:00078220       ?SetNativeImage@Image@Gdiplus@@IAEXPAVGpImage@2@@Z 00556220 f i Func.obj
 0002:00078270       ??0Bitmap@Gdiplus@@QAE@PB_WH@Z 00556270 f i Func.obj
 0002:000783a0       ??0Image@Gdiplus@@IAE@XZ   005563a0 f i Func.obj
 0002:000783f0       ??_EBitmap@Gdiplus@@UAEPAXI@Z 005563f0 f i Func.obj
 0002:000783f0       ??_GBitmap@Gdiplus@@UAEPAXI@Z 005563f0 f i Func.obj
 0002:00078460       ??1Bitmap@Gdiplus@@UAE@XZ  00556460 f i Func.obj
 0002:000784b0       ??0Bitmap@Gdiplus@@QAE@HHH@Z 005564b0 f i Func.obj
 0002:000785d0       ?GetPixel@Bitmap@Gdiplus@@QAE?AW4Status@2@HHPAVColor@2@@Z 005565d0 f i Func.obj
 0002:000786a0       ?SetValue@Color@Gdiplus@@QAEXK@Z 005566a0 f i Func.obj
 0002:000786f0       ?SetPixel@Bitmap@Gdiplus@@QAE?AW4Status@2@HHABVColor@2@@Z 005566f0 f i Func.obj
 0002:00078770       ?GetValue@Color@Gdiplus@@QBEKXZ 00556770 f i Func.obj
 0002:000787b0       ?GetImageEncodersSize@Gdiplus@@YA?AW4Status@1@PAI0@Z 005567b0 f i Func.obj
 0002:00078800       ?GetImageEncoders@Gdiplus@@YA?AW4Status@1@IIPAVImageCodecInfo@1@@Z 00556800 f i Func.obj
 0002:00078860       ?__nsprintf@@YAHPADJPBDZZ  00556860 f i Func.obj
 0002:00078920       ?Value@TiXmlNode@@QBEPBDXZ 00556920 f i Func.obj
 0002:00078980       ?c_str@TiXmlString@@QBEPBDXZ 00556980 f i Func.obj
 0002:000789c0       ?FirstChild@TiXmlNode@@QAEPAV1@XZ 005569c0 f i Func.obj
 0002:00078a00       ?FirstChild@TiXmlNode@@QAEPAV1@PBD@Z 00556a00 f i Func.obj
 0002:00078a60       ??1TiXmlDocument@@UAE@XZ   00556a60 f i Func.obj
 0002:00078b10       ??1TiXmlString@@QAE@XZ     00556b10 f i Func.obj
 0002:00078b60       ?quit@TiXmlString@@AAEXXZ  00556b60 f i Func.obj
 0002:00078be0       ?ToElement@TiXmlNode@@UBEPBVTiXmlElement@@XZ 00556be0 f i Func.obj
 0002:00078c20       ?ToComment@TiXmlNode@@UBEPBVTiXmlComment@@XZ 00556c20 f i Func.obj
 0002:00078c60       ?ToUnknown@TiXmlNode@@UBEPBVTiXmlUnknown@@XZ 00556c60 f i Func.obj
 0002:00078ca0       ?ToText@TiXmlNode@@UBEPBVTiXmlText@@XZ 00556ca0 f i Func.obj
 0002:00078ce0       ?ToDeclaration@TiXmlNode@@UBEPBVTiXmlDeclaration@@XZ 00556ce0 f i Func.obj
 0002:00078d20       ?ToElement@TiXmlNode@@UAEPAVTiXmlElement@@XZ 00556d20 f i Func.obj
 0002:00078d60       ?ToComment@TiXmlNode@@UAEPAVTiXmlComment@@XZ 00556d60 f i Func.obj
 0002:00078da0       ?ToUnknown@TiXmlNode@@UAEPAVTiXmlUnknown@@XZ 00556da0 f i Func.obj
 0002:00078de0       ?ToText@TiXmlNode@@UAEPAVTiXmlText@@XZ 00556de0 f i Func.obj
 0002:00078e20       ?ToDeclaration@TiXmlNode@@UAEPAVTiXmlDeclaration@@XZ 00556e20 f i Func.obj
 0002:00078e60       ?Error@TiXmlDocument@@QBE_NXZ 00556e60 f i Func.obj
 0002:00078ea0       ?ErrorDesc@TiXmlDocument@@QBEPBDXZ 00556ea0 f i Func.obj
 0002:00078f00       ?ToDocument@TiXmlDocument@@UBEPBV1@XZ 00556f00 f i Func.obj
 0002:00078f40       ?ToDocument@TiXmlDocument@@UAEPAV1@XZ 00556f40 f i Func.obj
 0002:00078f80       ??_ETiXmlDocument@@UAEPAXI@Z 00556f80 f i Func.obj
 0002:00078f80       ??_GTiXmlDocument@@UAEPAXI@Z 00556f80 f i Func.obj
 0002:00078ff0       ??0PACKAGE_HEADER@@QAE@XZ  00556ff0 f i Func.obj
 0002:00079050       ??0USER_ROOMCLIENT_INFO@@QAE@XZ 00557050 f i Func.obj
 0002:000790d0       ??8USER_ROOMCLIENT_INFO@@QAEHABU0@@Z 005570d0 f i Func.obj
 0002:00079160       ??HATL@@YA?AV?$CStringT@DV?$StrTraitMFC_DLL@DV?$ChTraitsCRT@D@ATL@@@@@0@ABV10@PBD@Z 00557160 f i Func.obj
 0002:00079310       ??0GenericHTTPClient@@QAE@XZ 00557310 f   GenericHTTPClient.obj
 0002:000793b0       ??_EGenericHTTPClient@@UAEPAXI@Z 005573b0 f i GenericHTTPClient.obj
 0002:000793b0       ??_GGenericHTTPClient@@UAEPAXI@Z 005573b0 f i GenericHTTPClient.obj
 0002:00079420       ??1GenericHTTPClient@@UAE@XZ 00557420 f   GenericHTTPClient.obj
 0002:000794b0       ?GetMethod@GenericHTTPClient@@SA?AW4RequestMethod@1@H@Z 005574b0 f   GenericHTTPClient.obj
 0002:00079510       ?GetPostArgumentType@GenericHTTPClient@@SA?AW4TypePostArgument@1@H@Z 00557510 f   GenericHTTPClient.obj
 0002:00079570       ?Connect@GenericHTTPClient@@QAEHPBD0G00@Z 00557570 f   GenericHTTPClient.obj
 0002:00079930       ?Close@GenericHTTPClient@@QAEHXZ 00557930 f   GenericHTTPClient.obj
 0002:00079a10       ?Request@GenericHTTPClient@@QAEHPBDH0@Z 00557a10 f   GenericHTTPClient.obj
 0002:00079c70       ?RequestOfURI@GenericHTTPClient@@QAEHPBDH@Z 00557c70 f   GenericHTTPClient.obj
 0002:00079ea0       ?RequestGet@GenericHTTPClient@@IAEHPBD@Z 00557ea0 f   GenericHTTPClient.obj
 0002:0007a260       ?RequestPost@GenericHTTPClient@@IAEHPBD@Z 00558260 f   GenericHTTPClient.obj
 0002:0007a770       ?RequestPostMultiPartsFormData@GenericHTTPClient@@IAEHPBD@Z 00558770 f   GenericHTTPClient.obj
 0002:0007b370       ?ResponseOfBytes@GenericHTTPClient@@IAEKPAEK@Z 00559370 f   GenericHTTPClient.obj
 0002:0007b5b0       ?Response@GenericHTTPClient@@QAEHPAEK0KAAK@Z 005595b0 f   GenericHTTPClient.obj
 0002:0007b920       ?AddPostArguments@GenericHTTPClient@@QAEXPBD0H@Z 00559920 f   GenericHTTPClient.obj
 0002:0007ba40       ?AddPostArguments@GenericHTTPClient@@QAEXPBDK@Z 00559a40 f   GenericHTTPClient.obj
 0002:0007bb60       ?GetPostArguments@GenericHTTPClient@@IAEKPADK@Z 00559b60 f   GenericHTTPClient.obj
 0002:0007bd10       ?InitilizePostArguments@GenericHTTPClient@@QAEXXZ 00559d10 f   GenericHTTPClient.obj
 0002:0007bd70       ?FreeMultiPartsFormData@GenericHTTPClient@@IAEXAAPAE@Z 00559d70 f   GenericHTTPClient.obj
 0002:0007bdf0       ?AllocMultiPartsFormData@GenericHTTPClient@@IAEKAAPAEPBD@Z 00559df0 f   GenericHTTPClient.obj
 0002:0007c370       ?GetMultiPartsFormDataLength@GenericHTTPClient@@IAEKXZ 0055a370 f   GenericHTTPClient.obj
 0002:0007c530       ?GetContentType@GenericHTTPClient@@QAEPBDPBD@Z 0055a530 f   GenericHTTPClient.obj
 0002:0007c700       __tcsncpy                  0055a700 f i GenericHTTPClient.obj
 0002:0007c770       __tcsncmp                  0055a770 f i GenericHTTPClient.obj
 0002:0007c7e0       ?GetLastError@GenericHTTPClient@@QAEKXZ 0055a7e0 f   GenericHTTPClient.obj
 0002:0007c820       ?ParseURLA@GenericHTTPClient@@QAEXPBDPAD1AAK1@Z 0055a820 f   GenericHTTPClient.obj
 0002:0007ccf0       __tcscmp                   0055acf0 f i GenericHTTPClient.obj
 0002:0007cd50       ?QueryHTTPResponseHeader@GenericHTTPClient@@QAEPBDXZ 0055ad50 f   GenericHTTPClient.obj
 0002:0007cd90       ?QueryHTTPResponse@GenericHTTPClient@@QAEPBDXZ 0055ad90 f   GenericHTTPClient.obj
 0002:0007cdd0       ?GetResponseBodySize@GenericHTTPClient@@QAEHXZ 0055add0 f   GenericHTTPClient.obj
 0002:0007ce10       ?UTF8ToUnicode@GenericHTTPClient@@QAEPA_WPBDI@Z 0055ae10 f   GenericHTTPClient.obj
 0002:0007cf20       ?UnicodeToACP@GenericHTTPClient@@QAEPADPB_WI@Z 0055af20 f   GenericHTTPClient.obj
 0002:0007d010       ??0?$vector@U__GENERIC_HTTP_ARGUMENT@GenericHTTPClient@@V?$allocator@U__GENERIC_HTTP_ARGUMENT@GenericHTTPClient@@@std@@@std@@QAE@XZ 0055b010 f i GenericHTTPClient.obj
 0002:0007d080       ??1?$vector@U__GENERIC_HTTP_ARGUMENT@GenericHTTPClient@@V?$allocator@U__GENERIC_HTTP_ARGUMENT@GenericHTTPClient@@@std@@@std@@QAE@XZ 0055b080 f i GenericHTTPClient.obj
 0002:0007d120       ?begin@?$vector@U__GENERIC_HTTP_ARGUMENT@GenericHTTPClient@@V?$allocator@U__GENERIC_HTTP_ARGUMENT@GenericHTTPClient@@@std@@@std@@QAE?AV?$_Vector_iterator@V?$_Vector_val@U__GENERIC_HTTP_ARGUMENT@GenericHTTPClient@@V?$allocator@U__GENERIC_HTTP_ARGUMENT@GenericHTTPClient@@@std@@@std@@@2@XZ 0055b120 f i GenericHTTPClient.obj
 0002:0007d190       ?end@?$vector@U__GENERIC_HTTP_ARGUMENT@GenericHTTPClient@@V?$allocator@U__GENERIC_HTTP_ARGUMENT@GenericHTTPClient@@@std@@@std@@QAE?AV?$_Vector_iterator@V?$_Vector_val@U__GENERIC_HTTP_ARGUMENT@GenericHTTPClient@@V?$allocator@U__GENERIC_HTTP_ARGUMENT@GenericHTTPClient@@@std@@@std@@@2@XZ 0055b190 f i GenericHTTPClient.obj
 0002:0007d200       ?push_back@?$vector@U__GENERIC_HTTP_ARGUMENT@GenericHTTPClient@@V?$allocator@U__GENERIC_HTTP_ARGUMENT@GenericHTTPClient@@@std@@@std@@QAEXABU__GENERIC_HTTP_ARGUMENT@GenericHTTPClient@@@Z 0055b200 f i GenericHTTPClient.obj
 0002:0007d390       ?clear@?$vector@U__GENERIC_HTTP_ARGUMENT@GenericHTTPClient@@V?$allocator@U__GENERIC_HTTP_ARGUMENT@GenericHTTPClient@@@std@@@std@@QAEXXZ 0055b390 f i GenericHTTPClient.obj
 0002:0007d440       ??0?$_Vector_iterator@V?$_Vector_val@U__GENERIC_HTTP_ARGUMENT@GenericHTTPClient@@V?$allocator@U__GENERIC_HTTP_ARGUMENT@GenericHTTPClient@@@std@@@std@@@std@@QAE@XZ 0055b440 f i GenericHTTPClient.obj
 0002:0007d4a0       ??C?$_Vector_iterator@V?$_Vector_val@U__GENERIC_HTTP_ARGUMENT@GenericHTTPClient@@V?$allocator@U__GENERIC_HTTP_ARGUMENT@GenericHTTPClient@@@std@@@std@@@std@@QBEPAU__GENERIC_HTTP_ARGUMENT@GenericHTTPClient@@XZ 0055b4a0 f i GenericHTTPClient.obj
 0002:0007d4f0       ??E?$_Vector_iterator@V?$_Vector_val@U__GENERIC_HTTP_ARGUMENT@GenericHTTPClient@@V?$allocator@U__GENERIC_HTTP_ARGUMENT@GenericHTTPClient@@@std@@@std@@@std@@QAEAAV01@XZ 0055b4f0 f i GenericHTTPClient.obj
 0002:0007d550       ??M?$_Vector_const_iterator@V?$_Vector_val@U__GENERIC_HTTP_ARGUMENT@GenericHTTPClient@@V?$allocator@U__GENERIC_HTTP_ARGUMENT@GenericHTTPClient@@@std@@@std@@@std@@QBE_NABV01@@Z 0055b550 f i GenericHTTPClient.obj
 0002:0007d5c0       ?erase@?$vector@U__GENERIC_HTTP_ARGUMENT@GenericHTTPClient@@V?$allocator@U__GENERIC_HTTP_ARGUMENT@GenericHTTPClient@@@std@@@std@@QAE?AV?$_Vector_iterator@V?$_Vector_val@U__GENERIC_HTTP_ARGUMENT@GenericHTTPClient@@V?$allocator@U__GENERIC_HTTP_ARGUMENT@GenericHTTPClient@@@std@@@std@@@2@V?$_Vector_const_iterator@V?$_Vector_val@U__GENERIC_HTTP_ARGUMENT@GenericHTTPClient@@V?$allocator@U__GENERIC_HTTP_ARGUMENT@GenericHTTPClient@@@std@@@std@@@2@0@Z 0055b5c0 f i GenericHTTPClient.obj
 0002:0007d6f0       ?_Inside@?$vector@U__GENERIC_HTTP_ARGUMENT@GenericHTTPClient@@V?$allocator@U__GENERIC_HTTP_ARGUMENT@GenericHTTPClient@@@std@@@std@@IBE_NPBU__GENERIC_HTTP_ARGUMENT@GenericHTTPClient@@@Z 0055b6f0 f i GenericHTTPClient.obj
 0002:0007d770       ?_Reserve@?$vector@U__GENERIC_HTTP_ARGUMENT@GenericHTTPClient@@V?$allocator@U__GENERIC_HTTP_ARGUMENT@GenericHTTPClient@@@std@@@std@@IAEXI@Z 0055b770 f i GenericHTTPClient.obj
 0002:0007d820       ?_Tidy@?$vector@U__GENERIC_HTTP_ARGUMENT@GenericHTTPClient@@V?$allocator@U__GENERIC_HTTP_ARGUMENT@GenericHTTPClient@@@std@@@std@@IAEXXZ 0055b820 f i GenericHTTPClient.obj
 0002:0007d900       ?_Orphan_range@?$vector@U__GENERIC_HTTP_ARGUMENT@GenericHTTPClient@@V?$allocator@U__GENERIC_HTTP_ARGUMENT@GenericHTTPClient@@@std@@@std@@IBEXPAU__GENERIC_HTTP_ARGUMENT@GenericHTTPClient@@0@Z 0055b900 f i GenericHTTPClient.obj
 0002:0007d940       ??0?$_Vector_val@U__GENERIC_HTTP_ARGUMENT@GenericHTTPClient@@V?$allocator@U__GENERIC_HTTP_ARGUMENT@GenericHTTPClient@@@std@@@std@@QAE@V?$allocator@U__GENERIC_HTTP_ARGUMENT@GenericHTTPClient@@@1@@Z 0055b940 f i GenericHTTPClient.obj
 0002:0007d9d0       ??1?$_Vector_val@U__GENERIC_HTTP_ARGUMENT@GenericHTTPClient@@V?$allocator@U__GENERIC_HTTP_ARGUMENT@GenericHTTPClient@@@std@@@std@@QAE@XZ 0055b9d0 f i GenericHTTPClient.obj
 0002:0007da10       ??0?$allocator@U__GENERIC_HTTP_ARGUMENT@GenericHTTPClient@@@std@@QAE@XZ 0055ba10 f i GenericHTTPClient.obj
 0002:0007da50       ??0?$_Vector_iterator@V?$_Vector_val@U__GENERIC_HTTP_ARGUMENT@GenericHTTPClient@@V?$allocator@U__GENERIC_HTTP_ARGUMENT@GenericHTTPClient@@@std@@@std@@@std@@QAE@PAU__GENERIC_HTTP_ARGUMENT@GenericHTTPClient@@PBU_Container_base0@1@@Z 0055ba50 f i GenericHTTPClient.obj
 0002:0007dab0       ??D?$_Vector_iterator@V?$_Vector_val@U__GENERIC_HTTP_ARGUMENT@GenericHTTPClient@@V?$allocator@U__GENERIC_HTTP_ARGUMENT@GenericHTTPClient@@@std@@@std@@@std@@QBEAAU__GENERIC_HTTP_ARGUMENT@GenericHTTPClient@@XZ 0055bab0 f i GenericHTTPClient.obj
 0002:0007db00       ??0?$_Vector_const_iterator@V?$_Vector_val@U__GENERIC_HTTP_ARGUMENT@GenericHTTPClient@@V?$allocator@U__GENERIC_HTTP_ARGUMENT@GenericHTTPClient@@@std@@@std@@@std@@QAE@XZ 0055bb00 f i GenericHTTPClient.obj
 0002:0007db50       ??E?$_Vector_const_iterator@V?$_Vector_val@U__GENERIC_HTTP_ARGUMENT@GenericHTTPClient@@V?$allocator@U__GENERIC_HTTP_ARGUMENT@GenericHTTPClient@@@std@@@std@@@std@@QAEAAV01@XZ 0055bb50 f i GenericHTTPClient.obj
 0002:0007dba0       ?_Compat@?$_Vector_const_iterator@V?$_Vector_val@U__GENERIC_HTTP_ARGUMENT@GenericHTTPClient@@V?$allocator@U__GENERIC_HTTP_ARGUMENT@GenericHTTPClient@@@std@@@std@@@std@@QBEXABV12@@Z 0055bba0 f i GenericHTTPClient.obj
 0002:0007dbe0       ?reserve@?$vector@U__GENERIC_HTTP_ARGUMENT@GenericHTTPClient@@V?$allocator@U__GENERIC_HTTP_ARGUMENT@GenericHTTPClient@@@std@@@std@@QAEXI@Z 0055bbe0 f i GenericHTTPClient.obj
 0002:0007ddd0       ?capacity@?$vector@U__GENERIC_HTTP_ARGUMENT@GenericHTTPClient@@V?$allocator@U__GENERIC_HTTP_ARGUMENT@GenericHTTPClient@@@std@@@std@@QBEIXZ 0055bdd0 f i GenericHTTPClient.obj
 0002:0007de20       ?_Make_iter@?$vector@U__GENERIC_HTTP_ARGUMENT@GenericHTTPClient@@V?$allocator@U__GENERIC_HTTP_ARGUMENT@GenericHTTPClient@@@std@@@std@@QBE?AV?$_Vector_iterator@V?$_Vector_val@U__GENERIC_HTTP_ARGUMENT@GenericHTTPClient@@V?$allocator@U__GENERIC_HTTP_ARGUMENT@GenericHTTPClient@@@std@@@std@@@2@V?$_Vector_const_iterator@V?$_Vector_val@U__GENERIC_HTTP_ARGUMENT@GenericHTTPClient@@V?$allocator@U__GENERIC_HTTP_ARGUMENT@GenericHTTPClient@@@std@@@std@@@2@@Z 0055be20 f i GenericHTTPClient.obj
 0002:0007de80       ?size@?$vector@U__GENERIC_HTTP_ARGUMENT@GenericHTTPClient@@V?$allocator@U__GENERIC_HTTP_ARGUMENT@GenericHTTPClient@@@std@@@std@@QBEIXZ 0055be80 f i GenericHTTPClient.obj
 0002:0007ded0       ?max_size@?$vector@U__GENERIC_HTTP_ARGUMENT@GenericHTTPClient@@V?$allocator@U__GENERIC_HTTP_ARGUMENT@GenericHTTPClient@@@std@@@std@@QBEIXZ 0055bed0 f i GenericHTTPClient.obj
 0002:0007df30       ?_Destroy@?$vector@U__GENERIC_HTTP_ARGUMENT@GenericHTTPClient@@V?$allocator@U__GENERIC_HTTP_ARGUMENT@GenericHTTPClient@@@std@@@std@@IAEXPAU__GENERIC_HTTP_ARGUMENT@GenericHTTPClient@@0@Z 0055bf30 f i GenericHTTPClient.obj
 0002:0007dfa0       ?_Grow_to@?$vector@U__GENERIC_HTTP_ARGUMENT@GenericHTTPClient@@V?$allocator@U__GENERIC_HTTP_ARGUMENT@GenericHTTPClient@@@std@@@std@@IBEII@Z 0055bfa0 f i GenericHTTPClient.obj
 0002:0007e050       ?_Xlen@?$vector@U__GENERIC_HTTP_ARGUMENT@GenericHTTPClient@@V?$allocator@U__GENERIC_HTTP_ARGUMENT@GenericHTTPClient@@@std@@@std@@IBEXXZ 0055c050 f i GenericHTTPClient.obj
 0002:0007e0b0       ??0?$allocator@U__GENERIC_HTTP_ARGUMENT@GenericHTTPClient@@@std@@QAE@ABV01@@Z 0055c0b0 f i GenericHTTPClient.obj
 0002:0007e0f0       ?deallocate@?$allocator@U__GENERIC_HTTP_ARGUMENT@GenericHTTPClient@@@std@@QAEXPAU__GENERIC_HTTP_ARGUMENT@GenericHTTPClient@@I@Z 0055c0f0 f i GenericHTTPClient.obj
 0002:0007e150       ??0?$_Vector_const_iterator@V?$_Vector_val@U__GENERIC_HTTP_ARGUMENT@GenericHTTPClient@@V?$allocator@U__GENERIC_HTTP_ARGUMENT@GenericHTTPClient@@@std@@@std@@@std@@QAE@PAU__GENERIC_HTTP_ARGUMENT@GenericHTTPClient@@PBU_Container_base0@1@@Z 0055c150 f i GenericHTTPClient.obj
 0002:0007e1c0       ??D?$_Vector_const_iterator@V?$_Vector_val@U__GENERIC_HTTP_ARGUMENT@GenericHTTPClient@@V?$allocator@U__GENERIC_HTTP_ARGUMENT@GenericHTTPClient@@@std@@@std@@@std@@QBEABU__GENERIC_HTTP_ARGUMENT@GenericHTTPClient@@XZ 0055c1c0 f i GenericHTTPClient.obj
 0002:0007e200       ??9?$_Vector_const_iterator@V?$_Vector_val@U__GENERIC_HTTP_ARGUMENT@GenericHTTPClient@@V?$allocator@U__GENERIC_HTTP_ARGUMENT@GenericHTTPClient@@@std@@@std@@@std@@QBE_NABV01@@Z 0055c200 f i GenericHTTPClient.obj
 0002:0007e270       ?allocate@?$allocator@U__GENERIC_HTTP_ARGUMENT@GenericHTTPClient@@@std@@QAEPAU__GENERIC_HTTP_ARGUMENT@GenericHTTPClient@@I@Z 0055c270 f i GenericHTTPClient.obj
 0002:0007e2d0       ?max_size@?$allocator@U__GENERIC_HTTP_ARGUMENT@GenericHTTPClient@@@std@@QBEIXZ 0055c2d0 f i GenericHTTPClient.obj
 0002:0007e340       ??8?$_Vector_const_iterator@V?$_Vector_val@U__GENERIC_HTTP_ARGUMENT@GenericHTTPClient@@V?$allocator@U__GENERIC_HTTP_ARGUMENT@GenericHTTPClient@@@std@@@std@@@std@@QBE_NABV01@@Z 0055c340 f i GenericHTTPClient.obj
 0002:0007e3b0       ??$addressof@$$CBU__GENERIC_HTTP_ARGUMENT@GenericHTTPClient@@@std@@YAPBU__GENERIC_HTTP_ARGUMENT@GenericHTTPClient@@ABU12@@Z 0055c3b0 f i GenericHTTPClient.obj
 0002:0007e3f0       ??$_Cons_val@V?$allocator@U__GENERIC_HTTP_ARGUMENT@GenericHTTPClient@@@std@@U__GENERIC_HTTP_ARGUMENT@GenericHTTPClient@@AAU34@@std@@YAXAAV?$allocator@U__GENERIC_HTTP_ARGUMENT@GenericHTTPClient@@@0@PAU__GENERIC_HTTP_ARGUMENT@GenericHTTPClient@@AAU23@@Z 0055c3f0 f i GenericHTTPClient.obj
 0002:0007e450       ??$_Cons_val@V?$allocator@U__GENERIC_HTTP_ARGUMENT@GenericHTTPClient@@@std@@U__GENERIC_HTTP_ARGUMENT@GenericHTTPClient@@ABU34@@std@@YAXAAV?$allocator@U__GENERIC_HTTP_ARGUMENT@GenericHTTPClient@@@0@PAU__GENERIC_HTTP_ARGUMENT@GenericHTTPClient@@ABU23@@Z 0055c450 f i GenericHTTPClient.obj
 0002:0007e4b0       ??$_Move@PAU__GENERIC_HTTP_ARGUMENT@GenericHTTPClient@@PAU12@@std@@YAPAU__GENERIC_HTTP_ARGUMENT@GenericHTTPClient@@PAU12@00@Z 0055c4b0 f i GenericHTTPClient.obj
 0002:0007e530       ??$_Umove@PAU__GENERIC_HTTP_ARGUMENT@GenericHTTPClient@@@?$vector@U__GENERIC_HTTP_ARGUMENT@GenericHTTPClient@@V?$allocator@U__GENERIC_HTTP_ARGUMENT@GenericHTTPClient@@@std@@@std@@IAEPAU__GENERIC_HTTP_ARGUMENT@GenericHTTPClient@@PAU23@00@Z 0055c530 f i GenericHTTPClient.obj
 0002:0007e5a0       ??$_Destroy_range@V?$allocator@U__GENERIC_HTTP_ARGUMENT@GenericHTTPClient@@@std@@@std@@YAXPAU__GENERIC_HTTP_ARGUMENT@GenericHTTPClient@@0AAV?$allocator@U__GENERIC_HTTP_ARGUMENT@GenericHTTPClient@@@0@@Z 0055c5a0 f i GenericHTTPClient.obj
 0002:0007e620       ??$_Allocate@U__GENERIC_HTTP_ARGUMENT@GenericHTTPClient@@@std@@YAPAU__GENERIC_HTTP_ARGUMENT@GenericHTTPClient@@IPAU12@@Z 0055c620 f i GenericHTTPClient.obj
 0002:0007e6d0       ?construct@?$allocator@U__GENERIC_HTTP_ARGUMENT@GenericHTTPClient@@@std@@QAEXPAU__GENERIC_HTTP_ARGUMENT@GenericHTTPClient@@ABU34@@Z 0055c6d0 f i GenericHTTPClient.obj
 0002:0007e730       ??$forward@AAU__GENERIC_HTTP_ARGUMENT@GenericHTTPClient@@@std@@YAAAU__GENERIC_HTTP_ARGUMENT@GenericHTTPClient@@AAU12@@Z 0055c730 f i GenericHTTPClient.obj
 0002:0007e770       ??$construct@AAU__GENERIC_HTTP_ARGUMENT@GenericHTTPClient@@@?$allocator@U__GENERIC_HTTP_ARGUMENT@GenericHTTPClient@@@std@@QAEXPAU__GENERIC_HTTP_ARGUMENT@GenericHTTPClient@@AAU23@@Z 0055c770 f i GenericHTTPClient.obj
 0002:0007e880       ??$forward@ABU__GENERIC_HTTP_ARGUMENT@GenericHTTPClient@@@std@@YAABU__GENERIC_HTTP_ARGUMENT@GenericHTTPClient@@ABU12@@Z 0055c880 f i GenericHTTPClient.obj
 0002:0007e8c0       ??$_Ptr_cat@U__GENERIC_HTTP_ARGUMENT@GenericHTTPClient@@U12@@std@@YA?AU_Nonscalar_ptr_iterator_tag@0@PAU__GENERIC_HTTP_ARGUMENT@GenericHTTPClient@@0@Z 0055c8c0 f i GenericHTTPClient.obj
 0002:0007e930       ??$_Move@PAU__GENERIC_HTTP_ARGUMENT@GenericHTTPClient@@PAU12@@std@@YAPAU__GENERIC_HTTP_ARGUMENT@GenericHTTPClient@@PAU12@00U_Nonscalar_ptr_iterator_tag@0@@Z 0055c930 f i GenericHTTPClient.obj
 0002:0007e9c0       ??$_Uninitialized_move@PAU__GENERIC_HTTP_ARGUMENT@GenericHTTPClient@@PAU12@V?$allocator@U__GENERIC_HTTP_ARGUMENT@GenericHTTPClient@@@std@@@std@@YAPAU__GENERIC_HTTP_ARGUMENT@GenericHTTPClient@@PAU12@00AAV?$allocator@U__GENERIC_HTTP_ARGUMENT@GenericHTTPClient@@@0@@Z 0055c9c0 f i GenericHTTPClient.obj
 0002:0007ea60       ??$_Destroy_range@V?$allocator@U__GENERIC_HTTP_ARGUMENT@GenericHTTPClient@@@std@@@std@@YAXPAU__GENERIC_HTTP_ARGUMENT@GenericHTTPClient@@0AAV?$allocator@U__GENERIC_HTTP_ARGUMENT@GenericHTTPClient@@@0@U_Nonscalar_ptr_iterator_tag@0@@Z 0055ca60 f i GenericHTTPClient.obj
 0002:0007ead0       ??$_Construct@U__GENERIC_HTTP_ARGUMENT@GenericHTTPClient@@ABU12@@std@@YAXPAU__GENERIC_HTTP_ARGUMENT@GenericHTTPClient@@ABU12@@Z 0055cad0 f i GenericHTTPClient.obj
 0002:0007ebe0       ??$move@AAU__GENERIC_HTTP_ARGUMENT@GenericHTTPClient@@@std@@YA$$QAU__GENERIC_HTTP_ARGUMENT@GenericHTTPClient@@AAU12@@Z 0055cbe0 f i GenericHTTPClient.obj
 0002:0007ec20       ??$_Val_type@PAU__GENERIC_HTTP_ARGUMENT@GenericHTTPClient@@@std@@YAPAU__GENERIC_HTTP_ARGUMENT@GenericHTTPClient@@PAU12@@Z 0055cc20 f i GenericHTTPClient.obj
 0002:0007ec50       ??$_Uninit_move@PAU__GENERIC_HTTP_ARGUMENT@GenericHTTPClient@@PAU12@V?$allocator@U__GENERIC_HTTP_ARGUMENT@GenericHTTPClient@@@std@@U12@@std@@YAPAU__GENERIC_HTTP_ARGUMENT@GenericHTTPClient@@PAU12@00AAV?$allocator@U__GENERIC_HTTP_ARGUMENT@GenericHTTPClient@@@0@0U_Nonscalar_ptr_iterator_tag@0@@Z 0055cc50 f i GenericHTTPClient.obj
 0002:0007ed80       ??$_Dest_val@V?$allocator@U__GENERIC_HTTP_ARGUMENT@GenericHTTPClient@@@std@@U__GENERIC_HTTP_ARGUMENT@GenericHTTPClient@@@std@@YAXAAV?$allocator@U__GENERIC_HTTP_ARGUMENT@GenericHTTPClient@@@0@PAU__GENERIC_HTTP_ARGUMENT@GenericHTTPClient@@@Z 0055cd80 f i GenericHTTPClient.obj
 0002:0007edd0       ?destroy@?$allocator@U__GENERIC_HTTP_ARGUMENT@GenericHTTPClient@@@std@@QAEXPAU__GENERIC_HTTP_ARGUMENT@GenericHTTPClient@@@Z 0055cdd0 f i GenericHTTPClient.obj
 0002:0007ee30       ??$_Cons_val@V?$allocator@U__GENERIC_HTTP_ARGUMENT@GenericHTTPClient@@@std@@U__GENERIC_HTTP_ARGUMENT@GenericHTTPClient@@U34@@std@@YAXAAV?$allocator@U__GENERIC_HTTP_ARGUMENT@GenericHTTPClient@@@0@PAU__GENERIC_HTTP_ARGUMENT@GenericHTTPClient@@$$QAU23@@Z 0055ce30 f i GenericHTTPClient.obj
 0002:0007ee90       ??$_Destroy@U__GENERIC_HTTP_ARGUMENT@GenericHTTPClient@@@std@@YAXPAU__GENERIC_HTTP_ARGUMENT@GenericHTTPClient@@@Z 0055ce90 f i GenericHTTPClient.obj
 0002:0007eec0       ?construct@?$allocator@U__GENERIC_HTTP_ARGUMENT@GenericHTTPClient@@@std@@QAEXPAU__GENERIC_HTTP_ARGUMENT@GenericHTTPClient@@$$QAU34@@Z 0055cec0 f i GenericHTTPClient.obj
 0002:0007efd0       ??$forward@U__GENERIC_HTTP_ARGUMENT@GenericHTTPClient@@@std@@YA$$QAU__GENERIC_HTTP_ARGUMENT@GenericHTTPClient@@AAU12@@Z 0055cfd0 f i GenericHTTPClient.obj
 0002:0007f010       ??0?$map@VCDuiString@DuiLib@@PAXU?$less@VCDuiString@DuiLib@@@std@@V?$allocator@U?$pair@$$CBVCDuiString@DuiLib@@PAX@std@@@4@@std@@QAE@XZ 0055d010 f i globalvar.obj
 0002:0007f080       ??0?$_Tree@V?$_Tmap_traits@VCDuiString@DuiLib@@PAXU?$less@VCDuiString@DuiLib@@@std@@V?$allocator@U?$pair@$$CBVCDuiString@DuiLib@@PAX@std@@@4@$0A@@std@@@std@@QAE@ABU?$less@VCDuiString@DuiLib@@@1@ABV?$allocator@U?$pair@$$CBVCDuiString@DuiLib@@PAX@std@@@1@@Z 0055d080 f i globalvar.obj
 0002:0007f0f0       ??0?$allocator@U?$pair@$$CBVCDuiString@DuiLib@@PAX@std@@@std@@QAE@XZ 0055d0f0 f i globalvar.obj
 0002:0007f130       ??0?$_Tree_val@V?$_Tmap_traits@VCDuiString@DuiLib@@PAXU?$less@VCDuiString@DuiLib@@@std@@V?$allocator@U?$pair@$$CBVCDuiString@DuiLib@@PAX@std@@@4@$0A@@std@@@std@@QAE@ABU?$less@VCDuiString@DuiLib@@@1@V?$allocator@U?$pair@$$CBVCDuiString@DuiLib@@PAX@std@@@1@@Z 0055d130 f i globalvar.obj
 0002:0007f240       ??0?$allocator@U?$pair@$$CBVCDuiString@DuiLib@@PAX@std@@@std@@QAE@ABV01@@Z 0055d240 f i globalvar.obj
 0002:0007f280       ?_Color@?$_Tree_val@V?$_Tmap_traits@VCDuiString@DuiLib@@PAXU?$less@VCDuiString@DuiLib@@@std@@V?$allocator@U?$pair@$$CBVCDuiString@DuiLib@@PAX@std@@@4@$0A@@std@@@std@@SAAADPAU_Node@?$_Tree_nod@V?$_Tmap_traits@VCDuiString@DuiLib@@PAXU?$less@VCDuiString@DuiLib@@@std@@V?$allocator@U?$pair@$$CBVCDuiString@DuiLib@@PAX@std@@@4@$0A@@std@@@2@@Z 0055d280 f i globalvar.obj
 0002:0007f2c0       ?_Isnil@?$_Tree_val@V?$_Tmap_traits@VCDuiString@DuiLib@@PAXU?$less@VCDuiString@DuiLib@@@std@@V?$allocator@U?$pair@$$CBVCDuiString@DuiLib@@PAX@std@@@4@$0A@@std@@@std@@SAAADPAU_Node@?$_Tree_nod@V?$_Tmap_traits@VCDuiString@DuiLib@@PAXU?$less@VCDuiString@DuiLib@@@std@@V?$allocator@U?$pair@$$CBVCDuiString@DuiLib@@PAX@std@@@4@$0A@@std@@@2@@Z 0055d2c0 f i globalvar.obj
 0002:0007f300       ?_Left@?$_Tree_val@V?$_Tmap_traits@VCDuiString@DuiLib@@PAXU?$less@VCDuiString@DuiLib@@@std@@V?$allocator@U?$pair@$$CBVCDuiString@DuiLib@@PAX@std@@@4@$0A@@std@@@std@@SAAAPAU_Node@?$_Tree_nod@V?$_Tmap_traits@VCDuiString@DuiLib@@PAXU?$less@VCDuiString@DuiLib@@@std@@V?$allocator@U?$pair@$$CBVCDuiString@DuiLib@@PAX@std@@@4@$0A@@std@@@2@PAU342@@Z 0055d300 f i globalvar.obj
 0002:0007f340       ?_Parent@?$_Tree_val@V?$_Tmap_traits@VCDuiString@DuiLib@@PAXU?$less@VCDuiString@DuiLib@@@std@@V?$allocator@U?$pair@$$CBVCDuiString@DuiLib@@PAX@std@@@4@$0A@@std@@@std@@SAAAPAU_Node@?$_Tree_nod@V?$_Tmap_traits@VCDuiString@DuiLib@@PAXU?$less@VCDuiString@DuiLib@@@std@@V?$allocator@U?$pair@$$CBVCDuiString@DuiLib@@PAX@std@@@4@$0A@@std@@@2@PAU342@@Z 0055d340 f i globalvar.obj
 0002:0007f380       ?_Right@?$_Tree_val@V?$_Tmap_traits@VCDuiString@DuiLib@@PAXU?$less@VCDuiString@DuiLib@@@std@@V?$allocator@U?$pair@$$CBVCDuiString@DuiLib@@PAX@std@@@4@$0A@@std@@@std@@SAAAPAU_Node@?$_Tree_nod@V?$_Tmap_traits@VCDuiString@DuiLib@@PAXU?$less@VCDuiString@DuiLib@@@std@@V?$allocator@U?$pair@$$CBVCDuiString@DuiLib@@PAX@std@@@4@$0A@@std@@@2@PAU342@@Z 0055d380 f i globalvar.obj
 0002:0007f3c0       ??0?$_Tree_nod@V?$_Tmap_traits@VCDuiString@DuiLib@@PAXU?$less@VCDuiString@DuiLib@@@std@@V?$allocator@U?$pair@$$CBVCDuiString@DuiLib@@PAX@std@@@4@$0A@@std@@@std@@QAE@ABU?$less@VCDuiString@DuiLib@@@1@V?$allocator@U?$pair@$$CBVCDuiString@DuiLib@@PAX@std@@@1@@Z 0055d3c0 f i globalvar.obj
 0002:0007f450       ?allocate@?$allocator@U_Node@?$_Tree_nod@V?$_Tmap_traits@VCDuiString@DuiLib@@PAXU?$less@VCDuiString@DuiLib@@@std@@V?$allocator@U?$pair@$$CBVCDuiString@DuiLib@@PAX@std@@@4@$0A@@std@@@std@@@std@@QAEPAU_Node@?$_Tree_nod@V?$_Tmap_traits@VCDuiString@DuiLib@@PAXU?$less@VCDuiString@DuiLib@@@std@@V?$allocator@U?$pair@$$CBVCDuiString@DuiLib@@PAX@std@@@4@$0A@@std@@@2@I@Z 0055d450 f i globalvar.obj
 0002:0007f4b0       ??0?$_Tmap_traits@VCDuiString@DuiLib@@PAXU?$less@VCDuiString@DuiLib@@@std@@V?$allocator@U?$pair@$$CBVCDuiString@DuiLib@@PAX@std@@@4@$0A@@std@@QAE@U?$less@VCDuiString@DuiLib@@@1@@Z 0055d4b0 f i globalvar.obj
 0002:0007f4f0       ??$?0U?$pair@$$CBVCDuiString@DuiLib@@PAX@std@@@?$allocator@U_Node@?$_Tree_nod@V?$_Tmap_traits@VCDuiString@DuiLib@@PAXU?$less@VCDuiString@DuiLib@@@std@@V?$allocator@U?$pair@$$CBVCDuiString@DuiLib@@PAX@std@@@4@$0A@@std@@@std@@@std@@QAE@ABV?$allocator@U?$pair@$$CBVCDuiString@DuiLib@@PAX@std@@@1@@Z 0055d4f0 f i globalvar.obj
 0002:0007f530       ??$_Allocate@U_Node@?$_Tree_nod@V?$_Tmap_traits@VCDuiString@DuiLib@@PAXU?$less@VCDuiString@DuiLib@@@std@@V?$allocator@U?$pair@$$CBVCDuiString@DuiLib@@PAX@std@@@4@$0A@@std@@@std@@@std@@YAPAU_Node@?$_Tree_nod@V?$_Tmap_traits@VCDuiString@DuiLib@@PAXU?$less@VCDuiString@DuiLib@@@std@@V?$allocator@U?$pair@$$CBVCDuiString@DuiLib@@PAX@std@@@4@$0A@@std@@@0@IPAU120@@Z 0055d530 f i globalvar.obj
 0002:0007f5e0       ??0?$map@VCDuiString@DuiLib@@V12@U?$less@VCDuiString@DuiLib@@@std@@V?$allocator@U?$pair@$$CBVCDuiString@DuiLib@@V12@@std@@@4@@std@@QAE@XZ 0055d5e0 f i globalvar.obj
 0002:0007f650       ??0?$_Tree@V?$_Tmap_traits@VCDuiString@DuiLib@@V12@U?$less@VCDuiString@DuiLib@@@std@@V?$allocator@U?$pair@$$CBVCDuiString@DuiLib@@V12@@std@@@4@$0A@@std@@@std@@QAE@ABU?$less@VCDuiString@DuiLib@@@1@ABV?$allocator@U?$pair@$$CBVCDuiString@DuiLib@@V12@@std@@@1@@Z 0055d650 f i globalvar.obj
 0002:0007f6c0       ??0?$allocator@U?$pair@$$CBVCDuiString@DuiLib@@V12@@std@@@std@@QAE@XZ 0055d6c0 f i globalvar.obj
 0002:0007f700       ??0?$_Tree_val@V?$_Tmap_traits@VCDuiString@DuiLib@@V12@U?$less@VCDuiString@DuiLib@@@std@@V?$allocator@U?$pair@$$CBVCDuiString@DuiLib@@V12@@std@@@4@$0A@@std@@@std@@QAE@ABU?$less@VCDuiString@DuiLib@@@1@V?$allocator@U?$pair@$$CBVCDuiString@DuiLib@@V12@@std@@@1@@Z 0055d700 f i globalvar.obj
 0002:0007f810       ??0?$allocator@U?$pair@$$CBVCDuiString@DuiLib@@V12@@std@@@std@@QAE@ABV01@@Z 0055d810 f i globalvar.obj
 0002:0007f850       ?_Color@?$_Tree_val@V?$_Tmap_traits@VCDuiString@DuiLib@@V12@U?$less@VCDuiString@DuiLib@@@std@@V?$allocator@U?$pair@$$CBVCDuiString@DuiLib@@V12@@std@@@4@$0A@@std@@@std@@SAAADPAU_Node@?$_Tree_nod@V?$_Tmap_traits@VCDuiString@DuiLib@@V12@U?$less@VCDuiString@DuiLib@@@std@@V?$allocator@U?$pair@$$CBVCDuiString@DuiLib@@V12@@std@@@4@$0A@@std@@@2@@Z 0055d850 f i globalvar.obj
 0002:0007f890       ?_Isnil@?$_Tree_val@V?$_Tmap_traits@VCDuiString@DuiLib@@V12@U?$less@VCDuiString@DuiLib@@@std@@V?$allocator@U?$pair@$$CBVCDuiString@DuiLib@@V12@@std@@@4@$0A@@std@@@std@@SAAADPAU_Node@?$_Tree_nod@V?$_Tmap_traits@VCDuiString@DuiLib@@V12@U?$less@VCDuiString@DuiLib@@@std@@V?$allocator@U?$pair@$$CBVCDuiString@DuiLib@@V12@@std@@@4@$0A@@std@@@2@@Z 0055d890 f i globalvar.obj
 0002:0007f8d0       ?_Left@?$_Tree_val@V?$_Tmap_traits@VCDuiString@DuiLib@@V12@U?$less@VCDuiString@DuiLib@@@std@@V?$allocator@U?$pair@$$CBVCDuiString@DuiLib@@V12@@std@@@4@$0A@@std@@@std@@SAAAPAU_Node@?$_Tree_nod@V?$_Tmap_traits@VCDuiString@DuiLib@@V12@U?$less@VCDuiString@DuiLib@@@std@@V?$allocator@U?$pair@$$CBVCDuiString@DuiLib@@V12@@std@@@4@$0A@@std@@@2@PAU342@@Z 0055d8d0 f i globalvar.obj
 0002:0007f910       ?_Parent@?$_Tree_val@V?$_Tmap_traits@VCDuiString@DuiLib@@V12@U?$less@VCDuiString@DuiLib@@@std@@V?$allocator@U?$pair@$$CBVCDuiString@DuiLib@@V12@@std@@@4@$0A@@std@@@std@@SAAAPAU_Node@?$_Tree_nod@V?$_Tmap_traits@VCDuiString@DuiLib@@V12@U?$less@VCDuiString@DuiLib@@@std@@V?$allocator@U?$pair@$$CBVCDuiString@DuiLib@@V12@@std@@@4@$0A@@std@@@2@PAU342@@Z 0055d910 f i globalvar.obj
 0002:0007f950       ?_Right@?$_Tree_val@V?$_Tmap_traits@VCDuiString@DuiLib@@V12@U?$less@VCDuiString@DuiLib@@@std@@V?$allocator@U?$pair@$$CBVCDuiString@DuiLib@@V12@@std@@@4@$0A@@std@@@std@@SAAAPAU_Node@?$_Tree_nod@V?$_Tmap_traits@VCDuiString@DuiLib@@V12@U?$less@VCDuiString@DuiLib@@@std@@V?$allocator@U?$pair@$$CBVCDuiString@DuiLib@@V12@@std@@@4@$0A@@std@@@2@PAU342@@Z 0055d950 f i globalvar.obj
 0002:0007f990       ??0?$_Tree_nod@V?$_Tmap_traits@VCDuiString@DuiLib@@V12@U?$less@VCDuiString@DuiLib@@@std@@V?$allocator@U?$pair@$$CBVCDuiString@DuiLib@@V12@@std@@@4@$0A@@std@@@std@@QAE@ABU?$less@VCDuiString@DuiLib@@@1@V?$allocator@U?$pair@$$CBVCDuiString@DuiLib@@V12@@std@@@1@@Z 0055d990 f i globalvar.obj
 0002:0007fa20       ?allocate@?$allocator@U_Node@?$_Tree_nod@V?$_Tmap_traits@VCDuiString@DuiLib@@V12@U?$less@VCDuiString@DuiLib@@@std@@V?$allocator@U?$pair@$$CBVCDuiString@DuiLib@@V12@@std@@@4@$0A@@std@@@std@@@std@@QAEPAU_Node@?$_Tree_nod@V?$_Tmap_traits@VCDuiString@DuiLib@@V12@U?$less@VCDuiString@DuiLib@@@std@@V?$allocator@U?$pair@$$CBVCDuiString@DuiLib@@V12@@std@@@4@$0A@@std@@@2@I@Z 0055da20 f i globalvar.obj
 0002:0007fa80       ??0?$_Tmap_traits@VCDuiString@DuiLib@@V12@U?$less@VCDuiString@DuiLib@@@std@@V?$allocator@U?$pair@$$CBVCDuiString@DuiLib@@V12@@std@@@4@$0A@@std@@QAE@U?$less@VCDuiString@DuiLib@@@1@@Z 0055da80 f i globalvar.obj
 0002:0007fac0       ??$?0U?$pair@$$CBVCDuiString@DuiLib@@V12@@std@@@?$allocator@U_Node@?$_Tree_nod@V?$_Tmap_traits@VCDuiString@DuiLib@@V12@U?$less@VCDuiString@DuiLib@@@std@@V?$allocator@U?$pair@$$CBVCDuiString@DuiLib@@V12@@std@@@4@$0A@@std@@@std@@@std@@QAE@ABV?$allocator@U?$pair@$$CBVCDuiString@DuiLib@@V12@@std@@@1@@Z 0055dac0 f i globalvar.obj
 0002:0007fb00       ??$_Allocate@U_Node@?$_Tree_nod@V?$_Tmap_traits@VCDuiString@DuiLib@@V12@U?$less@VCDuiString@DuiLib@@@std@@V?$allocator@U?$pair@$$CBVCDuiString@DuiLib@@V12@@std@@@4@$0A@@std@@@std@@@std@@YAPAU_Node@?$_Tree_nod@V?$_Tmap_traits@VCDuiString@DuiLib@@V12@U?$less@VCDuiString@DuiLib@@@std@@V?$allocator@U?$pair@$$CBVCDuiString@DuiLib@@V12@@std@@@4@$0A@@std@@@0@IPAU120@@Z 0055db00 f i globalvar.obj
 0002:0007fbb0       ??0?$map@VCDuiString@DuiLib@@HU?$less@VCDuiString@DuiLib@@@std@@V?$allocator@U?$pair@$$CBVCDuiString@DuiLib@@H@std@@@4@@std@@QAE@XZ 0055dbb0 f i globalvar.obj
 0002:0007fc20       ??0?$_Tree@V?$_Tmap_traits@VCDuiString@DuiLib@@HU?$less@VCDuiString@DuiLib@@@std@@V?$allocator@U?$pair@$$CBVCDuiString@DuiLib@@H@std@@@4@$0A@@std@@@std@@QAE@ABU?$less@VCDuiString@DuiLib@@@1@ABV?$allocator@U?$pair@$$CBVCDuiString@DuiLib@@H@std@@@1@@Z 0055dc20 f i globalvar.obj
 0002:0007fc90       ??0?$allocator@U?$pair@$$CBVCDuiString@DuiLib@@H@std@@@std@@QAE@XZ 0055dc90 f i globalvar.obj
 0002:0007fcd0       ??0?$_Tree_val@V?$_Tmap_traits@VCDuiString@DuiLib@@HU?$less@VCDuiString@DuiLib@@@std@@V?$allocator@U?$pair@$$CBVCDuiString@DuiLib@@H@std@@@4@$0A@@std@@@std@@QAE@ABU?$less@VCDuiString@DuiLib@@@1@V?$allocator@U?$pair@$$CBVCDuiString@DuiLib@@H@std@@@1@@Z 0055dcd0 f i globalvar.obj
 0002:0007fde0       ??0?$allocator@U?$pair@$$CBVCDuiString@DuiLib@@H@std@@@std@@QAE@ABV01@@Z 0055dde0 f i globalvar.obj
 0002:0007fe20       ?_Color@?$_Tree_val@V?$_Tmap_traits@VCDuiString@DuiLib@@HU?$less@VCDuiString@DuiLib@@@std@@V?$allocator@U?$pair@$$CBVCDuiString@DuiLib@@H@std@@@4@$0A@@std@@@std@@SAAADPAU_Node@?$_Tree_nod@V?$_Tmap_traits@VCDuiString@DuiLib@@HU?$less@VCDuiString@DuiLib@@@std@@V?$allocator@U?$pair@$$CBVCDuiString@DuiLib@@H@std@@@4@$0A@@std@@@2@@Z 0055de20 f i globalvar.obj
 0002:0007fe60       ?_Isnil@?$_Tree_val@V?$_Tmap_traits@VCDuiString@DuiLib@@HU?$less@VCDuiString@DuiLib@@@std@@V?$allocator@U?$pair@$$CBVCDuiString@DuiLib@@H@std@@@4@$0A@@std@@@std@@SAAADPAU_Node@?$_Tree_nod@V?$_Tmap_traits@VCDuiString@DuiLib@@HU?$less@VCDuiString@DuiLib@@@std@@V?$allocator@U?$pair@$$CBVCDuiString@DuiLib@@H@std@@@4@$0A@@std@@@2@@Z 0055de60 f i globalvar.obj
 0002:0007fea0       ?_Left@?$_Tree_val@V?$_Tmap_traits@VCDuiString@DuiLib@@HU?$less@VCDuiString@DuiLib@@@std@@V?$allocator@U?$pair@$$CBVCDuiString@DuiLib@@H@std@@@4@$0A@@std@@@std@@SAAAPAU_Node@?$_Tree_nod@V?$_Tmap_traits@VCDuiString@DuiLib@@HU?$less@VCDuiString@DuiLib@@@std@@V?$allocator@U?$pair@$$CBVCDuiString@DuiLib@@H@std@@@4@$0A@@std@@@2@PAU342@@Z 0055dea0 f i globalvar.obj
 0002:0007fee0       ?_Parent@?$_Tree_val@V?$_Tmap_traits@VCDuiString@DuiLib@@HU?$less@VCDuiString@DuiLib@@@std@@V?$allocator@U?$pair@$$CBVCDuiString@DuiLib@@H@std@@@4@$0A@@std@@@std@@SAAAPAU_Node@?$_Tree_nod@V?$_Tmap_traits@VCDuiString@DuiLib@@HU?$less@VCDuiString@DuiLib@@@std@@V?$allocator@U?$pair@$$CBVCDuiString@DuiLib@@H@std@@@4@$0A@@std@@@2@PAU342@@Z 0055dee0 f i globalvar.obj
 0002:0007ff20       ?_Right@?$_Tree_val@V?$_Tmap_traits@VCDuiString@DuiLib@@HU?$less@VCDuiString@DuiLib@@@std@@V?$allocator@U?$pair@$$CBVCDuiString@DuiLib@@H@std@@@4@$0A@@std@@@std@@SAAAPAU_Node@?$_Tree_nod@V?$_Tmap_traits@VCDuiString@DuiLib@@HU?$less@VCDuiString@DuiLib@@@std@@V?$allocator@U?$pair@$$CBVCDuiString@DuiLib@@H@std@@@4@$0A@@std@@@2@PAU342@@Z 0055df20 f i globalvar.obj
 0002:0007ff60       ??0?$_Tree_nod@V?$_Tmap_traits@VCDuiString@DuiLib@@HU?$less@VCDuiString@DuiLib@@@std@@V?$allocator@U?$pair@$$CBVCDuiString@DuiLib@@H@std@@@4@$0A@@std@@@std@@QAE@ABU?$less@VCDuiString@DuiLib@@@1@V?$allocator@U?$pair@$$CBVCDuiString@DuiLib@@H@std@@@1@@Z 0055df60 f i globalvar.obj
 0002:0007fff0       ?allocate@?$allocator@U_Node@?$_Tree_nod@V?$_Tmap_traits@VCDuiString@DuiLib@@HU?$less@VCDuiString@DuiLib@@@std@@V?$allocator@U?$pair@$$CBVCDuiString@DuiLib@@H@std@@@4@$0A@@std@@@std@@@std@@QAEPAU_Node@?$_Tree_nod@V?$_Tmap_traits@VCDuiString@DuiLib@@HU?$less@VCDuiString@DuiLib@@@std@@V?$allocator@U?$pair@$$CBVCDuiString@DuiLib@@H@std@@@4@$0A@@std@@@2@I@Z 0055dff0 f i globalvar.obj
 0002:00080050       ??0?$_Tmap_traits@VCDuiString@DuiLib@@HU?$less@VCDuiString@DuiLib@@@std@@V?$allocator@U?$pair@$$CBVCDuiString@DuiLib@@H@std@@@4@$0A@@std@@QAE@U?$less@VCDuiString@DuiLib@@@1@@Z 0055e050 f i globalvar.obj
 0002:00080090       ??$?0U?$pair@$$CBVCDuiString@DuiLib@@H@std@@@?$allocator@U_Node@?$_Tree_nod@V?$_Tmap_traits@VCDuiString@DuiLib@@HU?$less@VCDuiString@DuiLib@@@std@@V?$allocator@U?$pair@$$CBVCDuiString@DuiLib@@H@std@@@4@$0A@@std@@@std@@@std@@QAE@ABV?$allocator@U?$pair@$$CBVCDuiString@DuiLib@@H@std@@@1@@Z 0055e090 f i globalvar.obj
 0002:000800d0       ??$_Allocate@U_Node@?$_Tree_nod@V?$_Tmap_traits@VCDuiString@DuiLib@@HU?$less@VCDuiString@DuiLib@@@std@@V?$allocator@U?$pair@$$CBVCDuiString@DuiLib@@H@std@@@4@$0A@@std@@@std@@@std@@YAPAU_Node@?$_Tree_nod@V?$_Tmap_traits@VCDuiString@DuiLib@@HU?$less@VCDuiString@DuiLib@@@std@@V?$allocator@U?$pair@$$CBVCDuiString@DuiLib@@H@std@@@4@$0A@@std@@@0@IPAU120@@Z 0055e0d0 f i globalvar.obj
 0002:00080180       ??0CFontInfo@@QAE@XZ       0055e180 f i globalvar.obj
 0002:00080270       ??0?$vector@USTATE_INFO@@V?$allocator@USTATE_INFO@@@std@@@std@@QAE@XZ 0055e270 f i globalvar.obj
 0002:000802e0       ??0?$_Vector_val@USTATE_INFO@@V?$allocator@USTATE_INFO@@@std@@@std@@QAE@V?$allocator@USTATE_INFO@@@1@@Z 0055e2e0 f i globalvar.obj
 0002:00080370       ??0?$allocator@USTATE_INFO@@@std@@QAE@XZ 0055e370 f i globalvar.obj
 0002:000803b0       ??0?$allocator@USTATE_INFO@@@std@@QAE@ABV01@@Z 0055e3b0 f i globalvar.obj
 0002:000803f0       ??0?$vector@PAVNode@DuiLib@@V?$allocator@PAVNode@DuiLib@@@std@@@std@@QAE@XZ 0055e3f0 f i globalvar.obj
 0002:00080460       ??0?$_Vector_val@PAVNode@DuiLib@@V?$allocator@PAVNode@DuiLib@@@std@@@std@@QAE@V?$allocator@PAVNode@DuiLib@@@1@@Z 0055e460 f i globalvar.obj
 0002:000804f0       ??0?$allocator@PAVNode@DuiLib@@@std@@QAE@XZ 0055e4f0 f i globalvar.obj
 0002:00080530       ??0?$allocator@PAVNode@DuiLib@@@std@@QAE@ABV01@@Z 0055e530 f i globalvar.obj
 0002:00080570       ??0?$vector@UUSER_GROUP_INFO@@V?$allocator@UUSER_GROUP_INFO@@@std@@@std@@QAE@XZ 0055e570 f i globalvar.obj
 0002:000805e0       ??0?$_Vector_val@UUSER_GROUP_INFO@@V?$allocator@UUSER_GROUP_INFO@@@std@@@std@@QAE@V?$allocator@UUSER_GROUP_INFO@@@1@@Z 0055e5e0 f i globalvar.obj
 0002:00080670       ??0?$allocator@UUSER_GROUP_INFO@@@std@@QAE@XZ 0055e670 f i globalvar.obj
 0002:000806b0       ??0?$allocator@UUSER_GROUP_INFO@@@std@@QAE@ABV01@@Z 0055e6b0 f i globalvar.obj
 0002:000806f0       ??0?$vector@UtagFRIEND_INFO@@V?$allocator@UtagFRIEND_INFO@@@std@@@std@@QAE@XZ 0055e6f0 f i globalvar.obj
 0002:00080760       ??0?$_Vector_val@UtagFRIEND_INFO@@V?$allocator@UtagFRIEND_INFO@@@std@@@std@@QAE@V?$allocator@UtagFRIEND_INFO@@@1@@Z 0055e760 f i globalvar.obj
 0002:000807f0       ??0?$allocator@UtagFRIEND_INFO@@@std@@QAE@XZ 0055e7f0 f i globalvar.obj
 0002:00080830       ??0?$allocator@UtagFRIEND_INFO@@@std@@QAE@ABV01@@Z 0055e830 f i globalvar.obj
 0002:00080870       ??0?$vector@UUSER_ROOMCLIENT_INFO@@V?$allocator@UUSER_ROOMCLIENT_INFO@@@std@@@std@@QAE@XZ 0055e870 f i globalvar.obj
 0002:000808e0       ??0?$_Vector_val@UUSER_ROOMCLIENT_INFO@@V?$allocator@UUSER_ROOMCLIENT_INFO@@@std@@@std@@QAE@V?$allocator@UUSER_ROOMCLIENT_INFO@@@1@@Z 0055e8e0 f i globalvar.obj
 0002:00080970       ??0?$allocator@UUSER_ROOMCLIENT_INFO@@@std@@QAE@XZ 0055e970 f i globalvar.obj
 0002:000809b0       ??0?$allocator@UUSER_ROOMCLIENT_INFO@@@std@@QAE@ABV01@@Z 0055e9b0 f i globalvar.obj
 0002:000809f0       ??0?$map@JUGROUP_CHAT_INFO@@U?$less@J@std@@V?$allocator@U?$pair@$$CBJUGROUP_CHAT_INFO@@@std@@@3@@std@@QAE@XZ 0055e9f0 f i globalvar.obj
 0002:00080a60       ??0?$_Tree@V?$_Tmap_traits@JUGROUP_CHAT_INFO@@U?$less@J@std@@V?$allocator@U?$pair@$$CBJUGROUP_CHAT_INFO@@@std@@@3@$0A@@std@@@std@@QAE@ABU?$less@J@1@ABV?$allocator@U?$pair@$$CBJUGROUP_CHAT_INFO@@@std@@@1@@Z 0055ea60 f i globalvar.obj
 0002:00080ad0       ??0?$allocator@U?$pair@$$CBJUGROUP_CHAT_INFO@@@std@@@std@@QAE@XZ 0055ead0 f i globalvar.obj
 0002:00080b10       ??0?$_Tree_val@V?$_Tmap_traits@JUGROUP_CHAT_INFO@@U?$less@J@std@@V?$allocator@U?$pair@$$CBJUGROUP_CHAT_INFO@@@std@@@3@$0A@@std@@@std@@QAE@ABU?$less@J@1@V?$allocator@U?$pair@$$CBJUGROUP_CHAT_INFO@@@std@@@1@@Z 0055eb10 f i globalvar.obj
 0002:00080c20       ??0?$allocator@U?$pair@$$CBJUGROUP_CHAT_INFO@@@std@@@std@@QAE@ABV01@@Z 0055ec20 f i globalvar.obj
 0002:00080c60       ?_Color@?$_Tree_val@V?$_Tmap_traits@JUGROUP_CHAT_INFO@@U?$less@J@std@@V?$allocator@U?$pair@$$CBJUGROUP_CHAT_INFO@@@std@@@3@$0A@@std@@@std@@SAAADPAU_Node@?$_Tree_nod@V?$_Tmap_traits@JUGROUP_CHAT_INFO@@U?$less@J@std@@V?$allocator@U?$pair@$$CBJUGROUP_CHAT_INFO@@@std@@@3@$0A@@std@@@2@@Z 0055ec60 f i globalvar.obj
 0002:00080ca0       ?_Isnil@?$_Tree_val@V?$_Tmap_traits@JUGROUP_CHAT_INFO@@U?$less@J@std@@V?$allocator@U?$pair@$$CBJUGROUP_CHAT_INFO@@@std@@@3@$0A@@std@@@std@@SAAADPAU_Node@?$_Tree_nod@V?$_Tmap_traits@JUGROUP_CHAT_INFO@@U?$less@J@std@@V?$allocator@U?$pair@$$CBJUGROUP_CHAT_INFO@@@std@@@3@$0A@@std@@@2@@Z 0055eca0 f i globalvar.obj
 0002:00080ce0       ?_Left@?$_Tree_val@V?$_Tmap_traits@JUGROUP_CHAT_INFO@@U?$less@J@std@@V?$allocator@U?$pair@$$CBJUGROUP_CHAT_INFO@@@std@@@3@$0A@@std@@@std@@SAAAPAU_Node@?$_Tree_nod@V?$_Tmap_traits@JUGROUP_CHAT_INFO@@U?$less@J@std@@V?$allocator@U?$pair@$$CBJUGROUP_CHAT_INFO@@@std@@@3@$0A@@std@@@2@PAU342@@Z 0055ece0 f i globalvar.obj
 0002:00080d20       ?_Parent@?$_Tree_val@V?$_Tmap_traits@JUGROUP_CHAT_INFO@@U?$less@J@std@@V?$allocator@U?$pair@$$CBJUGROUP_CHAT_INFO@@@std@@@3@$0A@@std@@@std@@SAAAPAU_Node@?$_Tree_nod@V?$_Tmap_traits@JUGROUP_CHAT_INFO@@U?$less@J@std@@V?$allocator@U?$pair@$$CBJUGROUP_CHAT_INFO@@@std@@@3@$0A@@std@@@2@PAU342@@Z 0055ed20 f i globalvar.obj
 0002:00080d60       ?_Right@?$_Tree_val@V?$_Tmap_traits@JUGROUP_CHAT_INFO@@U?$less@J@std@@V?$allocator@U?$pair@$$CBJUGROUP_CHAT_INFO@@@std@@@3@$0A@@std@@@std@@SAAAPAU_Node@?$_Tree_nod@V?$_Tmap_traits@JUGROUP_CHAT_INFO@@U?$less@J@std@@V?$allocator@U?$pair@$$CBJUGROUP_CHAT_INFO@@@std@@@3@$0A@@std@@@2@PAU342@@Z 0055ed60 f i globalvar.obj
 0002:00080da0       ??0?$_Tree_nod@V?$_Tmap_traits@JUGROUP_CHAT_INFO@@U?$less@J@std@@V?$allocator@U?$pair@$$CBJUGROUP_CHAT_INFO@@@std@@@3@$0A@@std@@@std@@QAE@ABU?$less@J@1@V?$allocator@U?$pair@$$CBJUGROUP_CHAT_INFO@@@std@@@1@@Z 0055eda0 f i globalvar.obj
 0002:00080e30       ?allocate@?$allocator@U_Node@?$_Tree_nod@V?$_Tmap_traits@JUGROUP_CHAT_INFO@@U?$less@J@std@@V?$allocator@U?$pair@$$CBJUGROUP_CHAT_INFO@@@std@@@3@$0A@@std@@@std@@@std@@QAEPAU_Node@?$_Tree_nod@V?$_Tmap_traits@JUGROUP_CHAT_INFO@@U?$less@J@std@@V?$allocator@U?$pair@$$CBJUGROUP_CHAT_INFO@@@std@@@3@$0A@@std@@@2@I@Z 0055ee30 f i globalvar.obj
 0002:00080e90       ??0?$_Tmap_traits@JUGROUP_CHAT_INFO@@U?$less@J@std@@V?$allocator@U?$pair@$$CBJUGROUP_CHAT_INFO@@@std@@@3@$0A@@std@@QAE@U?$less@J@1@@Z 0055ee90 f i globalvar.obj
 0002:00080ed0       ??$?0U?$pair@$$CBJUGROUP_CHAT_INFO@@@std@@@?$allocator@U_Node@?$_Tree_nod@V?$_Tmap_traits@JUGROUP_CHAT_INFO@@U?$less@J@std@@V?$allocator@U?$pair@$$CBJUGROUP_CHAT_INFO@@@std@@@3@$0A@@std@@@std@@@std@@QAE@ABV?$allocator@U?$pair@$$CBJUGROUP_CHAT_INFO@@@std@@@1@@Z 0055eed0 f i globalvar.obj
 0002:00080f10       ??$_Allocate@U_Node@?$_Tree_nod@V?$_Tmap_traits@JUGROUP_CHAT_INFO@@U?$less@J@std@@V?$allocator@U?$pair@$$CBJUGROUP_CHAT_INFO@@@std@@@3@$0A@@std@@@std@@@std@@YAPAU_Node@?$_Tree_nod@V?$_Tmap_traits@JUGROUP_CHAT_INFO@@U?$less@J@std@@V?$allocator@U?$pair@$$CBJUGROUP_CHAT_INFO@@@std@@@3@$0A@@std@@@0@IPAU120@@Z 0055ef10 f i globalvar.obj
 0002:00080fc0       ??0?$map@HUtagPUBLIC_INFO@@U?$less@H@std@@V?$allocator@U?$pair@$$CBHUtagPUBLIC_INFO@@@std@@@3@@std@@QAE@XZ 0055efc0 f i globalvar.obj
 0002:00081030       ??0?$_Tree@V?$_Tmap_traits@HUtagPUBLIC_INFO@@U?$less@H@std@@V?$allocator@U?$pair@$$CBHUtagPUBLIC_INFO@@@std@@@3@$0A@@std@@@std@@QAE@ABU?$less@H@1@ABV?$allocator@U?$pair@$$CBHUtagPUBLIC_INFO@@@std@@@1@@Z 0055f030 f i globalvar.obj
 0002:000810a0       ??0?$allocator@U?$pair@$$CBHUtagPUBLIC_INFO@@@std@@@std@@QAE@XZ 0055f0a0 f i globalvar.obj
 0002:000810e0       ??0?$_Tree_val@V?$_Tmap_traits@HUtagPUBLIC_INFO@@U?$less@H@std@@V?$allocator@U?$pair@$$CBHUtagPUBLIC_INFO@@@std@@@3@$0A@@std@@@std@@QAE@ABU?$less@H@1@V?$allocator@U?$pair@$$CBHUtagPUBLIC_INFO@@@std@@@1@@Z 0055f0e0 f i globalvar.obj
 0002:000811f0       ??0?$allocator@U?$pair@$$CBHUtagPUBLIC_INFO@@@std@@@std@@QAE@ABV01@@Z 0055f1f0 f i globalvar.obj
 0002:00081230       ?_Color@?$_Tree_val@V?$_Tmap_traits@HUtagPUBLIC_INFO@@U?$less@H@std@@V?$allocator@U?$pair@$$CBHUtagPUBLIC_INFO@@@std@@@3@$0A@@std@@@std@@SAAADPAU_Node@?$_Tree_nod@V?$_Tmap_traits@HUtagPUBLIC_INFO@@U?$less@H@std@@V?$allocator@U?$pair@$$CBHUtagPUBLIC_INFO@@@std@@@3@$0A@@std@@@2@@Z 0055f230 f i globalvar.obj
 0002:00081270       ?_Isnil@?$_Tree_val@V?$_Tmap_traits@HUtagPUBLIC_INFO@@U?$less@H@std@@V?$allocator@U?$pair@$$CBHUtagPUBLIC_INFO@@@std@@@3@$0A@@std@@@std@@SAAADPAU_Node@?$_Tree_nod@V?$_Tmap_traits@HUtagPUBLIC_INFO@@U?$less@H@std@@V?$allocator@U?$pair@$$CBHUtagPUBLIC_INFO@@@std@@@3@$0A@@std@@@2@@Z 0055f270 f i globalvar.obj
 0002:000812b0       ?_Left@?$_Tree_val@V?$_Tmap_traits@HUtagPUBLIC_INFO@@U?$less@H@std@@V?$allocator@U?$pair@$$CBHUtagPUBLIC_INFO@@@std@@@3@$0A@@std@@@std@@SAAAPAU_Node@?$_Tree_nod@V?$_Tmap_traits@HUtagPUBLIC_INFO@@U?$less@H@std@@V?$allocator@U?$pair@$$CBHUtagPUBLIC_INFO@@@std@@@3@$0A@@std@@@2@PAU342@@Z 0055f2b0 f i globalvar.obj
 0002:000812f0       ?_Parent@?$_Tree_val@V?$_Tmap_traits@HUtagPUBLIC_INFO@@U?$less@H@std@@V?$allocator@U?$pair@$$CBHUtagPUBLIC_INFO@@@std@@@3@$0A@@std@@@std@@SAAAPAU_Node@?$_Tree_nod@V?$_Tmap_traits@HUtagPUBLIC_INFO@@U?$less@H@std@@V?$allocator@U?$pair@$$CBHUtagPUBLIC_INFO@@@std@@@3@$0A@@std@@@2@PAU342@@Z 0055f2f0 f i globalvar.obj
 0002:00081330       ?_Right@?$_Tree_val@V?$_Tmap_traits@HUtagPUBLIC_INFO@@U?$less@H@std@@V?$allocator@U?$pair@$$CBHUtagPUBLIC_INFO@@@std@@@3@$0A@@std@@@std@@SAAAPAU_Node@?$_Tree_nod@V?$_Tmap_traits@HUtagPUBLIC_INFO@@U?$less@H@std@@V?$allocator@U?$pair@$$CBHUtagPUBLIC_INFO@@@std@@@3@$0A@@std@@@2@PAU342@@Z 0055f330 f i globalvar.obj
 0002:00081370       ??0?$_Tree_nod@V?$_Tmap_traits@HUtagPUBLIC_INFO@@U?$less@H@std@@V?$allocator@U?$pair@$$CBHUtagPUBLIC_INFO@@@std@@@3@$0A@@std@@@std@@QAE@ABU?$less@H@1@V?$allocator@U?$pair@$$CBHUtagPUBLIC_INFO@@@std@@@1@@Z 0055f370 f i globalvar.obj
 0002:00081400       ?allocate@?$allocator@U_Node@?$_Tree_nod@V?$_Tmap_traits@HUtagPUBLIC_INFO@@U?$less@H@std@@V?$allocator@U?$pair@$$CBHUtagPUBLIC_INFO@@@std@@@3@$0A@@std@@@std@@@std@@QAEPAU_Node@?$_Tree_nod@V?$_Tmap_traits@HUtagPUBLIC_INFO@@U?$less@H@std@@V?$allocator@U?$pair@$$CBHUtagPUBLIC_INFO@@@std@@@3@$0A@@std@@@2@I@Z 0055f400 f i globalvar.obj
 0002:00081460       ??0?$_Tmap_traits@HUtagPUBLIC_INFO@@U?$less@H@std@@V?$allocator@U?$pair@$$CBHUtagPUBLIC_INFO@@@std@@@3@$0A@@std@@QAE@U?$less@H@1@@Z 0055f460 f i globalvar.obj
 0002:000814a0       ??$?0U?$pair@$$CBHUtagPUBLIC_INFO@@@std@@@?$allocator@U_Node@?$_Tree_nod@V?$_Tmap_traits@HUtagPUBLIC_INFO@@U?$less@H@std@@V?$allocator@U?$pair@$$CBHUtagPUBLIC_INFO@@@std@@@3@$0A@@std@@@std@@@std@@QAE@ABV?$allocator@U?$pair@$$CBHUtagPUBLIC_INFO@@@std@@@1@@Z 0055f4a0 f i globalvar.obj
 0002:000814e0       ??$_Allocate@U_Node@?$_Tree_nod@V?$_Tmap_traits@HUtagPUBLIC_INFO@@U?$less@H@std@@V?$allocator@U?$pair@$$CBHUtagPUBLIC_INFO@@@std@@@3@$0A@@std@@@std@@@std@@YAPAU_Node@?$_Tree_nod@V?$_Tmap_traits@HUtagPUBLIC_INFO@@U?$less@H@std@@V?$allocator@U?$pair@$$CBHUtagPUBLIC_INFO@@@std@@@3@$0A@@std@@@0@IPAU120@@Z 0055f4e0 f i globalvar.obj
 0002:00081590       ??0?$map@HUtagTGROOM_INFO@@U?$less@H@std@@V?$allocator@U?$pair@$$CBHUtagTGROOM_INFO@@@std@@@3@@std@@QAE@XZ 0055f590 f i globalvar.obj
 0002:00081600       ??0?$_Tree@V?$_Tmap_traits@HUtagTGROOM_INFO@@U?$less@H@std@@V?$allocator@U?$pair@$$CBHUtagTGROOM_INFO@@@std@@@3@$0A@@std@@@std@@QAE@ABU?$less@H@1@ABV?$allocator@U?$pair@$$CBHUtagTGROOM_INFO@@@std@@@1@@Z 0055f600 f i globalvar.obj
 0002:00081670       ??0?$allocator@U?$pair@$$CBHUtagTGROOM_INFO@@@std@@@std@@QAE@XZ 0055f670 f i globalvar.obj
 0002:000816b0       ??0?$_Tree_val@V?$_Tmap_traits@HUtagTGROOM_INFO@@U?$less@H@std@@V?$allocator@U?$pair@$$CBHUtagTGROOM_INFO@@@std@@@3@$0A@@std@@@std@@QAE@ABU?$less@H@1@V?$allocator@U?$pair@$$CBHUtagTGROOM_INFO@@@std@@@1@@Z 0055f6b0 f i globalvar.obj
 0002:000817c0       ??0?$allocator@U?$pair@$$CBHUtagTGROOM_INFO@@@std@@@std@@QAE@ABV01@@Z 0055f7c0 f i globalvar.obj
 0002:00081800       ?_Color@?$_Tree_val@V?$_Tmap_traits@HUtagTGROOM_INFO@@U?$less@H@std@@V?$allocator@U?$pair@$$CBHUtagTGROOM_INFO@@@std@@@3@$0A@@std@@@std@@SAAADPAU_Node@?$_Tree_nod@V?$_Tmap_traits@HUtagTGROOM_INFO@@U?$less@H@std@@V?$allocator@U?$pair@$$CBHUtagTGROOM_INFO@@@std@@@3@$0A@@std@@@2@@Z 0055f800 f i globalvar.obj
 0002:00081840       ?_Isnil@?$_Tree_val@V?$_Tmap_traits@HUtagTGROOM_INFO@@U?$less@H@std@@V?$allocator@U?$pair@$$CBHUtagTGROOM_INFO@@@std@@@3@$0A@@std@@@std@@SAAADPAU_Node@?$_Tree_nod@V?$_Tmap_traits@HUtagTGROOM_INFO@@U?$less@H@std@@V?$allocator@U?$pair@$$CBHUtagTGROOM_INFO@@@std@@@3@$0A@@std@@@2@@Z 0055f840 f i globalvar.obj
 0002:00081880       ?_Left@?$_Tree_val@V?$_Tmap_traits@HUtagTGROOM_INFO@@U?$less@H@std@@V?$allocator@U?$pair@$$CBHUtagTGROOM_INFO@@@std@@@3@$0A@@std@@@std@@SAAAPAU_Node@?$_Tree_nod@V?$_Tmap_traits@HUtagTGROOM_INFO@@U?$less@H@std@@V?$allocator@U?$pair@$$CBHUtagTGROOM_INFO@@@std@@@3@$0A@@std@@@2@PAU342@@Z 0055f880 f i globalvar.obj
 0002:000818c0       ?_Parent@?$_Tree_val@V?$_Tmap_traits@HUtagTGROOM_INFO@@U?$less@H@std@@V?$allocator@U?$pair@$$CBHUtagTGROOM_INFO@@@std@@@3@$0A@@std@@@std@@SAAAPAU_Node@?$_Tree_nod@V?$_Tmap_traits@HUtagTGROOM_INFO@@U?$less@H@std@@V?$allocator@U?$pair@$$CBHUtagTGROOM_INFO@@@std@@@3@$0A@@std@@@2@PAU342@@Z 0055f8c0 f i globalvar.obj
 0002:00081900       ?_Right@?$_Tree_val@V?$_Tmap_traits@HUtagTGROOM_INFO@@U?$less@H@std@@V?$allocator@U?$pair@$$CBHUtagTGROOM_INFO@@@std@@@3@$0A@@std@@@std@@SAAAPAU_Node@?$_Tree_nod@V?$_Tmap_traits@HUtagTGROOM_INFO@@U?$less@H@std@@V?$allocator@U?$pair@$$CBHUtagTGROOM_INFO@@@std@@@3@$0A@@std@@@2@PAU342@@Z 0055f900 f i globalvar.obj
 0002:00081940       ??0?$_Tree_nod@V?$_Tmap_traits@HUtagTGROOM_INFO@@U?$less@H@std@@V?$allocator@U?$pair@$$CBHUtagTGROOM_INFO@@@std@@@3@$0A@@std@@@std@@QAE@ABU?$less@H@1@V?$allocator@U?$pair@$$CBHUtagTGROOM_INFO@@@std@@@1@@Z 0055f940 f i globalvar.obj
 0002:000819d0       ?allocate@?$allocator@U_Node@?$_Tree_nod@V?$_Tmap_traits@HUtagTGROOM_INFO@@U?$less@H@std@@V?$allocator@U?$pair@$$CBHUtagTGROOM_INFO@@@std@@@3@$0A@@std@@@std@@@std@@QAEPAU_Node@?$_Tree_nod@V?$_Tmap_traits@HUtagTGROOM_INFO@@U?$less@H@std@@V?$allocator@U?$pair@$$CBHUtagTGROOM_INFO@@@std@@@3@$0A@@std@@@2@I@Z 0055f9d0 f i globalvar.obj
 0002:00081a30       ??0?$_Tmap_traits@HUtagTGROOM_INFO@@U?$less@H@std@@V?$allocator@U?$pair@$$CBHUtagTGROOM_INFO@@@std@@@3@$0A@@std@@QAE@U?$less@H@1@@Z 0055fa30 f i globalvar.obj
 0002:00081a70       ??$?0U?$pair@$$CBHUtagTGROOM_INFO@@@std@@@?$allocator@U_Node@?$_Tree_nod@V?$_Tmap_traits@HUtagTGROOM_INFO@@U?$less@H@std@@V?$allocator@U?$pair@$$CBHUtagTGROOM_INFO@@@std@@@3@$0A@@std@@@std@@@std@@QAE@ABV?$allocator@U?$pair@$$CBHUtagTGROOM_INFO@@@std@@@1@@Z 0055fa70 f i globalvar.obj
 0002:00081ab0       ??$_Allocate@U_Node@?$_Tree_nod@V?$_Tmap_traits@HUtagTGROOM_INFO@@U?$less@H@std@@V?$allocator@U?$pair@$$CBHUtagTGROOM_INFO@@@std@@@3@$0A@@std@@@std@@@std@@YAPAU_Node@?$_Tree_nod@V?$_Tmap_traits@HUtagTGROOM_INFO@@U?$less@H@std@@V?$allocator@U?$pair@$$CBHUtagTGROOM_INFO@@@std@@@3@$0A@@std@@@0@IPAU120@@Z 0055fab0 f i globalvar.obj
 0002:00081b60       ??0?$map@HUALLCLIENT_ROOM_INFO@@U?$less@H@std@@V?$allocator@U?$pair@$$CBHUALLCLIENT_ROOM_INFO@@@std@@@3@@std@@QAE@XZ 0055fb60 f i globalvar.obj
 0002:00081bd0       ??0?$_Tree@V?$_Tmap_traits@HUALLCLIENT_ROOM_INFO@@U?$less@H@std@@V?$allocator@U?$pair@$$CBHUALLCLIENT_ROOM_INFO@@@std@@@3@$0A@@std@@@std@@QAE@ABU?$less@H@1@ABV?$allocator@U?$pair@$$CBHUALLCLIENT_ROOM_INFO@@@std@@@1@@Z 0055fbd0 f i globalvar.obj
 0002:00081c40       ??0?$allocator@U?$pair@$$CBHUALLCLIENT_ROOM_INFO@@@std@@@std@@QAE@XZ 0055fc40 f i globalvar.obj
 0002:00081c80       ??0?$_Tree_val@V?$_Tmap_traits@HUALLCLIENT_ROOM_INFO@@U?$less@H@std@@V?$allocator@U?$pair@$$CBHUALLCLIENT_ROOM_INFO@@@std@@@3@$0A@@std@@@std@@QAE@ABU?$less@H@1@V?$allocator@U?$pair@$$CBHUALLCLIENT_ROOM_INFO@@@std@@@1@@Z 0055fc80 f i globalvar.obj
 0002:00081d90       ??0?$allocator@U?$pair@$$CBHUALLCLIENT_ROOM_INFO@@@std@@@std@@QAE@ABV01@@Z 0055fd90 f i globalvar.obj
 0002:00081dd0       ??0?$_Tree_nod@V?$_Tmap_traits@HUALLCLIENT_ROOM_INFO@@U?$less@H@std@@V?$allocator@U?$pair@$$CBHUALLCLIENT_ROOM_INFO@@@std@@@3@$0A@@std@@@std@@QAE@ABU?$less@H@1@V?$allocator@U?$pair@$$CBHUALLCLIENT_ROOM_INFO@@@std@@@1@@Z 0055fdd0 f i globalvar.obj
 0002:00081e60       ?allocate@?$allocator@U_Node@?$_Tree_nod@V?$_Tmap_traits@HUALLCLIENT_ROOM_INFO@@U?$less@H@std@@V?$allocator@U?$pair@$$CBHUALLCLIENT_ROOM_INFO@@@std@@@3@$0A@@std@@@std@@@std@@QAEPAU_Node@?$_Tree_nod@V?$_Tmap_traits@HUALLCLIENT_ROOM_INFO@@U?$less@H@std@@V?$allocator@U?$pair@$$CBHUALLCLIENT_ROOM_INFO@@@std@@@3@$0A@@std@@@2@I@Z 0055fe60 f i globalvar.obj
 0002:00081ec0       ??0?$_Tmap_traits@HUALLCLIENT_ROOM_INFO@@U?$less@H@std@@V?$allocator@U?$pair@$$CBHUALLCLIENT_ROOM_INFO@@@std@@@3@$0A@@std@@QAE@U?$less@H@1@@Z 0055fec0 f i globalvar.obj
 0002:00081f00       ??$?0U?$pair@$$CBHUALLCLIENT_ROOM_INFO@@@std@@@?$allocator@U_Node@?$_Tree_nod@V?$_Tmap_traits@HUALLCLIENT_ROOM_INFO@@U?$less@H@std@@V?$allocator@U?$pair@$$CBHUALLCLIENT_ROOM_INFO@@@std@@@3@$0A@@std@@@std@@@std@@QAE@ABV?$allocator@U?$pair@$$CBHUALLCLIENT_ROOM_INFO@@@std@@@1@@Z 0055ff00 f i globalvar.obj
 0002:00081f40       ??$_Allocate@U_Node@?$_Tree_nod@V?$_Tmap_traits@HUALLCLIENT_ROOM_INFO@@U?$less@H@std@@V?$allocator@U?$pair@$$CBHUALLCLIENT_ROOM_INFO@@@std@@@3@$0A@@std@@@std@@@std@@YAPAU_Node@?$_Tree_nod@V?$_Tmap_traits@HUALLCLIENT_ROOM_INFO@@U?$less@H@std@@V?$allocator@U?$pair@$$CBHUALLCLIENT_ROOM_INFO@@@std@@@3@$0A@@std@@@0@IPAU120@@Z 0055ff40 f i globalvar.obj
 0002:00081ff0       ??0?$map@HHU?$less@H@std@@V?$allocator@U?$pair@$$CBHH@std@@@2@@std@@QAE@XZ 0055fff0 f i globalvar.obj
 0002:00082060       ??0?$_Tree@V?$_Tmap_traits@HHU?$less@H@std@@V?$allocator@U?$pair@$$CBHH@std@@@2@$0A@@std@@@std@@QAE@ABU?$less@H@1@ABV?$allocator@U?$pair@$$CBHH@std@@@1@@Z 00560060 f i globalvar.obj
 0002:000820d0       ??0?$allocator@U?$pair@$$CBHH@std@@@std@@QAE@XZ 005600d0 f i globalvar.obj
 0002:00082110       ??0?$_Tree_val@V?$_Tmap_traits@HHU?$less@H@std@@V?$allocator@U?$pair@$$CBHH@std@@@2@$0A@@std@@@std@@QAE@ABU?$less@H@1@V?$allocator@U?$pair@$$CBHH@std@@@1@@Z 00560110 f i globalvar.obj
 0002:00082220       ??0?$allocator@U?$pair@$$CBHH@std@@@std@@QAE@ABV01@@Z 00560220 f i globalvar.obj
 0002:00082260       ??0?$_Tree_nod@V?$_Tmap_traits@HHU?$less@H@std@@V?$allocator@U?$pair@$$CBHH@std@@@2@$0A@@std@@@std@@QAE@ABU?$less@H@1@V?$allocator@U?$pair@$$CBHH@std@@@1@@Z 00560260 f i globalvar.obj
 0002:000822f0       ??0?$_Tmap_traits@HHU?$less@H@std@@V?$allocator@U?$pair@$$CBHH@std@@@2@$0A@@std@@QAE@U?$less@H@1@@Z 005602f0 f i globalvar.obj
 0002:00082330       ??$?0U?$pair@$$CBHH@std@@@?$allocator@U_Node@?$_Tree_nod@V?$_Tmap_traits@HHU?$less@H@std@@V?$allocator@U?$pair@$$CBHH@std@@@2@$0A@@std@@@std@@@std@@QAE@ABV?$allocator@U?$pair@$$CBHH@std@@@1@@Z 00560330 f i globalvar.obj
 0002:00082370       ??0?$map@HV?$CStringT@DV?$StrTraitMFC_DLL@DV?$ChTraitsCRT@D@ATL@@@@@ATL@@U?$less@H@std@@V?$allocator@U?$pair@$$CBHV?$CStringT@DV?$StrTraitMFC_DLL@DV?$ChTraitsCRT@D@ATL@@@@@ATL@@@std@@@4@@std@@QAE@XZ 00560370 f i globalvar.obj
 0002:000823e0       ??0?$_Tree@V?$_Tmap_traits@HV?$CStringT@DV?$StrTraitMFC_DLL@DV?$ChTraitsCRT@D@ATL@@@@@ATL@@U?$less@H@std@@V?$allocator@U?$pair@$$CBHV?$CStringT@DV?$StrTraitMFC_DLL@DV?$ChTraitsCRT@D@ATL@@@@@ATL@@@std@@@4@$0A@@std@@@std@@QAE@ABU?$less@H@1@ABV?$allocator@U?$pair@$$CBHV?$CStringT@DV?$StrTraitMFC_DLL@DV?$ChTraitsCRT@D@ATL@@@@@ATL@@@std@@@1@@Z 005603e0 f i globalvar.obj
 0002:00082450       ??0?$allocator@U?$pair@$$CBHV?$CStringT@DV?$StrTraitMFC_DLL@DV?$ChTraitsCRT@D@ATL@@@@@ATL@@@std@@@std@@QAE@XZ 00560450 f i globalvar.obj
 0002:00082490       ??0?$_Tree_val@V?$_Tmap_traits@HV?$CStringT@DV?$StrTraitMFC_DLL@DV?$ChTraitsCRT@D@ATL@@@@@ATL@@U?$less@H@std@@V?$allocator@U?$pair@$$CBHV?$CStringT@DV?$StrTraitMFC_DLL@DV?$ChTraitsCRT@D@ATL@@@@@ATL@@@std@@@4@$0A@@std@@@std@@QAE@ABU?$less@H@1@V?$allocator@U?$pair@$$CBHV?$CStringT@DV?$StrTraitMFC_DLL@DV?$ChTraitsCRT@D@ATL@@@@@ATL@@@std@@@1@@Z 00560490 f i globalvar.obj
 0002:000825a0       ??0?$allocator@U?$pair@$$CBHV?$CStringT@DV?$StrTraitMFC_DLL@DV?$ChTraitsCRT@D@ATL@@@@@ATL@@@std@@@std@@QAE@ABV01@@Z 005605a0 f i globalvar.obj
 0002:000825e0       ?_Color@?$_Tree_val@V?$_Tmap_traits@HV?$CStringT@DV?$StrTraitMFC_DLL@DV?$ChTraitsCRT@D@ATL@@@@@ATL@@U?$less@H@std@@V?$allocator@U?$pair@$$CBHV?$CStringT@DV?$StrTraitMFC_DLL@DV?$ChTraitsCRT@D@ATL@@@@@ATL@@@std@@@4@$0A@@std@@@std@@SAAADPAU_Node@?$_Tree_nod@V?$_Tmap_traits@HV?$CStringT@DV?$StrTraitMFC_DLL@DV?$ChTraitsCRT@D@ATL@@@@@ATL@@U?$less@H@std@@V?$allocator@U?$pair@$$CBHV?$CStringT@DV?$StrTraitMFC_DLL@DV?$ChTraitsCRT@D@ATL@@@@@ATL@@@std@@@4@$0A@@std@@@2@@Z 005605e0 f i globalvar.obj
 0002:00082620       ?_Isnil@?$_Tree_val@V?$_Tmap_traits@HV?$CStringT@DV?$StrTraitMFC_DLL@DV?$ChTraitsCRT@D@ATL@@@@@ATL@@U?$less@H@std@@V?$allocator@U?$pair@$$CBHV?$CStringT@DV?$StrTraitMFC_DLL@DV?$ChTraitsCRT@D@ATL@@@@@ATL@@@std@@@4@$0A@@std@@@std@@SAAADPAU_Node@?$_Tree_nod@V?$_Tmap_traits@HV?$CStringT@DV?$StrTraitMFC_DLL@DV?$ChTraitsCRT@D@ATL@@@@@ATL@@U?$less@H@std@@V?$allocator@U?$pair@$$CBHV?$CStringT@DV?$StrTraitMFC_DLL@DV?$ChTraitsCRT@D@ATL@@@@@ATL@@@std@@@4@$0A@@std@@@2@@Z 00560620 f i globalvar.obj
 0002:00082660       ?_Left@?$_Tree_val@V?$_Tmap_traits@HV?$CStringT@DV?$StrTraitMFC_DLL@DV?$ChTraitsCRT@D@ATL@@@@@ATL@@U?$less@H@std@@V?$allocator@U?$pair@$$CBHV?$CStringT@DV?$StrTraitMFC_DLL@DV?$ChTraitsCRT@D@ATL@@@@@ATL@@@std@@@4@$0A@@std@@@std@@SAAAPAU_Node@?$_Tree_nod@V?$_Tmap_traits@HV?$CStringT@DV?$StrTraitMFC_DLL@DV?$ChTraitsCRT@D@ATL@@@@@ATL@@U?$less@H@std@@V?$allocator@U?$pair@$$CBHV?$CStringT@DV?$StrTraitMFC_DLL@DV?$ChTraitsCRT@D@ATL@@@@@ATL@@@std@@@4@$0A@@std@@@2@PAU342@@Z 00560660 f i globalvar.obj
 0002:000826a0       ?_Parent@?$_Tree_val@V?$_Tmap_traits@HV?$CStringT@DV?$StrTraitMFC_DLL@DV?$ChTraitsCRT@D@ATL@@@@@ATL@@U?$less@H@std@@V?$allocator@U?$pair@$$CBHV?$CStringT@DV?$StrTraitMFC_DLL@DV?$ChTraitsCRT@D@ATL@@@@@ATL@@@std@@@4@$0A@@std@@@std@@SAAAPAU_Node@?$_Tree_nod@V?$_Tmap_traits@HV?$CStringT@DV?$StrTraitMFC_DLL@DV?$ChTraitsCRT@D@ATL@@@@@ATL@@U?$less@H@std@@V?$allocator@U?$pair@$$CBHV?$CStringT@DV?$StrTraitMFC_DLL@DV?$ChTraitsCRT@D@ATL@@@@@ATL@@@std@@@4@$0A@@std@@@2@PAU342@@Z 005606a0 f i globalvar.obj
 0002:000826e0       ?_Right@?$_Tree_val@V?$_Tmap_traits@HV?$CStringT@DV?$StrTraitMFC_DLL@DV?$ChTraitsCRT@D@ATL@@@@@ATL@@U?$less@H@std@@V?$allocator@U?$pair@$$CBHV?$CStringT@DV?$StrTraitMFC_DLL@DV?$ChTraitsCRT@D@ATL@@@@@ATL@@@std@@@4@$0A@@std@@@std@@SAAAPAU_Node@?$_Tree_nod@V?$_Tmap_traits@HV?$CStringT@DV?$StrTraitMFC_DLL@DV?$ChTraitsCRT@D@ATL@@@@@ATL@@U?$less@H@std@@V?$allocator@U?$pair@$$CBHV?$CStringT@DV?$StrTraitMFC_DLL@DV?$ChTraitsCRT@D@ATL@@@@@ATL@@@std@@@4@$0A@@std@@@2@PAU342@@Z 005606e0 f i globalvar.obj
 0002:00082720       ??0?$_Tree_nod@V?$_Tmap_traits@HV?$CStringT@DV?$StrTraitMFC_DLL@DV?$ChTraitsCRT@D@ATL@@@@@ATL@@U?$less@H@std@@V?$allocator@U?$pair@$$CBHV?$CStringT@DV?$StrTraitMFC_DLL@DV?$ChTraitsCRT@D@ATL@@@@@ATL@@@std@@@4@$0A@@std@@@std@@QAE@ABU?$less@H@1@V?$allocator@U?$pair@$$CBHV?$CStringT@DV?$StrTraitMFC_DLL@DV?$ChTraitsCRT@D@ATL@@@@@ATL@@@std@@@1@@Z 00560720 f i globalvar.obj
 0002:000827b0       ?allocate@?$allocator@U_Node@?$_Tree_nod@V?$_Tmap_traits@HV?$CStringT@DV?$StrTraitMFC_DLL@DV?$ChTraitsCRT@D@ATL@@@@@ATL@@U?$less@H@std@@V?$allocator@U?$pair@$$CBHV?$CStringT@DV?$StrTraitMFC_DLL@DV?$ChTraitsCRT@D@ATL@@@@@ATL@@@std@@@4@$0A@@std@@@std@@@std@@QAEPAU_Node@?$_Tree_nod@V?$_Tmap_traits@HV?$CStringT@DV?$StrTraitMFC_DLL@DV?$ChTraitsCRT@D@ATL@@@@@ATL@@U?$less@H@std@@V?$allocator@U?$pair@$$CBHV?$CStringT@DV?$StrTraitMFC_DLL@DV?$ChTraitsCRT@D@ATL@@@@@ATL@@@std@@@4@$0A@@std@@@2@I@Z 005607b0 f i globalvar.obj
 0002:00082810       ??0?$_Tmap_traits@HV?$CStringT@DV?$StrTraitMFC_DLL@DV?$ChTraitsCRT@D@ATL@@@@@ATL@@U?$less@H@std@@V?$allocator@U?$pair@$$CBHV?$CStringT@DV?$StrTraitMFC_DLL@DV?$ChTraitsCRT@D@ATL@@@@@ATL@@@std@@@4@$0A@@std@@QAE@U?$less@H@1@@Z 00560810 f i globalvar.obj
 0002:00082850       ??$?0U?$pair@$$CBHV?$CStringT@DV?$StrTraitMFC_DLL@DV?$ChTraitsCRT@D@ATL@@@@@ATL@@@std@@@?$allocator@U_Node@?$_Tree_nod@V?$_Tmap_traits@HV?$CStringT@DV?$StrTraitMFC_DLL@DV?$ChTraitsCRT@D@ATL@@@@@ATL@@U?$less@H@std@@V?$allocator@U?$pair@$$CBHV?$CStringT@DV?$StrTraitMFC_DLL@DV?$ChTraitsCRT@D@ATL@@@@@ATL@@@std@@@4@$0A@@std@@@std@@@std@@QAE@ABV?$allocator@U?$pair@$$CBHV?$CStringT@DV?$StrTraitMFC_DLL@DV?$ChTraitsCRT@D@ATL@@@@@ATL@@@std@@@1@@Z 00560850 f i globalvar.obj
 0002:00082890       ??$_Allocate@U_Node@?$_Tree_nod@V?$_Tmap_traits@HV?$CStringT@DV?$StrTraitMFC_DLL@DV?$ChTraitsCRT@D@ATL@@@@@ATL@@U?$less@H@std@@V?$allocator@U?$pair@$$CBHV?$CStringT@DV?$StrTraitMFC_DLL@DV?$ChTraitsCRT@D@ATL@@@@@ATL@@@std@@@4@$0A@@std@@@std@@@std@@YAPAU_Node@?$_Tree_nod@V?$_Tmap_traits@HV?$CStringT@DV?$StrTraitMFC_DLL@DV?$ChTraitsCRT@D@ATL@@@@@ATL@@U?$less@H@std@@V?$allocator@U?$pair@$$CBHV?$CStringT@DV?$StrTraitMFC_DLL@DV?$ChTraitsCRT@D@ATL@@@@@ATL@@@std@@@4@$0A@@std@@@0@IPAU120@@Z 00560890 f i globalvar.obj
 0002:00082940       ??1ANALYSTGROUP_INFO@@QAE@XZ 00560940 f i globalvar.obj
 0002:000829a0       ??0ANALYSTGROUP_INFO@@QAE@XZ 005609a0 f i globalvar.obj
 0002:00082a10       ??0GdiplusStartupInput@Gdiplus@@QAE@P6GXW4DebugEventLevel@1@PAD@ZHH@Z 00560a10 f i globalvar.obj
 0002:00082a80       ??0FriendListItemInfo@DuiLib@@QAE@XZ 00560a80 f i globalvar.obj
 0002:00082e60       ??1?$map@VCDuiString@DuiLib@@PAXU?$less@VCDuiString@DuiLib@@@std@@V?$allocator@U?$pair@$$CBVCDuiString@DuiLib@@PAX@std@@@4@@std@@QAE@XZ 00560e60 f i globalvar.obj
 0002:00082eb0       ??1?$_Tree@V?$_Tmap_traits@VCDuiString@DuiLib@@PAXU?$less@VCDuiString@DuiLib@@@std@@V?$allocator@U?$pair@$$CBVCDuiString@DuiLib@@PAX@std@@@4@$0A@@std@@@std@@QAE@XZ 00560eb0 f i globalvar.obj
 0002:00082f50       ?_Tidy@?$_Tree@V?$_Tmap_traits@VCDuiString@DuiLib@@PAXU?$less@VCDuiString@DuiLib@@@std@@V?$allocator@U?$pair@$$CBVCDuiString@DuiLib@@PAX@std@@@4@$0A@@std@@@std@@IAEXXZ 00560f50 f i globalvar.obj
 0002:00083000       ??1?$_Tree_val@V?$_Tmap_traits@VCDuiString@DuiLib@@PAXU?$less@VCDuiString@DuiLib@@@std@@V?$allocator@U?$pair@$$CBVCDuiString@DuiLib@@PAX@std@@@4@$0A@@std@@@std@@QAE@XZ 00561000 f i globalvar.obj
 0002:00083060       ?begin@?$_Tree@V?$_Tmap_traits@VCDuiString@DuiLib@@PAXU?$less@VCDuiString@DuiLib@@@std@@V?$allocator@U?$pair@$$CBVCDuiString@DuiLib@@PAX@std@@@4@$0A@@std@@@std@@QAE?AV?$_Tree_iterator@V?$_Tree_val@V?$_Tmap_traits@VCDuiString@DuiLib@@PAXU?$less@VCDuiString@DuiLib@@@std@@V?$allocator@U?$pair@$$CBVCDuiString@DuiLib@@PAX@std@@@4@$0A@@std@@@std@@@2@XZ 00561060 f i globalvar.obj
 0002:000830d0       ?end@?$_Tree@V?$_Tmap_traits@VCDuiString@DuiLib@@PAXU?$less@VCDuiString@DuiLib@@@std@@V?$allocator@U?$pair@$$CBVCDuiString@DuiLib@@PAX@std@@@4@$0A@@std@@@std@@QAE?AV?$_Tree_iterator@V?$_Tree_val@V?$_Tmap_traits@VCDuiString@DuiLib@@PAXU?$less@VCDuiString@DuiLib@@@std@@V?$allocator@U?$pair@$$CBVCDuiString@DuiLib@@PAX@std@@@4@$0A@@std@@@std@@@2@XZ 005610d0 f i globalvar.obj
 0002:00083140       ?erase@?$_Tree@V?$_Tmap_traits@VCDuiString@DuiLib@@PAXU?$less@VCDuiString@DuiLib@@@std@@V?$allocator@U?$pair@$$CBVCDuiString@DuiLib@@PAX@std@@@4@$0A@@std@@@std@@QAE?AV?$_Tree_iterator@V?$_Tree_val@V?$_Tmap_traits@VCDuiString@DuiLib@@PAXU?$less@VCDuiString@DuiLib@@@std@@V?$allocator@U?$pair@$$CBVCDuiString@DuiLib@@PAX@std@@@4@$0A@@std@@@std@@@2@V?$_Tree_const_iterator@V?$_Tree_val@V?$_Tmap_traits@VCDuiString@DuiLib@@PAXU?$less@VCDuiString@DuiLib@@@std@@V?$allocator@U?$pair@$$CBVCDuiString@DuiLib@@PAX@std@@@4@$0A@@std@@@std@@@2@0@Z 00561140 f i globalvar.obj
 0002:00083260       ?deallocate@?$allocator@U_Node@?$_Tree_nod@V?$_Tmap_traits@VCDuiString@DuiLib@@PAXU?$less@VCDuiString@DuiLib@@@std@@V?$allocator@U?$pair@$$CBVCDuiString@DuiLib@@PAX@std@@@4@$0A@@std@@@std@@@std@@QAEXPAU_Node@?$_Tree_nod@V?$_Tmap_traits@VCDuiString@DuiLib@@PAXU?$less@VCDuiString@DuiLib@@@std@@V?$allocator@U?$pair@$$CBVCDuiString@DuiLib@@PAX@std@@@4@$0A@@std@@@2@I@Z 00561260 f i globalvar.obj
 0002:000832c0       ?erase@?$_Tree@V?$_Tmap_traits@VCDuiString@DuiLib@@PAXU?$less@VCDuiString@DuiLib@@@std@@V?$allocator@U?$pair@$$CBVCDuiString@DuiLib@@PAX@std@@@4@$0A@@std@@@std@@QAE?AV?$_Tree_iterator@V?$_Tree_val@V?$_Tmap_traits@VCDuiString@DuiLib@@PAXU?$less@VCDuiString@DuiLib@@@std@@V?$allocator@U?$pair@$$CBVCDuiString@DuiLib@@PAX@std@@@4@$0A@@std@@@std@@@2@V?$_Tree_const_iterator@V?$_Tree_val@V?$_Tmap_traits@VCDuiString@DuiLib@@PAXU?$less@VCDuiString@DuiLib@@@std@@V?$allocator@U?$pair@$$CBVCDuiString@DuiLib@@PAX@std@@@4@$0A@@std@@@std@@@2@@Z 005612c0 f i globalvar.obj
 0002:00083c80       ?clear@?$_Tree@V?$_Tmap_traits@VCDuiString@DuiLib@@PAXU?$less@VCDuiString@DuiLib@@@std@@V?$allocator@U?$pair@$$CBVCDuiString@DuiLib@@PAX@std@@@4@$0A@@std@@@std@@QAEXXZ 00561c80 f i globalvar.obj
 0002:00083d30       ?_Lmost@?$_Tree@V?$_Tmap_traits@VCDuiString@DuiLib@@PAXU?$less@VCDuiString@DuiLib@@@std@@V?$allocator@U?$pair@$$CBVCDuiString@DuiLib@@PAX@std@@@4@$0A@@std@@@std@@IBEAAPAU_Node@?$_Tree_nod@V?$_Tmap_traits@VCDuiString@DuiLib@@PAXU?$less@VCDuiString@DuiLib@@@std@@V?$allocator@U?$pair@$$CBVCDuiString@DuiLib@@PAX@std@@@4@$0A@@std@@@2@XZ 00561d30 f i globalvar.obj
 0002:00083d90       ??0?$_Tree_iterator@V?$_Tree_val@V?$_Tmap_traits@VCDuiString@DuiLib@@PAXU?$less@VCDuiString@DuiLib@@@std@@V?$allocator@U?$pair@$$CBVCDuiString@DuiLib@@PAX@std@@@4@$0A@@std@@@std@@@std@@QAE@PAU_Node@?$_Tree_nod@V?$_Tmap_traits@VCDuiString@DuiLib@@PAXU?$less@VCDuiString@DuiLib@@@std@@V?$allocator@U?$pair@$$CBVCDuiString@DuiLib@@PAX@std@@@4@$0A@@std@@@1@PBV?$_Tree_val@V?$_Tmap_traits@VCDuiString@DuiLib@@PAXU?$less@VCDuiString@DuiLib@@@std@@V?$allocator@U?$pair@$$CBVCDuiString@DuiLib@@PAX@std@@@4@$0A@@std@@@1@@Z 00561d90 f i globalvar.obj
 0002:00083df0       ??E?$_Tree_const_iterator@V?$_Tree_val@V?$_Tmap_traits@VCDuiString@DuiLib@@PAXU?$less@VCDuiString@DuiLib@@@std@@V?$allocator@U?$pair@$$CBVCDuiString@DuiLib@@PAX@std@@@4@$0A@@std@@@std@@@std@@QAE?AV01@H@Z 00561df0 f i globalvar.obj
 0002:00083ea0       ??8?$_Tree_const_iterator@V?$_Tree_val@V?$_Tmap_traits@VCDuiString@DuiLib@@PAXU?$less@VCDuiString@DuiLib@@@std@@V?$allocator@U?$pair@$$CBVCDuiString@DuiLib@@PAX@std@@@4@$0A@@std@@@std@@@std@@QBE_NABV01@@Z 00561ea0 f i globalvar.obj
 0002:00083ef0       ??9?$_Tree_const_iterator@V?$_Tree_val@V?$_Tmap_traits@VCDuiString@DuiLib@@PAXU?$less@VCDuiString@DuiLib@@@std@@V?$allocator@U?$pair@$$CBVCDuiString@DuiLib@@PAX@std@@@4@$0A@@std@@@std@@@std@@QBE_NABV01@@Z 00561ef0 f i globalvar.obj
 0002:00083f60       ?_Erase@?$_Tree@V?$_Tmap_traits@VCDuiString@DuiLib@@PAXU?$less@VCDuiString@DuiLib@@@std@@V?$allocator@U?$pair@$$CBVCDuiString@DuiLib@@PAX@std@@@4@$0A@@std@@@std@@IAEXPAU_Node@?$_Tree_nod@V?$_Tmap_traits@VCDuiString@DuiLib@@PAXU?$less@VCDuiString@DuiLib@@@std@@V?$allocator@U?$pair@$$CBVCDuiString@DuiLib@@PAX@std@@@4@$0A@@std@@@2@@Z 00561f60 f i globalvar.obj
 0002:00084050       ?_Lrotate@?$_Tree@V?$_Tmap_traits@VCDuiString@DuiLib@@PAXU?$less@VCDuiString@DuiLib@@@std@@V?$allocator@U?$pair@$$CBVCDuiString@DuiLib@@PAX@std@@@4@$0A@@std@@@std@@IAEXPAU_Node@?$_Tree_nod@V?$_Tmap_traits@VCDuiString@DuiLib@@PAXU?$less@VCDuiString@DuiLib@@@std@@V?$allocator@U?$pair@$$CBVCDuiString@DuiLib@@PAX@std@@@4@$0A@@std@@@2@@Z 00562050 f i globalvar.obj
 0002:00084200       ?_Rmost@?$_Tree@V?$_Tmap_traits@VCDuiString@DuiLib@@PAXU?$less@VCDuiString@DuiLib@@@std@@V?$allocator@U?$pair@$$CBVCDuiString@DuiLib@@PAX@std@@@4@$0A@@std@@@std@@IBEAAPAU_Node@?$_Tree_nod@V?$_Tmap_traits@VCDuiString@DuiLib@@PAXU?$less@VCDuiString@DuiLib@@@std@@V?$allocator@U?$pair@$$CBVCDuiString@DuiLib@@PAX@std@@@4@$0A@@std@@@2@XZ 00562200 f i globalvar.obj
 0002:00084260       ?_Root@?$_Tree@V?$_Tmap_traits@VCDuiString@DuiLib@@PAXU?$less@VCDuiString@DuiLib@@@std@@V?$allocator@U?$pair@$$CBVCDuiString@DuiLib@@PAX@std@@@4@$0A@@std@@@std@@IBEAAPAU_Node@?$_Tree_nod@V?$_Tmap_traits@VCDuiString@DuiLib@@PAXU?$less@VCDuiString@DuiLib@@@std@@V?$allocator@U?$pair@$$CBVCDuiString@DuiLib@@PAX@std@@@4@$0A@@std@@@2@XZ 00562260 f i globalvar.obj
 0002:000842c0       ?_Rrotate@?$_Tree@V?$_Tmap_traits@VCDuiString@DuiLib@@PAXU?$less@VCDuiString@DuiLib@@@std@@V?$allocator@U?$pair@$$CBVCDuiString@DuiLib@@PAX@std@@@4@$0A@@std@@@std@@IAEXPAU_Node@?$_Tree_nod@V?$_Tmap_traits@VCDuiString@DuiLib@@PAXU?$less@VCDuiString@DuiLib@@@std@@V?$allocator@U?$pair@$$CBVCDuiString@DuiLib@@PAX@std@@@4@$0A@@std@@@2@@Z 005622c0 f i globalvar.obj
 0002:00084470       ?_Myval@?$_Tree_val@V?$_Tmap_traits@VCDuiString@DuiLib@@PAXU?$less@VCDuiString@DuiLib@@@std@@V?$allocator@U?$pair@$$CBVCDuiString@DuiLib@@PAX@std@@@4@$0A@@std@@@std@@SAAAU?$pair@$$CBVCDuiString@DuiLib@@PAX@2@PAU_Node@?$_Tree_nod@V?$_Tmap_traits@VCDuiString@DuiLib@@PAXU?$less@VCDuiString@DuiLib@@@std@@V?$allocator@U?$pair@$$CBVCDuiString@DuiLib@@PAX@std@@@4@$0A@@std@@@2@@Z 00562470 f i globalvar.obj
 0002:000844b0       ?_Max@?$_Tree_val@V?$_Tmap_traits@VCDuiString@DuiLib@@PAXU?$less@VCDuiString@DuiLib@@@std@@V?$allocator@U?$pair@$$CBVCDuiString@DuiLib@@PAX@std@@@4@$0A@@std@@@std@@SAPAU_Node@?$_Tree_nod@V?$_Tmap_traits@VCDuiString@DuiLib@@PAXU?$less@VCDuiString@DuiLib@@@std@@V?$allocator@U?$pair@$$CBVCDuiString@DuiLib@@PAX@std@@@4@$0A@@std@@@2@PAU342@@Z 005624b0 f i globalvar.obj
 0002:00084530       ?_Min@?$_Tree_val@V?$_Tmap_traits@VCDuiString@DuiLib@@PAXU?$less@VCDuiString@DuiLib@@@std@@V?$allocator@U?$pair@$$CBVCDuiString@DuiLib@@PAX@std@@@4@$0A@@std@@@std@@SAPAU_Node@?$_Tree_nod@V?$_Tmap_traits@VCDuiString@DuiLib@@PAXU?$less@VCDuiString@DuiLib@@@std@@V?$allocator@U?$pair@$$CBVCDuiString@DuiLib@@PAX@std@@@4@$0A@@std@@@2@PAU342@@Z 00562530 f i globalvar.obj
 0002:000845b0       ??0?$_Tree_const_iterator@V?$_Tree_val@V?$_Tmap_traits@VCDuiString@DuiLib@@PAXU?$less@VCDuiString@DuiLib@@@std@@V?$allocator@U?$pair@$$CBVCDuiString@DuiLib@@PAX@std@@@4@$0A@@std@@@std@@@std@@QAE@PAU_Node@?$_Tree_nod@V?$_Tmap_traits@VCDuiString@DuiLib@@PAXU?$less@VCDuiString@DuiLib@@@std@@V?$allocator@U?$pair@$$CBVCDuiString@DuiLib@@PAX@std@@@4@$0A@@std@@@1@PBV?$_Tree_val@V?$_Tmap_traits@VCDuiString@DuiLib@@PAXU?$less@VCDuiString@DuiLib@@@std@@V?$allocator@U?$pair@$$CBVCDuiString@DuiLib@@PAX@std@@@4@$0A@@std@@@1@@Z 005625b0 f i globalvar.obj
 0002:00084610       ??E?$_Tree_const_iterator@V?$_Tree_val@V?$_Tmap_traits@VCDuiString@DuiLib@@PAXU?$less@VCDuiString@DuiLib@@@std@@V?$allocator@U?$pair@$$CBVCDuiString@DuiLib@@PAX@std@@@4@$0A@@std@@@std@@@std@@QAEAAV01@XZ 00562610 f i globalvar.obj
 0002:00084670       ?_Mynode@?$_Tree_unchecked_const_iterator@V?$_Tree_val@V?$_Tmap_traits@VCDuiString@DuiLib@@PAXU?$less@VCDuiString@DuiLib@@@std@@V?$allocator@U?$pair@$$CBVCDuiString@DuiLib@@PAX@std@@@4@$0A@@std@@@std@@U_Iterator_base0@2@@std@@QBEPAU_Node@?$_Tree_nod@V?$_Tmap_traits@VCDuiString@DuiLib@@PAXU?$less@VCDuiString@DuiLib@@@std@@V?$allocator@U?$pair@$$CBVCDuiString@DuiLib@@PAX@std@@@4@$0A@@std@@@2@XZ 00562670 f i globalvar.obj
 0002:000846b0       ??0?$_Tree_unchecked_const_iterator@V?$_Tree_val@V?$_Tmap_traits@VCDuiString@DuiLib@@PAXU?$less@VCDuiString@DuiLib@@@std@@V?$allocator@U?$pair@$$CBVCDuiString@DuiLib@@PAX@std@@@4@$0A@@std@@@std@@U_Iterator_base0@2@@std@@QAE@PAU_Node@?$_Tree_nod@V?$_Tmap_traits@VCDuiString@DuiLib@@PAXU?$less@VCDuiString@DuiLib@@@std@@V?$allocator@U?$pair@$$CBVCDuiString@DuiLib@@PAX@std@@@4@$0A@@std@@@1@PBV?$_Tree_val@V?$_Tmap_traits@VCDuiString@DuiLib@@PAXU?$less@VCDuiString@DuiLib@@@std@@V?$allocator@U?$pair@$$CBVCDuiString@DuiLib@@PAX@std@@@4@$0A@@std@@@1@@Z 005626b0 f i globalvar.obj
 0002:00084720       ??E?$_Tree_unchecked_const_iterator@V?$_Tree_val@V?$_Tmap_traits@VCDuiString@DuiLib@@PAXU?$less@VCDuiString@DuiLib@@@std@@V?$allocator@U?$pair@$$CBVCDuiString@DuiLib@@PAX@std@@@4@$0A@@std@@@std@@U_Iterator_base0@2@@std@@QAEAAV01@XZ 00562720 f i globalvar.obj
 0002:00084840       ??$addressof@U?$pair@$$CBVCDuiString@DuiLib@@PAX@std@@@std@@YAPAU?$pair@$$CBVCDuiString@DuiLib@@PAX@0@AAU10@@Z 00562840 f i globalvar.obj
 0002:00084880       ??$_Dest_val@V?$allocator@U?$pair@$$CBVCDuiString@DuiLib@@PAX@std@@@std@@U?$pair@$$CBVCDuiString@DuiLib@@PAX@2@@std@@YAXAAV?$allocator@U?$pair@$$CBVCDuiString@DuiLib@@PAX@std@@@0@PAU?$pair@$$CBVCDuiString@DuiLib@@PAX@0@@Z 00562880 f i globalvar.obj
 0002:000848d0       ?destroy@?$allocator@U?$pair@$$CBVCDuiString@DuiLib@@PAX@std@@@std@@QAEXPAU?$pair@$$CBVCDuiString@DuiLib@@PAX@2@@Z 005628d0 f i globalvar.obj
 0002:00084930       ??$_Destroy@U?$pair@$$CBVCDuiString@DuiLib@@PAX@std@@@std@@YAXPAU?$pair@$$CBVCDuiString@DuiLib@@PAX@0@@Z 00562930 f i globalvar.obj
 0002:00084980       ??_G?$pair@$$CBVCDuiString@DuiLib@@PAX@std@@QAEPAXI@Z 00562980 f i globalvar.obj
 0002:000849f0       ??1?$pair@$$CBVCDuiString@DuiLib@@PAX@std@@QAE@XZ 005629f0 f i globalvar.obj
 0002:00084a40       ??1?$_Pair_base@$$CBVCDuiString@DuiLib@@PAX@std@@QAE@XZ 00562a40 f i globalvar.obj
 0002:00084aa0       ??1?$map@VCDuiString@DuiLib@@V12@U?$less@VCDuiString@DuiLib@@@std@@V?$allocator@U?$pair@$$CBVCDuiString@DuiLib@@V12@@std@@@4@@std@@QAE@XZ 00562aa0 f i globalvar.obj
 0002:00084af0       ??1?$_Tree@V?$_Tmap_traits@VCDuiString@DuiLib@@V12@U?$less@VCDuiString@DuiLib@@@std@@V?$allocator@U?$pair@$$CBVCDuiString@DuiLib@@V12@@std@@@4@$0A@@std@@@std@@QAE@XZ 00562af0 f i globalvar.obj
 0002:00084b90       ?_Tidy@?$_Tree@V?$_Tmap_traits@VCDuiString@DuiLib@@V12@U?$less@VCDuiString@DuiLib@@@std@@V?$allocator@U?$pair@$$CBVCDuiString@DuiLib@@V12@@std@@@4@$0A@@std@@@std@@IAEXXZ 00562b90 f i globalvar.obj
 0002:00084c40       ??1?$_Tree_val@V?$_Tmap_traits@VCDuiString@DuiLib@@V12@U?$less@VCDuiString@DuiLib@@@std@@V?$allocator@U?$pair@$$CBVCDuiString@DuiLib@@V12@@std@@@4@$0A@@std@@@std@@QAE@XZ 00562c40 f i globalvar.obj
 0002:00084ca0       ?begin@?$_Tree@V?$_Tmap_traits@VCDuiString@DuiLib@@V12@U?$less@VCDuiString@DuiLib@@@std@@V?$allocator@U?$pair@$$CBVCDuiString@DuiLib@@V12@@std@@@4@$0A@@std@@@std@@QAE?AV?$_Tree_iterator@V?$_Tree_val@V?$_Tmap_traits@VCDuiString@DuiLib@@V12@U?$less@VCDuiString@DuiLib@@@std@@V?$allocator@U?$pair@$$CBVCDuiString@DuiLib@@V12@@std@@@4@$0A@@std@@@std@@@2@XZ 00562ca0 f i globalvar.obj
 0002:00084d10       ?end@?$_Tree@V?$_Tmap_traits@VCDuiString@DuiLib@@V12@U?$less@VCDuiString@DuiLib@@@std@@V?$allocator@U?$pair@$$CBVCDuiString@DuiLib@@V12@@std@@@4@$0A@@std@@@std@@QAE?AV?$_Tree_iterator@V?$_Tree_val@V?$_Tmap_traits@VCDuiString@DuiLib@@V12@U?$less@VCDuiString@DuiLib@@@std@@V?$allocator@U?$pair@$$CBVCDuiString@DuiLib@@V12@@std@@@4@$0A@@std@@@std@@@2@XZ 00562d10 f i globalvar.obj
 0002:00084d80       ?erase@?$_Tree@V?$_Tmap_traits@VCDuiString@DuiLib@@V12@U?$less@VCDuiString@DuiLib@@@std@@V?$allocator@U?$pair@$$CBVCDuiString@DuiLib@@V12@@std@@@4@$0A@@std@@@std@@QAE?AV?$_Tree_iterator@V?$_Tree_val@V?$_Tmap_traits@VCDuiString@DuiLib@@V12@U?$less@VCDuiString@DuiLib@@@std@@V?$allocator@U?$pair@$$CBVCDuiString@DuiLib@@V12@@std@@@4@$0A@@std@@@std@@@2@V?$_Tree_const_iterator@V?$_Tree_val@V?$_Tmap_traits@VCDuiString@DuiLib@@V12@U?$less@VCDuiString@DuiLib@@@std@@V?$allocator@U?$pair@$$CBVCDuiString@DuiLib@@V12@@std@@@4@$0A@@std@@@std@@@2@0@Z 00562d80 f i globalvar.obj
 0002:00084ea0       ?deallocate@?$allocator@U_Node@?$_Tree_nod@V?$_Tmap_traits@VCDuiString@DuiLib@@V12@U?$less@VCDuiString@DuiLib@@@std@@V?$allocator@U?$pair@$$CBVCDuiString@DuiLib@@V12@@std@@@4@$0A@@std@@@std@@@std@@QAEXPAU_Node@?$_Tree_nod@V?$_Tmap_traits@VCDuiString@DuiLib@@V12@U?$less@VCDuiString@DuiLib@@@std@@V?$allocator@U?$pair@$$CBVCDuiString@DuiLib@@V12@@std@@@4@$0A@@std@@@2@I@Z 00562ea0 f i globalvar.obj
 0002:00084f00       ?erase@?$_Tree@V?$_Tmap_traits@VCDuiString@DuiLib@@V12@U?$less@VCDuiString@DuiLib@@@std@@V?$allocator@U?$pair@$$CBVCDuiString@DuiLib@@V12@@std@@@4@$0A@@std@@@std@@QAE?AV?$_Tree_iterator@V?$_Tree_val@V?$_Tmap_traits@VCDuiString@DuiLib@@V12@U?$less@VCDuiString@DuiLib@@@std@@V?$allocator@U?$pair@$$CBVCDuiString@DuiLib@@V12@@std@@@4@$0A@@std@@@std@@@2@V?$_Tree_const_iterator@V?$_Tree_val@V?$_Tmap_traits@VCDuiString@DuiLib@@V12@U?$less@VCDuiString@DuiLib@@@std@@V?$allocator@U?$pair@$$CBVCDuiString@DuiLib@@V12@@std@@@4@$0A@@std@@@std@@@2@@Z 00562f00 f i globalvar.obj
 0002:000858c0       ?clear@?$_Tree@V?$_Tmap_traits@VCDuiString@DuiLib@@V12@U?$less@VCDuiString@DuiLib@@@std@@V?$allocator@U?$pair@$$CBVCDuiString@DuiLib@@V12@@std@@@4@$0A@@std@@@std@@QAEXXZ 005638c0 f i globalvar.obj
 0002:00085970       ?_Lmost@?$_Tree@V?$_Tmap_traits@VCDuiString@DuiLib@@V12@U?$less@VCDuiString@DuiLib@@@std@@V?$allocator@U?$pair@$$CBVCDuiString@DuiLib@@V12@@std@@@4@$0A@@std@@@std@@IBEAAPAU_Node@?$_Tree_nod@V?$_Tmap_traits@VCDuiString@DuiLib@@V12@U?$less@VCDuiString@DuiLib@@@std@@V?$allocator@U?$pair@$$CBVCDuiString@DuiLib@@V12@@std@@@4@$0A@@std@@@2@XZ 00563970 f i globalvar.obj
 0002:000859d0       ??0?$_Tree_iterator@V?$_Tree_val@V?$_Tmap_traits@VCDuiString@DuiLib@@V12@U?$less@VCDuiString@DuiLib@@@std@@V?$allocator@U?$pair@$$CBVCDuiString@DuiLib@@V12@@std@@@4@$0A@@std@@@std@@@std@@QAE@PAU_Node@?$_Tree_nod@V?$_Tmap_traits@VCDuiString@DuiLib@@V12@U?$less@VCDuiString@DuiLib@@@std@@V?$allocator@U?$pair@$$CBVCDuiString@DuiLib@@V12@@std@@@4@$0A@@std@@@1@PBV?$_Tree_val@V?$_Tmap_traits@VCDuiString@DuiLib@@V12@U?$less@VCDuiString@DuiLib@@@std@@V?$allocator@U?$pair@$$CBVCDuiString@DuiLib@@V12@@std@@@4@$0A@@std@@@1@@Z 005639d0 f i globalvar.obj
 0002:00085a30       ??E?$_Tree_const_iterator@V?$_Tree_val@V?$_Tmap_traits@VCDuiString@DuiLib@@V12@U?$less@VCDuiString@DuiLib@@@std@@V?$allocator@U?$pair@$$CBVCDuiString@DuiLib@@V12@@std@@@4@$0A@@std@@@std@@@std@@QAE?AV01@H@Z 00563a30 f i globalvar.obj
 0002:00085ae0       ??8?$_Tree_const_iterator@V?$_Tree_val@V?$_Tmap_traits@VCDuiString@DuiLib@@V12@U?$less@VCDuiString@DuiLib@@@std@@V?$allocator@U?$pair@$$CBVCDuiString@DuiLib@@V12@@std@@@4@$0A@@std@@@std@@@std@@QBE_NABV01@@Z 00563ae0 f i globalvar.obj
 0002:00085b30       ??9?$_Tree_const_iterator@V?$_Tree_val@V?$_Tmap_traits@VCDuiString@DuiLib@@V12@U?$less@VCDuiString@DuiLib@@@std@@V?$allocator@U?$pair@$$CBVCDuiString@DuiLib@@V12@@std@@@4@$0A@@std@@@std@@@std@@QBE_NABV01@@Z 00563b30 f i globalvar.obj
 0002:00085ba0       ?_Erase@?$_Tree@V?$_Tmap_traits@VCDuiString@DuiLib@@V12@U?$less@VCDuiString@DuiLib@@@std@@V?$allocator@U?$pair@$$CBVCDuiString@DuiLib@@V12@@std@@@4@$0A@@std@@@std@@IAEXPAU_Node@?$_Tree_nod@V?$_Tmap_traits@VCDuiString@DuiLib@@V12@U?$less@VCDuiString@DuiLib@@@std@@V?$allocator@U?$pair@$$CBVCDuiString@DuiLib@@V12@@std@@@4@$0A@@std@@@2@@Z 00563ba0 f i globalvar.obj
 0002:00085c90       ?_Lrotate@?$_Tree@V?$_Tmap_traits@VCDuiString@DuiLib@@V12@U?$less@VCDuiString@DuiLib@@@std@@V?$allocator@U?$pair@$$CBVCDuiString@DuiLib@@V12@@std@@@4@$0A@@std@@@std@@IAEXPAU_Node@?$_Tree_nod@V?$_Tmap_traits@VCDuiString@DuiLib@@V12@U?$less@VCDuiString@DuiLib@@@std@@V?$allocator@U?$pair@$$CBVCDuiString@DuiLib@@V12@@std@@@4@$0A@@std@@@2@@Z 00563c90 f i globalvar.obj
 0002:00085e40       ?_Rmost@?$_Tree@V?$_Tmap_traits@VCDuiString@DuiLib@@V12@U?$less@VCDuiString@DuiLib@@@std@@V?$allocator@U?$pair@$$CBVCDuiString@DuiLib@@V12@@std@@@4@$0A@@std@@@std@@IBEAAPAU_Node@?$_Tree_nod@V?$_Tmap_traits@VCDuiString@DuiLib@@V12@U?$less@VCDuiString@DuiLib@@@std@@V?$allocator@U?$pair@$$CBVCDuiString@DuiLib@@V12@@std@@@4@$0A@@std@@@2@XZ 00563e40 f i globalvar.obj
 0002:00085ea0       ?_Root@?$_Tree@V?$_Tmap_traits@VCDuiString@DuiLib@@V12@U?$less@VCDuiString@DuiLib@@@std@@V?$allocator@U?$pair@$$CBVCDuiString@DuiLib@@V12@@std@@@4@$0A@@std@@@std@@IBEAAPAU_Node@?$_Tree_nod@V?$_Tmap_traits@VCDuiString@DuiLib@@V12@U?$less@VCDuiString@DuiLib@@@std@@V?$allocator@U?$pair@$$CBVCDuiString@DuiLib@@V12@@std@@@4@$0A@@std@@@2@XZ 00563ea0 f i globalvar.obj
 0002:00085f00       ?_Rrotate@?$_Tree@V?$_Tmap_traits@VCDuiString@DuiLib@@V12@U?$less@VCDuiString@DuiLib@@@std@@V?$allocator@U?$pair@$$CBVCDuiString@DuiLib@@V12@@std@@@4@$0A@@std@@@std@@IAEXPAU_Node@?$_Tree_nod@V?$_Tmap_traits@VCDuiString@DuiLib@@V12@U?$less@VCDuiString@DuiLib@@@std@@V?$allocator@U?$pair@$$CBVCDuiString@DuiLib@@V12@@std@@@4@$0A@@std@@@2@@Z 00563f00 f i globalvar.obj
 0002:000860b0       ?_Myval@?$_Tree_val@V?$_Tmap_traits@VCDuiString@DuiLib@@V12@U?$less@VCDuiString@DuiLib@@@std@@V?$allocator@U?$pair@$$CBVCDuiString@DuiLib@@V12@@std@@@4@$0A@@std@@@std@@SAAAU?$pair@$$CBVCDuiString@DuiLib@@V12@@2@PAU_Node@?$_Tree_nod@V?$_Tmap_traits@VCDuiString@DuiLib@@V12@U?$less@VCDuiString@DuiLib@@@std@@V?$allocator@U?$pair@$$CBVCDuiString@DuiLib@@V12@@std@@@4@$0A@@std@@@2@@Z 005640b0 f i globalvar.obj
 0002:000860f0       ?_Max@?$_Tree_val@V?$_Tmap_traits@VCDuiString@DuiLib@@V12@U?$less@VCDuiString@DuiLib@@@std@@V?$allocator@U?$pair@$$CBVCDuiString@DuiLib@@V12@@std@@@4@$0A@@std@@@std@@SAPAU_Node@?$_Tree_nod@V?$_Tmap_traits@VCDuiString@DuiLib@@V12@U?$less@VCDuiString@DuiLib@@@std@@V?$allocator@U?$pair@$$CBVCDuiString@DuiLib@@V12@@std@@@4@$0A@@std@@@2@PAU342@@Z 005640f0 f i globalvar.obj
 0002:00086170       ?_Min@?$_Tree_val@V?$_Tmap_traits@VCDuiString@DuiLib@@V12@U?$less@VCDuiString@DuiLib@@@std@@V?$allocator@U?$pair@$$CBVCDuiString@DuiLib@@V12@@std@@@4@$0A@@std@@@std@@SAPAU_Node@?$_Tree_nod@V?$_Tmap_traits@VCDuiString@DuiLib@@V12@U?$less@VCDuiString@DuiLib@@@std@@V?$allocator@U?$pair@$$CBVCDuiString@DuiLib@@V12@@std@@@4@$0A@@std@@@2@PAU342@@Z 00564170 f i globalvar.obj
 0002:000861f0       ??0?$_Tree_const_iterator@V?$_Tree_val@V?$_Tmap_traits@VCDuiString@DuiLib@@V12@U?$less@VCDuiString@DuiLib@@@std@@V?$allocator@U?$pair@$$CBVCDuiString@DuiLib@@V12@@std@@@4@$0A@@std@@@std@@@std@@QAE@PAU_Node@?$_Tree_nod@V?$_Tmap_traits@VCDuiString@DuiLib@@V12@U?$less@VCDuiString@DuiLib@@@std@@V?$allocator@U?$pair@$$CBVCDuiString@DuiLib@@V12@@std@@@4@$0A@@std@@@1@PBV?$_Tree_val@V?$_Tmap_traits@VCDuiString@DuiLib@@V12@U?$less@VCDuiString@DuiLib@@@std@@V?$allocator@U?$pair@$$CBVCDuiString@DuiLib@@V12@@std@@@4@$0A@@std@@@1@@Z 005641f0 f i globalvar.obj
 0002:00086250       ??E?$_Tree_const_iterator@V?$_Tree_val@V?$_Tmap_traits@VCDuiString@DuiLib@@V12@U?$less@VCDuiString@DuiLib@@@std@@V?$allocator@U?$pair@$$CBVCDuiString@DuiLib@@V12@@std@@@4@$0A@@std@@@std@@@std@@QAEAAV01@XZ 00564250 f i globalvar.obj
 0002:000862b0       ?_Mynode@?$_Tree_unchecked_const_iterator@V?$_Tree_val@V?$_Tmap_traits@VCDuiString@DuiLib@@V12@U?$less@VCDuiString@DuiLib@@@std@@V?$allocator@U?$pair@$$CBVCDuiString@DuiLib@@V12@@std@@@4@$0A@@std@@@std@@U_Iterator_base0@2@@std@@QBEPAU_Node@?$_Tree_nod@V?$_Tmap_traits@VCDuiString@DuiLib@@V12@U?$less@VCDuiString@DuiLib@@@std@@V?$allocator@U?$pair@$$CBVCDuiString@DuiLib@@V12@@std@@@4@$0A@@std@@@2@XZ 005642b0 f i globalvar.obj
 0002:000862f0       ??0?$_Tree_unchecked_const_iterator@V?$_Tree_val@V?$_Tmap_traits@VCDuiString@DuiLib@@V12@U?$less@VCDuiString@DuiLib@@@std@@V?$allocator@U?$pair@$$CBVCDuiString@DuiLib@@V12@@std@@@4@$0A@@std@@@std@@U_Iterator_base0@2@@std@@QAE@PAU_Node@?$_Tree_nod@V?$_Tmap_traits@VCDuiString@DuiLib@@V12@U?$less@VCDuiString@DuiLib@@@std@@V?$allocator@U?$pair@$$CBVCDuiString@DuiLib@@V12@@std@@@4@$0A@@std@@@1@PBV?$_Tree_val@V?$_Tmap_traits@VCDuiString@DuiLib@@V12@U?$less@VCDuiString@DuiLib@@@std@@V?$allocator@U?$pair@$$CBVCDuiString@DuiLib@@V12@@std@@@4@$0A@@std@@@1@@Z 005642f0 f i globalvar.obj
 0002:00086360       ??E?$_Tree_unchecked_const_iterator@V?$_Tree_val@V?$_Tmap_traits@VCDuiString@DuiLib@@V12@U?$less@VCDuiString@DuiLib@@@std@@V?$allocator@U?$pair@$$CBVCDuiString@DuiLib@@V12@@std@@@4@$0A@@std@@@std@@U_Iterator_base0@2@@std@@QAEAAV01@XZ 00564360 f i globalvar.obj
 0002:00086480       ??$addressof@U?$pair@$$CBVCDuiString@DuiLib@@V12@@std@@@std@@YAPAU?$pair@$$CBVCDuiString@DuiLib@@V12@@0@AAU10@@Z 00564480 f i globalvar.obj
 0002:000864c0       ??$_Dest_val@V?$allocator@U?$pair@$$CBVCDuiString@DuiLib@@V12@@std@@@std@@U?$pair@$$CBVCDuiString@DuiLib@@V12@@2@@std@@YAXAAV?$allocator@U?$pair@$$CBVCDuiString@DuiLib@@V12@@std@@@0@PAU?$pair@$$CBVCDuiString@DuiLib@@V12@@0@@Z 005644c0 f i globalvar.obj
 0002:00086510       ?destroy@?$allocator@U?$pair@$$CBVCDuiString@DuiLib@@V12@@std@@@std@@QAEXPAU?$pair@$$CBVCDuiString@DuiLib@@V12@@2@@Z 00564510 f i globalvar.obj
 0002:00086570       ??$_Destroy@U?$pair@$$CBVCDuiString@DuiLib@@V12@@std@@@std@@YAXPAU?$pair@$$CBVCDuiString@DuiLib@@V12@@0@@Z 00564570 f i globalvar.obj
 0002:000865c0       ??_G?$pair@$$CBVCDuiString@DuiLib@@V12@@std@@QAEPAXI@Z 005645c0 f i globalvar.obj
 0002:00086630       ??1?$pair@$$CBVCDuiString@DuiLib@@V12@@std@@QAE@XZ 00564630 f i globalvar.obj
 0002:00086680       ??1?$_Pair_base@$$CBVCDuiString@DuiLib@@V12@@std@@QAE@XZ 00564680 f i globalvar.obj
 0002:00086740       ??1?$map@VCDuiString@DuiLib@@HU?$less@VCDuiString@DuiLib@@@std@@V?$allocator@U?$pair@$$CBVCDuiString@DuiLib@@H@std@@@4@@std@@QAE@XZ 00564740 f i globalvar.obj
 0002:00086790       ??1?$_Tree@V?$_Tmap_traits@VCDuiString@DuiLib@@HU?$less@VCDuiString@DuiLib@@@std@@V?$allocator@U?$pair@$$CBVCDuiString@DuiLib@@H@std@@@4@$0A@@std@@@std@@QAE@XZ 00564790 f i globalvar.obj
 0002:00086830       ?_Tidy@?$_Tree@V?$_Tmap_traits@VCDuiString@DuiLib@@HU?$less@VCDuiString@DuiLib@@@std@@V?$allocator@U?$pair@$$CBVCDuiString@DuiLib@@H@std@@@4@$0A@@std@@@std@@IAEXXZ 00564830 f i globalvar.obj
 0002:000868e0       ??1?$_Tree_val@V?$_Tmap_traits@VCDuiString@DuiLib@@HU?$less@VCDuiString@DuiLib@@@std@@V?$allocator@U?$pair@$$CBVCDuiString@DuiLib@@H@std@@@4@$0A@@std@@@std@@QAE@XZ 005648e0 f i globalvar.obj
 0002:00086940       ?begin@?$_Tree@V?$_Tmap_traits@VCDuiString@DuiLib@@HU?$less@VCDuiString@DuiLib@@@std@@V?$allocator@U?$pair@$$CBVCDuiString@DuiLib@@H@std@@@4@$0A@@std@@@std@@QAE?AV?$_Tree_iterator@V?$_Tree_val@V?$_Tmap_traits@VCDuiString@DuiLib@@HU?$less@VCDuiString@DuiLib@@@std@@V?$allocator@U?$pair@$$CBVCDuiString@DuiLib@@H@std@@@4@$0A@@std@@@std@@@2@XZ 00564940 f i globalvar.obj
 0002:000869b0       ?end@?$_Tree@V?$_Tmap_traits@VCDuiString@DuiLib@@HU?$less@VCDuiString@DuiLib@@@std@@V?$allocator@U?$pair@$$CBVCDuiString@DuiLib@@H@std@@@4@$0A@@std@@@std@@QAE?AV?$_Tree_iterator@V?$_Tree_val@V?$_Tmap_traits@VCDuiString@DuiLib@@HU?$less@VCDuiString@DuiLib@@@std@@V?$allocator@U?$pair@$$CBVCDuiString@DuiLib@@H@std@@@4@$0A@@std@@@std@@@2@XZ 005649b0 f i globalvar.obj
 0002:00086a20       ?erase@?$_Tree@V?$_Tmap_traits@VCDuiString@DuiLib@@HU?$less@VCDuiString@DuiLib@@@std@@V?$allocator@U?$pair@$$CBVCDuiString@DuiLib@@H@std@@@4@$0A@@std@@@std@@QAE?AV?$_Tree_iterator@V?$_Tree_val@V?$_Tmap_traits@VCDuiString@DuiLib@@HU?$less@VCDuiString@DuiLib@@@std@@V?$allocator@U?$pair@$$CBVCDuiString@DuiLib@@H@std@@@4@$0A@@std@@@std@@@2@V?$_Tree_const_iterator@V?$_Tree_val@V?$_Tmap_traits@VCDuiString@DuiLib@@HU?$less@VCDuiString@DuiLib@@@std@@V?$allocator@U?$pair@$$CBVCDuiString@DuiLib@@H@std@@@4@$0A@@std@@@std@@@2@0@Z 00564a20 f i globalvar.obj
 0002:00086b40       ?deallocate@?$allocator@U_Node@?$_Tree_nod@V?$_Tmap_traits@VCDuiString@DuiLib@@HU?$less@VCDuiString@DuiLib@@@std@@V?$allocator@U?$pair@$$CBVCDuiString@DuiLib@@H@std@@@4@$0A@@std@@@std@@@std@@QAEXPAU_Node@?$_Tree_nod@V?$_Tmap_traits@VCDuiString@DuiLib@@HU?$less@VCDuiString@DuiLib@@@std@@V?$allocator@U?$pair@$$CBVCDuiString@DuiLib@@H@std@@@4@$0A@@std@@@2@I@Z 00564b40 f i globalvar.obj
 0002:00086ba0       ?erase@?$_Tree@V?$_Tmap_traits@VCDuiString@DuiLib@@HU?$less@VCDuiString@DuiLib@@@std@@V?$allocator@U?$pair@$$CBVCDuiString@DuiLib@@H@std@@@4@$0A@@std@@@std@@QAE?AV?$_Tree_iterator@V?$_Tree_val@V?$_Tmap_traits@VCDuiString@DuiLib@@HU?$less@VCDuiString@DuiLib@@@std@@V?$allocator@U?$pair@$$CBVCDuiString@DuiLib@@H@std@@@4@$0A@@std@@@std@@@2@V?$_Tree_const_iterator@V?$_Tree_val@V?$_Tmap_traits@VCDuiString@DuiLib@@HU?$less@VCDuiString@DuiLib@@@std@@V?$allocator@U?$pair@$$CBVCDuiString@DuiLib@@H@std@@@4@$0A@@std@@@std@@@2@@Z 00564ba0 f i globalvar.obj
 0002:00087560       ?clear@?$_Tree@V?$_Tmap_traits@VCDuiString@DuiLib@@HU?$less@VCDuiString@DuiLib@@@std@@V?$allocator@U?$pair@$$CBVCDuiString@DuiLib@@H@std@@@4@$0A@@std@@@std@@QAEXXZ 00565560 f i globalvar.obj
 0002:00087610       ?_Lmost@?$_Tree@V?$_Tmap_traits@VCDuiString@DuiLib@@HU?$less@VCDuiString@DuiLib@@@std@@V?$allocator@U?$pair@$$CBVCDuiString@DuiLib@@H@std@@@4@$0A@@std@@@std@@IBEAAPAU_Node@?$_Tree_nod@V?$_Tmap_traits@VCDuiString@DuiLib@@HU?$less@VCDuiString@DuiLib@@@std@@V?$allocator@U?$pair@$$CBVCDuiString@DuiLib@@H@std@@@4@$0A@@std@@@2@XZ 00565610 f i globalvar.obj
 0002:00087670       ??0?$_Tree_iterator@V?$_Tree_val@V?$_Tmap_traits@VCDuiString@DuiLib@@HU?$less@VCDuiString@DuiLib@@@std@@V?$allocator@U?$pair@$$CBVCDuiString@DuiLib@@H@std@@@4@$0A@@std@@@std@@@std@@QAE@PAU_Node@?$_Tree_nod@V?$_Tmap_traits@VCDuiString@DuiLib@@HU?$less@VCDuiString@DuiLib@@@std@@V?$allocator@U?$pair@$$CBVCDuiString@DuiLib@@H@std@@@4@$0A@@std@@@1@PBV?$_Tree_val@V?$_Tmap_traits@VCDuiString@DuiLib@@HU?$less@VCDuiString@DuiLib@@@std@@V?$allocator@U?$pair@$$CBVCDuiString@DuiLib@@H@std@@@4@$0A@@std@@@1@@Z 00565670 f i globalvar.obj
 0002:000876d0       ??E?$_Tree_const_iterator@V?$_Tree_val@V?$_Tmap_traits@VCDuiString@DuiLib@@HU?$less@VCDuiString@DuiLib@@@std@@V?$allocator@U?$pair@$$CBVCDuiString@DuiLib@@H@std@@@4@$0A@@std@@@std@@@std@@QAE?AV01@H@Z 005656d0 f i globalvar.obj
 0002:00087780       ??8?$_Tree_const_iterator@V?$_Tree_val@V?$_Tmap_traits@VCDuiString@DuiLib@@HU?$less@VCDuiString@DuiLib@@@std@@V?$allocator@U?$pair@$$CBVCDuiString@DuiLib@@H@std@@@4@$0A@@std@@@std@@@std@@QBE_NABV01@@Z 00565780 f i globalvar.obj
 0002:000877d0       ??9?$_Tree_const_iterator@V?$_Tree_val@V?$_Tmap_traits@VCDuiString@DuiLib@@HU?$less@VCDuiString@DuiLib@@@std@@V?$allocator@U?$pair@$$CBVCDuiString@DuiLib@@H@std@@@4@$0A@@std@@@std@@@std@@QBE_NABV01@@Z 005657d0 f i globalvar.obj
 0002:00087840       ?_Erase@?$_Tree@V?$_Tmap_traits@VCDuiString@DuiLib@@HU?$less@VCDuiString@DuiLib@@@std@@V?$allocator@U?$pair@$$CBVCDuiString@DuiLib@@H@std@@@4@$0A@@std@@@std@@IAEXPAU_Node@?$_Tree_nod@V?$_Tmap_traits@VCDuiString@DuiLib@@HU?$less@VCDuiString@DuiLib@@@std@@V?$allocator@U?$pair@$$CBVCDuiString@DuiLib@@H@std@@@4@$0A@@std@@@2@@Z 00565840 f i globalvar.obj
 0002:00087930       ?_Lrotate@?$_Tree@V?$_Tmap_traits@VCDuiString@DuiLib@@HU?$less@VCDuiString@DuiLib@@@std@@V?$allocator@U?$pair@$$CBVCDuiString@DuiLib@@H@std@@@4@$0A@@std@@@std@@IAEXPAU_Node@?$_Tree_nod@V?$_Tmap_traits@VCDuiString@DuiLib@@HU?$less@VCDuiString@DuiLib@@@std@@V?$allocator@U?$pair@$$CBVCDuiString@DuiLib@@H@std@@@4@$0A@@std@@@2@@Z 00565930 f i globalvar.obj
 0002:00087ae0       ?_Rmost@?$_Tree@V?$_Tmap_traits@VCDuiString@DuiLib@@HU?$less@VCDuiString@DuiLib@@@std@@V?$allocator@U?$pair@$$CBVCDuiString@DuiLib@@H@std@@@4@$0A@@std@@@std@@IBEAAPAU_Node@?$_Tree_nod@V?$_Tmap_traits@VCDuiString@DuiLib@@HU?$less@VCDuiString@DuiLib@@@std@@V?$allocator@U?$pair@$$CBVCDuiString@DuiLib@@H@std@@@4@$0A@@std@@@2@XZ 00565ae0 f i globalvar.obj
 0002:00087b40       ?_Root@?$_Tree@V?$_Tmap_traits@VCDuiString@DuiLib@@HU?$less@VCDuiString@DuiLib@@@std@@V?$allocator@U?$pair@$$CBVCDuiString@DuiLib@@H@std@@@4@$0A@@std@@@std@@IBEAAPAU_Node@?$_Tree_nod@V?$_Tmap_traits@VCDuiString@DuiLib@@HU?$less@VCDuiString@DuiLib@@@std@@V?$allocator@U?$pair@$$CBVCDuiString@DuiLib@@H@std@@@4@$0A@@std@@@2@XZ 00565b40 f i globalvar.obj
 0002:00087ba0       ?_Rrotate@?$_Tree@V?$_Tmap_traits@VCDuiString@DuiLib@@HU?$less@VCDuiString@DuiLib@@@std@@V?$allocator@U?$pair@$$CBVCDuiString@DuiLib@@H@std@@@4@$0A@@std@@@std@@IAEXPAU_Node@?$_Tree_nod@V?$_Tmap_traits@VCDuiString@DuiLib@@HU?$less@VCDuiString@DuiLib@@@std@@V?$allocator@U?$pair@$$CBVCDuiString@DuiLib@@H@std@@@4@$0A@@std@@@2@@Z 00565ba0 f i globalvar.obj
 0002:00087d50       ?_Myval@?$_Tree_val@V?$_Tmap_traits@VCDuiString@DuiLib@@HU?$less@VCDuiString@DuiLib@@@std@@V?$allocator@U?$pair@$$CBVCDuiString@DuiLib@@H@std@@@4@$0A@@std@@@std@@SAAAU?$pair@$$CBVCDuiString@DuiLib@@H@2@PAU_Node@?$_Tree_nod@V?$_Tmap_traits@VCDuiString@DuiLib@@HU?$less@VCDuiString@DuiLib@@@std@@V?$allocator@U?$pair@$$CBVCDuiString@DuiLib@@H@std@@@4@$0A@@std@@@2@@Z 00565d50 f i globalvar.obj
 0002:00087d90       ?_Max@?$_Tree_val@V?$_Tmap_traits@VCDuiString@DuiLib@@HU?$less@VCDuiString@DuiLib@@@std@@V?$allocator@U?$pair@$$CBVCDuiString@DuiLib@@H@std@@@4@$0A@@std@@@std@@SAPAU_Node@?$_Tree_nod@V?$_Tmap_traits@VCDuiString@DuiLib@@HU?$less@VCDuiString@DuiLib@@@std@@V?$allocator@U?$pair@$$CBVCDuiString@DuiLib@@H@std@@@4@$0A@@std@@@2@PAU342@@Z 00565d90 f i globalvar.obj
 0002:00087e10       ?_Min@?$_Tree_val@V?$_Tmap_traits@VCDuiString@DuiLib@@HU?$less@VCDuiString@DuiLib@@@std@@V?$allocator@U?$pair@$$CBVCDuiString@DuiLib@@H@std@@@4@$0A@@std@@@std@@SAPAU_Node@?$_Tree_nod@V?$_Tmap_traits@VCDuiString@DuiLib@@HU?$less@VCDuiString@DuiLib@@@std@@V?$allocator@U?$pair@$$CBVCDuiString@DuiLib@@H@std@@@4@$0A@@std@@@2@PAU342@@Z 00565e10 f i globalvar.obj
 0002:00087e90       ??0?$_Tree_const_iterator@V?$_Tree_val@V?$_Tmap_traits@VCDuiString@DuiLib@@HU?$less@VCDuiString@DuiLib@@@std@@V?$allocator@U?$pair@$$CBVCDuiString@DuiLib@@H@std@@@4@$0A@@std@@@std@@@std@@QAE@PAU_Node@?$_Tree_nod@V?$_Tmap_traits@VCDuiString@DuiLib@@HU?$less@VCDuiString@DuiLib@@@std@@V?$allocator@U?$pair@$$CBVCDuiString@DuiLib@@H@std@@@4@$0A@@std@@@1@PBV?$_Tree_val@V?$_Tmap_traits@VCDuiString@DuiLib@@HU?$less@VCDuiString@DuiLib@@@std@@V?$allocator@U?$pair@$$CBVCDuiString@DuiLib@@H@std@@@4@$0A@@std@@@1@@Z 00565e90 f i globalvar.obj
 0002:00087ef0       ??E?$_Tree_const_iterator@V?$_Tree_val@V?$_Tmap_traits@VCDuiString@DuiLib@@HU?$less@VCDuiString@DuiLib@@@std@@V?$allocator@U?$pair@$$CBVCDuiString@DuiLib@@H@std@@@4@$0A@@std@@@std@@@std@@QAEAAV01@XZ 00565ef0 f i globalvar.obj
 0002:00087f50       ?_Mynode@?$_Tree_unchecked_const_iterator@V?$_Tree_val@V?$_Tmap_traits@VCDuiString@DuiLib@@HU?$less@VCDuiString@DuiLib@@@std@@V?$allocator@U?$pair@$$CBVCDuiString@DuiLib@@H@std@@@4@$0A@@std@@@std@@U_Iterator_base0@2@@std@@QBEPAU_Node@?$_Tree_nod@V?$_Tmap_traits@VCDuiString@DuiLib@@HU?$less@VCDuiString@DuiLib@@@std@@V?$allocator@U?$pair@$$CBVCDuiString@DuiLib@@H@std@@@4@$0A@@std@@@2@XZ 00565f50 f i globalvar.obj
 0002:00087f90       ??0?$_Tree_unchecked_const_iterator@V?$_Tree_val@V?$_Tmap_traits@VCDuiString@DuiLib@@HU?$less@VCDuiString@DuiLib@@@std@@V?$allocator@U?$pair@$$CBVCDuiString@DuiLib@@H@std@@@4@$0A@@std@@@std@@U_Iterator_base0@2@@std@@QAE@PAU_Node@?$_Tree_nod@V?$_Tmap_traits@VCDuiString@DuiLib@@HU?$less@VCDuiString@DuiLib@@@std@@V?$allocator@U?$pair@$$CBVCDuiString@DuiLib@@H@std@@@4@$0A@@std@@@1@PBV?$_Tree_val@V?$_Tmap_traits@VCDuiString@DuiLib@@HU?$less@VCDuiString@DuiLib@@@std@@V?$allocator@U?$pair@$$CBVCDuiString@DuiLib@@H@std@@@4@$0A@@std@@@1@@Z 00565f90 f i globalvar.obj
 0002:00088000       ??E?$_Tree_unchecked_const_iterator@V?$_Tree_val@V?$_Tmap_traits@VCDuiString@DuiLib@@HU?$less@VCDuiString@DuiLib@@@std@@V?$allocator@U?$pair@$$CBVCDuiString@DuiLib@@H@std@@@4@$0A@@std@@@std@@U_Iterator_base0@2@@std@@QAEAAV01@XZ 00566000 f i globalvar.obj
 0002:00088120       ??$addressof@U?$pair@$$CBVCDuiString@DuiLib@@H@std@@@std@@YAPAU?$pair@$$CBVCDuiString@DuiLib@@H@0@AAU10@@Z 00566120 f i globalvar.obj
 0002:00088160       ??$_Dest_val@V?$allocator@U?$pair@$$CBVCDuiString@DuiLib@@H@std@@@std@@U?$pair@$$CBVCDuiString@DuiLib@@H@2@@std@@YAXAAV?$allocator@U?$pair@$$CBVCDuiString@DuiLib@@H@std@@@0@PAU?$pair@$$CBVCDuiString@DuiLib@@H@0@@Z 00566160 f i globalvar.obj
 0002:000881b0       ?destroy@?$allocator@U?$pair@$$CBVCDuiString@DuiLib@@H@std@@@std@@QAEXPAU?$pair@$$CBVCDuiString@DuiLib@@H@2@@Z 005661b0 f i globalvar.obj
 0002:00088210       ??$_Destroy@U?$pair@$$CBVCDuiString@DuiLib@@H@std@@@std@@YAXPAU?$pair@$$CBVCDuiString@DuiLib@@H@0@@Z 00566210 f i globalvar.obj
 0002:00088260       ??_G?$pair@$$CBVCDuiString@DuiLib@@H@std@@QAEPAXI@Z 00566260 f i globalvar.obj
 0002:000882d0       ??1?$pair@$$CBVCDuiString@DuiLib@@H@std@@QAE@XZ 005662d0 f i globalvar.obj
 0002:00088320       ??1?$_Pair_base@$$CBVCDuiString@DuiLib@@H@std@@QAE@XZ 00566320 f i globalvar.obj
 0002:00088380       ??1USERCONFIG@@QAE@XZ      00566380 f i globalvar.obj
 0002:000883e0       ??1CFontInfo@@QAE@XZ       005663e0 f i globalvar.obj
 0002:00088440       ??1?$vector@USTATE_INFO@@V?$allocator@USTATE_INFO@@@std@@@std@@QAE@XZ 00566440 f i globalvar.obj
 0002:000884e0       ?_Tidy@?$vector@USTATE_INFO@@V?$allocator@USTATE_INFO@@@std@@@std@@IAEXXZ 005664e0 f i globalvar.obj
 0002:000885c0       ??1?$_Vector_val@USTATE_INFO@@V?$allocator@USTATE_INFO@@@std@@@std@@QAE@XZ 005665c0 f i globalvar.obj
 0002:00088600       ?_Destroy@?$vector@USTATE_INFO@@V?$allocator@USTATE_INFO@@@std@@@std@@IAEXPAUSTATE_INFO@@0@Z 00566600 f i globalvar.obj
 0002:00088670       ?deallocate@?$allocator@USTATE_INFO@@@std@@QAEXPAUSTATE_INFO@@I@Z 00566670 f i globalvar.obj
 0002:000886d0       ??$_Destroy_range@V?$allocator@USTATE_INFO@@@std@@@std@@YAXPAUSTATE_INFO@@0AAV?$allocator@USTATE_INFO@@@0@@Z 005666d0 f i globalvar.obj
 0002:00088750       ??$_Ptr_cat@USTATE_INFO@@U1@@std@@YA?AU_Nonscalar_ptr_iterator_tag@0@PAUSTATE_INFO@@0@Z 00566750 f i globalvar.obj
 0002:000887c0       ??$_Destroy_range@V?$allocator@USTATE_INFO@@@std@@@std@@YAXPAUSTATE_INFO@@0AAV?$allocator@USTATE_INFO@@@0@U_Nonscalar_ptr_iterator_tag@0@@Z 005667c0 f i globalvar.obj
 0002:00088830       ??$_Dest_val@V?$allocator@USTATE_INFO@@@std@@USTATE_INFO@@@std@@YAXAAV?$allocator@USTATE_INFO@@@0@PAUSTATE_INFO@@@Z 00566830 f i globalvar.obj
 0002:00088880       ?destroy@?$allocator@USTATE_INFO@@@std@@QAEXPAUSTATE_INFO@@@Z 00566880 f i globalvar.obj
 0002:000888e0       ??$_Destroy@USTATE_INFO@@@std@@YAXPAUSTATE_INFO@@@Z 005668e0 f i globalvar.obj
 0002:00088910       ??1?$vector@PAVNode@DuiLib@@V?$allocator@PAVNode@DuiLib@@@std@@@std@@QAE@XZ 00566910 f i globalvar.obj
 0002:000889b0       ?_Tidy@?$vector@PAVNode@DuiLib@@V?$allocator@PAVNode@DuiLib@@@std@@@std@@IAEXXZ 005669b0 f i globalvar.obj
 0002:00088a80       ??1?$_Vector_val@PAVNode@DuiLib@@V?$allocator@PAVNode@DuiLib@@@std@@@std@@QAE@XZ 00566a80 f i globalvar.obj
 0002:00088ac0       ?_Destroy@?$vector@PAVNode@DuiLib@@V?$allocator@PAVNode@DuiLib@@@std@@@std@@IAEXPAPAVNode@DuiLib@@0@Z 00566ac0 f i globalvar.obj
 0002:00088b30       ?deallocate@?$allocator@PAVNode@DuiLib@@@std@@QAEXPAPAVNode@DuiLib@@I@Z 00566b30 f i globalvar.obj
 0002:00088b90       ??$_Destroy_range@V?$allocator@PAVNode@DuiLib@@@std@@@std@@YAXPAPAVNode@DuiLib@@0AAV?$allocator@PAVNode@DuiLib@@@0@@Z 00566b90 f i globalvar.obj
 0002:00088c10       ??$_Ptr_cat@PAVNode@DuiLib@@PAV12@@std@@YA?AU_Scalar_ptr_iterator_tag@0@PAPAVNode@DuiLib@@0@Z 00566c10 f i globalvar.obj
 0002:00088c80       ??$_Destroy_range@V?$allocator@PAVNode@DuiLib@@@std@@@std@@YAXPAPAVNode@DuiLib@@0AAV?$allocator@PAVNode@DuiLib@@@0@U_Scalar_ptr_iterator_tag@0@@Z 00566c80 f i globalvar.obj
 0002:00088cb0       ??1?$vector@UUSER_GROUP_INFO@@V?$allocator@UUSER_GROUP_INFO@@@std@@@std@@QAE@XZ 00566cb0 f i globalvar.obj
 0002:00088d50       ?_Tidy@?$vector@UUSER_GROUP_INFO@@V?$allocator@UUSER_GROUP_INFO@@@std@@@std@@IAEXXZ 00566d50 f i globalvar.obj
 0002:00088e30       ??1?$_Vector_val@UUSER_GROUP_INFO@@V?$allocator@UUSER_GROUP_INFO@@@std@@@std@@QAE@XZ 00566e30 f i globalvar.obj
 0002:00088e70       ?_Destroy@?$vector@UUSER_GROUP_INFO@@V?$allocator@UUSER_GROUP_INFO@@@std@@@std@@IAEXPAUUSER_GROUP_INFO@@0@Z 00566e70 f i globalvar.obj
 0002:00088ee0       ?deallocate@?$allocator@UUSER_GROUP_INFO@@@std@@QAEXPAUUSER_GROUP_INFO@@I@Z 00566ee0 f i globalvar.obj
 0002:00088f40       ??$_Destroy_range@V?$allocator@UUSER_GROUP_INFO@@@std@@@std@@YAXPAUUSER_GROUP_INFO@@0AAV?$allocator@UUSER_GROUP_INFO@@@0@@Z 00566f40 f i globalvar.obj
 0002:00088fc0       ??$_Ptr_cat@UUSER_GROUP_INFO@@U1@@std@@YA?AU_Nonscalar_ptr_iterator_tag@0@PAUUSER_GROUP_INFO@@0@Z 00566fc0 f i globalvar.obj
 0002:00089030       ??$_Destroy_range@V?$allocator@UUSER_GROUP_INFO@@@std@@@std@@YAXPAUUSER_GROUP_INFO@@0AAV?$allocator@UUSER_GROUP_INFO@@@0@U_Nonscalar_ptr_iterator_tag@0@@Z 00567030 f i globalvar.obj
 0002:000890a0       ??$_Dest_val@V?$allocator@UUSER_GROUP_INFO@@@std@@UUSER_GROUP_INFO@@@std@@YAXAAV?$allocator@UUSER_GROUP_INFO@@@0@PAUUSER_GROUP_INFO@@@Z 005670a0 f i globalvar.obj
 0002:000890f0       ?destroy@?$allocator@UUSER_GROUP_INFO@@@std@@QAEXPAUUSER_GROUP_INFO@@@Z 005670f0 f i globalvar.obj
 0002:00089150       ??$_Destroy@UUSER_GROUP_INFO@@@std@@YAXPAUUSER_GROUP_INFO@@@Z 00567150 f i globalvar.obj
 0002:00089180       ??1?$vector@UtagFRIEND_INFO@@V?$allocator@UtagFRIEND_INFO@@@std@@@std@@QAE@XZ 00567180 f i globalvar.obj
 0002:00089220       ?_Tidy@?$vector@UtagFRIEND_INFO@@V?$allocator@UtagFRIEND_INFO@@@std@@@std@@IAEXXZ 00567220 f i globalvar.obj
 0002:00089300       ??1?$_Vector_val@UtagFRIEND_INFO@@V?$allocator@UtagFRIEND_INFO@@@std@@@std@@QAE@XZ 00567300 f i globalvar.obj
 0002:00089340       ?_Destroy@?$vector@UtagFRIEND_INFO@@V?$allocator@UtagFRIEND_INFO@@@std@@@std@@IAEXPAUtagFRIEND_INFO@@0@Z 00567340 f i globalvar.obj
 0002:000893b0       ?deallocate@?$allocator@UtagFRIEND_INFO@@@std@@QAEXPAUtagFRIEND_INFO@@I@Z 005673b0 f i globalvar.obj
 0002:00089410       ??$_Destroy_range@V?$allocator@UtagFRIEND_INFO@@@std@@@std@@YAXPAUtagFRIEND_INFO@@0AAV?$allocator@UtagFRIEND_INFO@@@0@@Z 00567410 f i globalvar.obj
 0002:00089490       ??$_Ptr_cat@UtagFRIEND_INFO@@U1@@std@@YA?AU_Nonscalar_ptr_iterator_tag@0@PAUtagFRIEND_INFO@@0@Z 00567490 f i globalvar.obj
 0002:00089500       ??$_Destroy_range@V?$allocator@UtagFRIEND_INFO@@@std@@@std@@YAXPAUtagFRIEND_INFO@@0AAV?$allocator@UtagFRIEND_INFO@@@0@U_Nonscalar_ptr_iterator_tag@0@@Z 00567500 f i globalvar.obj
 0002:00089570       ??$_Dest_val@V?$allocator@UtagFRIEND_INFO@@@std@@UtagFRIEND_INFO@@@std@@YAXAAV?$allocator@UtagFRIEND_INFO@@@0@PAUtagFRIEND_INFO@@@Z 00567570 f i globalvar.obj
 0002:000895c0       ?destroy@?$allocator@UtagFRIEND_INFO@@@std@@QAEXPAUtagFRIEND_INFO@@@Z 005675c0 f i globalvar.obj
 0002:00089620       ??$_Destroy@UtagFRIEND_INFO@@@std@@YAXPAUtagFRIEND_INFO@@@Z 00567620 f i globalvar.obj
 0002:00089650       ??1?$vector@UUSER_ROOMCLIENT_INFO@@V?$allocator@UUSER_ROOMCLIENT_INFO@@@std@@@std@@QAE@XZ 00567650 f i globalvar.obj
 0002:000896f0       ?_Tidy@?$vector@UUSER_ROOMCLIENT_INFO@@V?$allocator@UUSER_ROOMCLIENT_INFO@@@std@@@std@@IAEXXZ 005676f0 f i globalvar.obj
 0002:000897d0       ??1?$_Vector_val@UUSER_ROOMCLIENT_INFO@@V?$allocator@UUSER_ROOMCLIENT_INFO@@@std@@@std@@QAE@XZ 005677d0 f i globalvar.obj
 0002:00089810       ??1?$map@JUGROUP_CHAT_INFO@@U?$less@J@std@@V?$allocator@U?$pair@$$CBJUGROUP_CHAT_INFO@@@std@@@3@@std@@QAE@XZ 00567810 f i globalvar.obj
 0002:00089860       ??1?$_Tree@V?$_Tmap_traits@JUGROUP_CHAT_INFO@@U?$less@J@std@@V?$allocator@U?$pair@$$CBJUGROUP_CHAT_INFO@@@std@@@3@$0A@@std@@@std@@QAE@XZ 00567860 f i globalvar.obj
 0002:00089900       ?_Tidy@?$_Tree@V?$_Tmap_traits@JUGROUP_CHAT_INFO@@U?$less@J@std@@V?$allocator@U?$pair@$$CBJUGROUP_CHAT_INFO@@@std@@@3@$0A@@std@@@std@@IAEXXZ 00567900 f i globalvar.obj
 0002:000899b0       ??1?$_Tree_val@V?$_Tmap_traits@JUGROUP_CHAT_INFO@@U?$less@J@std@@V?$allocator@U?$pair@$$CBJUGROUP_CHAT_INFO@@@std@@@3@$0A@@std@@@std@@QAE@XZ 005679b0 f i globalvar.obj
 0002:00089a10       ?begin@?$_Tree@V?$_Tmap_traits@JUGROUP_CHAT_INFO@@U?$less@J@std@@V?$allocator@U?$pair@$$CBJUGROUP_CHAT_INFO@@@std@@@3@$0A@@std@@@std@@QAE?AV?$_Tree_iterator@V?$_Tree_val@V?$_Tmap_traits@JUGROUP_CHAT_INFO@@U?$less@J@std@@V?$allocator@U?$pair@$$CBJUGROUP_CHAT_INFO@@@std@@@3@$0A@@std@@@std@@@2@XZ 00567a10 f i globalvar.obj
 0002:00089a80       ?end@?$_Tree@V?$_Tmap_traits@JUGROUP_CHAT_INFO@@U?$less@J@std@@V?$allocator@U?$pair@$$CBJUGROUP_CHAT_INFO@@@std@@@3@$0A@@std@@@std@@QAE?AV?$_Tree_iterator@V?$_Tree_val@V?$_Tmap_traits@JUGROUP_CHAT_INFO@@U?$less@J@std@@V?$allocator@U?$pair@$$CBJUGROUP_CHAT_INFO@@@std@@@3@$0A@@std@@@std@@@2@XZ 00567a80 f i globalvar.obj
 0002:00089af0       ?erase@?$_Tree@V?$_Tmap_traits@JUGROUP_CHAT_INFO@@U?$less@J@std@@V?$allocator@U?$pair@$$CBJUGROUP_CHAT_INFO@@@std@@@3@$0A@@std@@@std@@QAE?AV?$_Tree_iterator@V?$_Tree_val@V?$_Tmap_traits@JUGROUP_CHAT_INFO@@U?$less@J@std@@V?$allocator@U?$pair@$$CBJUGROUP_CHAT_INFO@@@std@@@3@$0A@@std@@@std@@@2@V?$_Tree_const_iterator@V?$_Tree_val@V?$_Tmap_traits@JUGROUP_CHAT_INFO@@U?$less@J@std@@V?$allocator@U?$pair@$$CBJUGROUP_CHAT_INFO@@@std@@@3@$0A@@std@@@std@@@2@0@Z 00567af0 f i globalvar.obj
 0002:00089c10       ?deallocate@?$allocator@U_Node@?$_Tree_nod@V?$_Tmap_traits@JUGROUP_CHAT_INFO@@U?$less@J@std@@V?$allocator@U?$pair@$$CBJUGROUP_CHAT_INFO@@@std@@@3@$0A@@std@@@std@@@std@@QAEXPAU_Node@?$_Tree_nod@V?$_Tmap_traits@JUGROUP_CHAT_INFO@@U?$less@J@std@@V?$allocator@U?$pair@$$CBJUGROUP_CHAT_INFO@@@std@@@3@$0A@@std@@@2@I@Z 00567c10 f i globalvar.obj
 0002:00089c70       ?erase@?$_Tree@V?$_Tmap_traits@JUGROUP_CHAT_INFO@@U?$less@J@std@@V?$allocator@U?$pair@$$CBJUGROUP_CHAT_INFO@@@std@@@3@$0A@@std@@@std@@QAE?AV?$_Tree_iterator@V?$_Tree_val@V?$_Tmap_traits@JUGROUP_CHAT_INFO@@U?$less@J@std@@V?$allocator@U?$pair@$$CBJUGROUP_CHAT_INFO@@@std@@@3@$0A@@std@@@std@@@2@V?$_Tree_const_iterator@V?$_Tree_val@V?$_Tmap_traits@JUGROUP_CHAT_INFO@@U?$less@J@std@@V?$allocator@U?$pair@$$CBJUGROUP_CHAT_INFO@@@std@@@3@$0A@@std@@@std@@@2@@Z 00567c70 f i globalvar.obj
 0002:0008a630       ?clear@?$_Tree@V?$_Tmap_traits@JUGROUP_CHAT_INFO@@U?$less@J@std@@V?$allocator@U?$pair@$$CBJUGROUP_CHAT_INFO@@@std@@@3@$0A@@std@@@std@@QAEXXZ 00568630 f i globalvar.obj
 0002:0008a6e0       ?_Lmost@?$_Tree@V?$_Tmap_traits@JUGROUP_CHAT_INFO@@U?$less@J@std@@V?$allocator@U?$pair@$$CBJUGROUP_CHAT_INFO@@@std@@@3@$0A@@std@@@std@@IBEAAPAU_Node@?$_Tree_nod@V?$_Tmap_traits@JUGROUP_CHAT_INFO@@U?$less@J@std@@V?$allocator@U?$pair@$$CBJUGROUP_CHAT_INFO@@@std@@@3@$0A@@std@@@2@XZ 005686e0 f i globalvar.obj
 0002:0008a740       ??0?$_Tree_iterator@V?$_Tree_val@V?$_Tmap_traits@JUGROUP_CHAT_INFO@@U?$less@J@std@@V?$allocator@U?$pair@$$CBJUGROUP_CHAT_INFO@@@std@@@3@$0A@@std@@@std@@@std@@QAE@PAU_Node@?$_Tree_nod@V?$_Tmap_traits@JUGROUP_CHAT_INFO@@U?$less@J@std@@V?$allocator@U?$pair@$$CBJUGROUP_CHAT_INFO@@@std@@@3@$0A@@std@@@1@PBV?$_Tree_val@V?$_Tmap_traits@JUGROUP_CHAT_INFO@@U?$less@J@std@@V?$allocator@U?$pair@$$CBJUGROUP_CHAT_INFO@@@std@@@3@$0A@@std@@@1@@Z 00568740 f i globalvar.obj
 0002:0008a7a0       ??E?$_Tree_const_iterator@V?$_Tree_val@V?$_Tmap_traits@JUGROUP_CHAT_INFO@@U?$less@J@std@@V?$allocator@U?$pair@$$CBJUGROUP_CHAT_INFO@@@std@@@3@$0A@@std@@@std@@@std@@QAE?AV01@H@Z 005687a0 f i globalvar.obj
 0002:0008a850       ??8?$_Tree_const_iterator@V?$_Tree_val@V?$_Tmap_traits@JUGROUP_CHAT_INFO@@U?$less@J@std@@V?$allocator@U?$pair@$$CBJUGROUP_CHAT_INFO@@@std@@@3@$0A@@std@@@std@@@std@@QBE_NABV01@@Z 00568850 f i globalvar.obj
 0002:0008a8a0       ??9?$_Tree_const_iterator@V?$_Tree_val@V?$_Tmap_traits@JUGROUP_CHAT_INFO@@U?$less@J@std@@V?$allocator@U?$pair@$$CBJUGROUP_CHAT_INFO@@@std@@@3@$0A@@std@@@std@@@std@@QBE_NABV01@@Z 005688a0 f i globalvar.obj
 0002:0008a910       ?_Erase@?$_Tree@V?$_Tmap_traits@JUGROUP_CHAT_INFO@@U?$less@J@std@@V?$allocator@U?$pair@$$CBJUGROUP_CHAT_INFO@@@std@@@3@$0A@@std@@@std@@IAEXPAU_Node@?$_Tree_nod@V?$_Tmap_traits@JUGROUP_CHAT_INFO@@U?$less@J@std@@V?$allocator@U?$pair@$$CBJUGROUP_CHAT_INFO@@@std@@@3@$0A@@std@@@2@@Z 00568910 f i globalvar.obj
 0002:0008aa00       ?_Lrotate@?$_Tree@V?$_Tmap_traits@JUGROUP_CHAT_INFO@@U?$less@J@std@@V?$allocator@U?$pair@$$CBJUGROUP_CHAT_INFO@@@std@@@3@$0A@@std@@@std@@IAEXPAU_Node@?$_Tree_nod@V?$_Tmap_traits@JUGROUP_CHAT_INFO@@U?$less@J@std@@V?$allocator@U?$pair@$$CBJUGROUP_CHAT_INFO@@@std@@@3@$0A@@std@@@2@@Z 00568a00 f i globalvar.obj
 0002:0008abb0       ?_Rmost@?$_Tree@V?$_Tmap_traits@JUGROUP_CHAT_INFO@@U?$less@J@std@@V?$allocator@U?$pair@$$CBJUGROUP_CHAT_INFO@@@std@@@3@$0A@@std@@@std@@IBEAAPAU_Node@?$_Tree_nod@V?$_Tmap_traits@JUGROUP_CHAT_INFO@@U?$less@J@std@@V?$allocator@U?$pair@$$CBJUGROUP_CHAT_INFO@@@std@@@3@$0A@@std@@@2@XZ 00568bb0 f i globalvar.obj
 0002:0008ac10       ?_Root@?$_Tree@V?$_Tmap_traits@JUGROUP_CHAT_INFO@@U?$less@J@std@@V?$allocator@U?$pair@$$CBJUGROUP_CHAT_INFO@@@std@@@3@$0A@@std@@@std@@IBEAAPAU_Node@?$_Tree_nod@V?$_Tmap_traits@JUGROUP_CHAT_INFO@@U?$less@J@std@@V?$allocator@U?$pair@$$CBJUGROUP_CHAT_INFO@@@std@@@3@$0A@@std@@@2@XZ 00568c10 f i globalvar.obj
 0002:0008ac70       ?_Rrotate@?$_Tree@V?$_Tmap_traits@JUGROUP_CHAT_INFO@@U?$less@J@std@@V?$allocator@U?$pair@$$CBJUGROUP_CHAT_INFO@@@std@@@3@$0A@@std@@@std@@IAEXPAU_Node@?$_Tree_nod@V?$_Tmap_traits@JUGROUP_CHAT_INFO@@U?$less@J@std@@V?$allocator@U?$pair@$$CBJUGROUP_CHAT_INFO@@@std@@@3@$0A@@std@@@2@@Z 00568c70 f i globalvar.obj
 0002:0008ae20       ?_Myval@?$_Tree_val@V?$_Tmap_traits@JUGROUP_CHAT_INFO@@U?$less@J@std@@V?$allocator@U?$pair@$$CBJUGROUP_CHAT_INFO@@@std@@@3@$0A@@std@@@std@@SAAAU?$pair@$$CBJUGROUP_CHAT_INFO@@@2@PAU_Node@?$_Tree_nod@V?$_Tmap_traits@JUGROUP_CHAT_INFO@@U?$less@J@std@@V?$allocator@U?$pair@$$CBJUGROUP_CHAT_INFO@@@std@@@3@$0A@@std@@@2@@Z 00568e20 f i globalvar.obj
 0002:0008ae60       ?_Max@?$_Tree_val@V?$_Tmap_traits@JUGROUP_CHAT_INFO@@U?$less@J@std@@V?$allocator@U?$pair@$$CBJUGROUP_CHAT_INFO@@@std@@@3@$0A@@std@@@std@@SAPAU_Node@?$_Tree_nod@V?$_Tmap_traits@JUGROUP_CHAT_INFO@@U?$less@J@std@@V?$allocator@U?$pair@$$CBJUGROUP_CHAT_INFO@@@std@@@3@$0A@@std@@@2@PAU342@@Z 00568e60 f i globalvar.obj
 0002:0008aee0       ?_Min@?$_Tree_val@V?$_Tmap_traits@JUGROUP_CHAT_INFO@@U?$less@J@std@@V?$allocator@U?$pair@$$CBJUGROUP_CHAT_INFO@@@std@@@3@$0A@@std@@@std@@SAPAU_Node@?$_Tree_nod@V?$_Tmap_traits@JUGROUP_CHAT_INFO@@U?$less@J@std@@V?$allocator@U?$pair@$$CBJUGROUP_CHAT_INFO@@@std@@@3@$0A@@std@@@2@PAU342@@Z 00568ee0 f i globalvar.obj
 0002:0008af60       ??0?$_Tree_const_iterator@V?$_Tree_val@V?$_Tmap_traits@JUGROUP_CHAT_INFO@@U?$less@J@std@@V?$allocator@U?$pair@$$CBJUGROUP_CHAT_INFO@@@std@@@3@$0A@@std@@@std@@@std@@QAE@PAU_Node@?$_Tree_nod@V?$_Tmap_traits@JUGROUP_CHAT_INFO@@U?$less@J@std@@V?$allocator@U?$pair@$$CBJUGROUP_CHAT_INFO@@@std@@@3@$0A@@std@@@1@PBV?$_Tree_val@V?$_Tmap_traits@JUGROUP_CHAT_INFO@@U?$less@J@std@@V?$allocator@U?$pair@$$CBJUGROUP_CHAT_INFO@@@std@@@3@$0A@@std@@@1@@Z 00568f60 f i globalvar.obj
 0002:0008afc0       ??E?$_Tree_const_iterator@V?$_Tree_val@V?$_Tmap_traits@JUGROUP_CHAT_INFO@@U?$less@J@std@@V?$allocator@U?$pair@$$CBJUGROUP_CHAT_INFO@@@std@@@3@$0A@@std@@@std@@@std@@QAEAAV01@XZ 00568fc0 f i globalvar.obj
 0002:0008b020       ?_Mynode@?$_Tree_unchecked_const_iterator@V?$_Tree_val@V?$_Tmap_traits@JUGROUP_CHAT_INFO@@U?$less@J@std@@V?$allocator@U?$pair@$$CBJUGROUP_CHAT_INFO@@@std@@@3@$0A@@std@@@std@@U_Iterator_base0@2@@std@@QBEPAU_Node@?$_Tree_nod@V?$_Tmap_traits@JUGROUP_CHAT_INFO@@U?$less@J@std@@V?$allocator@U?$pair@$$CBJUGROUP_CHAT_INFO@@@std@@@3@$0A@@std@@@2@XZ 00569020 f i globalvar.obj
 0002:0008b060       ??0?$_Tree_unchecked_const_iterator@V?$_Tree_val@V?$_Tmap_traits@JUGROUP_CHAT_INFO@@U?$less@J@std@@V?$allocator@U?$pair@$$CBJUGROUP_CHAT_INFO@@@std@@@3@$0A@@std@@@std@@U_Iterator_base0@2@@std@@QAE@PAU_Node@?$_Tree_nod@V?$_Tmap_traits@JUGROUP_CHAT_INFO@@U?$less@J@std@@V?$allocator@U?$pair@$$CBJUGROUP_CHAT_INFO@@@std@@@3@$0A@@std@@@1@PBV?$_Tree_val@V?$_Tmap_traits@JUGROUP_CHAT_INFO@@U?$less@J@std@@V?$allocator@U?$pair@$$CBJUGROUP_CHAT_INFO@@@std@@@3@$0A@@std@@@1@@Z 00569060 f i globalvar.obj
 0002:0008b0d0       ??E?$_Tree_unchecked_const_iterator@V?$_Tree_val@V?$_Tmap_traits@JUGROUP_CHAT_INFO@@U?$less@J@std@@V?$allocator@U?$pair@$$CBJUGROUP_CHAT_INFO@@@std@@@3@$0A@@std@@@std@@U_Iterator_base0@2@@std@@QAEAAV01@XZ 005690d0 f i globalvar.obj
 0002:0008b1f0       ??$addressof@U?$pair@$$CBJUGROUP_CHAT_INFO@@@std@@@std@@YAPAU?$pair@$$CBJUGROUP_CHAT_INFO@@@0@AAU10@@Z 005691f0 f i globalvar.obj
 0002:0008b230       ??$_Dest_val@V?$allocator@U?$pair@$$CBJUGROUP_CHAT_INFO@@@std@@@std@@U?$pair@$$CBJUGROUP_CHAT_INFO@@@2@@std@@YAXAAV?$allocator@U?$pair@$$CBJUGROUP_CHAT_INFO@@@std@@@0@PAU?$pair@$$CBJUGROUP_CHAT_INFO@@@0@@Z 00569230 f i globalvar.obj
 0002:0008b280       ?destroy@?$allocator@U?$pair@$$CBJUGROUP_CHAT_INFO@@@std@@@std@@QAEXPAU?$pair@$$CBJUGROUP_CHAT_INFO@@@2@@Z 00569280 f i globalvar.obj
 0002:0008b2e0       ??$_Destroy@U?$pair@$$CBJUGROUP_CHAT_INFO@@@std@@@std@@YAXPAU?$pair@$$CBJUGROUP_CHAT_INFO@@@0@@Z 005692e0 f i globalvar.obj
 0002:0008b310       ??1?$map@HUtagPUBLIC_INFO@@U?$less@H@std@@V?$allocator@U?$pair@$$CBHUtagPUBLIC_INFO@@@std@@@3@@std@@QAE@XZ 00569310 f i globalvar.obj
 0002:0008b360       ??1?$_Tree@V?$_Tmap_traits@HUtagPUBLIC_INFO@@U?$less@H@std@@V?$allocator@U?$pair@$$CBHUtagPUBLIC_INFO@@@std@@@3@$0A@@std@@@std@@QAE@XZ 00569360 f i globalvar.obj
 0002:0008b400       ?_Tidy@?$_Tree@V?$_Tmap_traits@HUtagPUBLIC_INFO@@U?$less@H@std@@V?$allocator@U?$pair@$$CBHUtagPUBLIC_INFO@@@std@@@3@$0A@@std@@@std@@IAEXXZ 00569400 f i globalvar.obj
 0002:0008b4b0       ??1?$_Tree_val@V?$_Tmap_traits@HUtagPUBLIC_INFO@@U?$less@H@std@@V?$allocator@U?$pair@$$CBHUtagPUBLIC_INFO@@@std@@@3@$0A@@std@@@std@@QAE@XZ 005694b0 f i globalvar.obj
 0002:0008b510       ?begin@?$_Tree@V?$_Tmap_traits@HUtagPUBLIC_INFO@@U?$less@H@std@@V?$allocator@U?$pair@$$CBHUtagPUBLIC_INFO@@@std@@@3@$0A@@std@@@std@@QAE?AV?$_Tree_iterator@V?$_Tree_val@V?$_Tmap_traits@HUtagPUBLIC_INFO@@U?$less@H@std@@V?$allocator@U?$pair@$$CBHUtagPUBLIC_INFO@@@std@@@3@$0A@@std@@@std@@@2@XZ 00569510 f i globalvar.obj
 0002:0008b580       ?end@?$_Tree@V?$_Tmap_traits@HUtagPUBLIC_INFO@@U?$less@H@std@@V?$allocator@U?$pair@$$CBHUtagPUBLIC_INFO@@@std@@@3@$0A@@std@@@std@@QAE?AV?$_Tree_iterator@V?$_Tree_val@V?$_Tmap_traits@HUtagPUBLIC_INFO@@U?$less@H@std@@V?$allocator@U?$pair@$$CBHUtagPUBLIC_INFO@@@std@@@3@$0A@@std@@@std@@@2@XZ 00569580 f i globalvar.obj
 0002:0008b5f0       ?erase@?$_Tree@V?$_Tmap_traits@HUtagPUBLIC_INFO@@U?$less@H@std@@V?$allocator@U?$pair@$$CBHUtagPUBLIC_INFO@@@std@@@3@$0A@@std@@@std@@QAE?AV?$_Tree_iterator@V?$_Tree_val@V?$_Tmap_traits@HUtagPUBLIC_INFO@@U?$less@H@std@@V?$allocator@U?$pair@$$CBHUtagPUBLIC_INFO@@@std@@@3@$0A@@std@@@std@@@2@V?$_Tree_const_iterator@V?$_Tree_val@V?$_Tmap_traits@HUtagPUBLIC_INFO@@U?$less@H@std@@V?$allocator@U?$pair@$$CBHUtagPUBLIC_INFO@@@std@@@3@$0A@@std@@@std@@@2@0@Z 005695f0 f i globalvar.obj
 0002:0008b710       ?deallocate@?$allocator@U_Node@?$_Tree_nod@V?$_Tmap_traits@HUtagPUBLIC_INFO@@U?$less@H@std@@V?$allocator@U?$pair@$$CBHUtagPUBLIC_INFO@@@std@@@3@$0A@@std@@@std@@@std@@QAEXPAU_Node@?$_Tree_nod@V?$_Tmap_traits@HUtagPUBLIC_INFO@@U?$less@H@std@@V?$allocator@U?$pair@$$CBHUtagPUBLIC_INFO@@@std@@@3@$0A@@std@@@2@I@Z 00569710 f i globalvar.obj
 0002:0008b770       ?erase@?$_Tree@V?$_Tmap_traits@HUtagPUBLIC_INFO@@U?$less@H@std@@V?$allocator@U?$pair@$$CBHUtagPUBLIC_INFO@@@std@@@3@$0A@@std@@@std@@QAE?AV?$_Tree_iterator@V?$_Tree_val@V?$_Tmap_traits@HUtagPUBLIC_INFO@@U?$less@H@std@@V?$allocator@U?$pair@$$CBHUtagPUBLIC_INFO@@@std@@@3@$0A@@std@@@std@@@2@V?$_Tree_const_iterator@V?$_Tree_val@V?$_Tmap_traits@HUtagPUBLIC_INFO@@U?$less@H@std@@V?$allocator@U?$pair@$$CBHUtagPUBLIC_INFO@@@std@@@3@$0A@@std@@@std@@@2@@Z 00569770 f i globalvar.obj
 0002:0008c130       ?clear@?$_Tree@V?$_Tmap_traits@HUtagPUBLIC_INFO@@U?$less@H@std@@V?$allocator@U?$pair@$$CBHUtagPUBLIC_INFO@@@std@@@3@$0A@@std@@@std@@QAEXXZ 0056a130 f i globalvar.obj
 0002:0008c1e0       ?_Lmost@?$_Tree@V?$_Tmap_traits@HUtagPUBLIC_INFO@@U?$less@H@std@@V?$allocator@U?$pair@$$CBHUtagPUBLIC_INFO@@@std@@@3@$0A@@std@@@std@@IBEAAPAU_Node@?$_Tree_nod@V?$_Tmap_traits@HUtagPUBLIC_INFO@@U?$less@H@std@@V?$allocator@U?$pair@$$CBHUtagPUBLIC_INFO@@@std@@@3@$0A@@std@@@2@XZ 0056a1e0 f i globalvar.obj
 0002:0008c240       ??0?$_Tree_iterator@V?$_Tree_val@V?$_Tmap_traits@HUtagPUBLIC_INFO@@U?$less@H@std@@V?$allocator@U?$pair@$$CBHUtagPUBLIC_INFO@@@std@@@3@$0A@@std@@@std@@@std@@QAE@PAU_Node@?$_Tree_nod@V?$_Tmap_traits@HUtagPUBLIC_INFO@@U?$less@H@std@@V?$allocator@U?$pair@$$CBHUtagPUBLIC_INFO@@@std@@@3@$0A@@std@@@1@PBV?$_Tree_val@V?$_Tmap_traits@HUtagPUBLIC_INFO@@U?$less@H@std@@V?$allocator@U?$pair@$$CBHUtagPUBLIC_INFO@@@std@@@3@$0A@@std@@@1@@Z 0056a240 f i globalvar.obj
 0002:0008c2a0       ??E?$_Tree_const_iterator@V?$_Tree_val@V?$_Tmap_traits@HUtagPUBLIC_INFO@@U?$less@H@std@@V?$allocator@U?$pair@$$CBHUtagPUBLIC_INFO@@@std@@@3@$0A@@std@@@std@@@std@@QAE?AV01@H@Z 0056a2a0 f i globalvar.obj
 0002:0008c350       ??8?$_Tree_const_iterator@V?$_Tree_val@V?$_Tmap_traits@HUtagPUBLIC_INFO@@U?$less@H@std@@V?$allocator@U?$pair@$$CBHUtagPUBLIC_INFO@@@std@@@3@$0A@@std@@@std@@@std@@QBE_NABV01@@Z 0056a350 f i globalvar.obj
 0002:0008c3a0       ??9?$_Tree_const_iterator@V?$_Tree_val@V?$_Tmap_traits@HUtagPUBLIC_INFO@@U?$less@H@std@@V?$allocator@U?$pair@$$CBHUtagPUBLIC_INFO@@@std@@@3@$0A@@std@@@std@@@std@@QBE_NABV01@@Z 0056a3a0 f i globalvar.obj
 0002:0008c410       ?_Erase@?$_Tree@V?$_Tmap_traits@HUtagPUBLIC_INFO@@U?$less@H@std@@V?$allocator@U?$pair@$$CBHUtagPUBLIC_INFO@@@std@@@3@$0A@@std@@@std@@IAEXPAU_Node@?$_Tree_nod@V?$_Tmap_traits@HUtagPUBLIC_INFO@@U?$less@H@std@@V?$allocator@U?$pair@$$CBHUtagPUBLIC_INFO@@@std@@@3@$0A@@std@@@2@@Z 0056a410 f i globalvar.obj
 0002:0008c500       ?_Lrotate@?$_Tree@V?$_Tmap_traits@HUtagPUBLIC_INFO@@U?$less@H@std@@V?$allocator@U?$pair@$$CBHUtagPUBLIC_INFO@@@std@@@3@$0A@@std@@@std@@IAEXPAU_Node@?$_Tree_nod@V?$_Tmap_traits@HUtagPUBLIC_INFO@@U?$less@H@std@@V?$allocator@U?$pair@$$CBHUtagPUBLIC_INFO@@@std@@@3@$0A@@std@@@2@@Z 0056a500 f i globalvar.obj
 0002:0008c6b0       ?_Rmost@?$_Tree@V?$_Tmap_traits@HUtagPUBLIC_INFO@@U?$less@H@std@@V?$allocator@U?$pair@$$CBHUtagPUBLIC_INFO@@@std@@@3@$0A@@std@@@std@@IBEAAPAU_Node@?$_Tree_nod@V?$_Tmap_traits@HUtagPUBLIC_INFO@@U?$less@H@std@@V?$allocator@U?$pair@$$CBHUtagPUBLIC_INFO@@@std@@@3@$0A@@std@@@2@XZ 0056a6b0 f i globalvar.obj
 0002:0008c710       ?_Root@?$_Tree@V?$_Tmap_traits@HUtagPUBLIC_INFO@@U?$less@H@std@@V?$allocator@U?$pair@$$CBHUtagPUBLIC_INFO@@@std@@@3@$0A@@std@@@std@@IBEAAPAU_Node@?$_Tree_nod@V?$_Tmap_traits@HUtagPUBLIC_INFO@@U?$less@H@std@@V?$allocator@U?$pair@$$CBHUtagPUBLIC_INFO@@@std@@@3@$0A@@std@@@2@XZ 0056a710 f i globalvar.obj
 0002:0008c770       ?_Rrotate@?$_Tree@V?$_Tmap_traits@HUtagPUBLIC_INFO@@U?$less@H@std@@V?$allocator@U?$pair@$$CBHUtagPUBLIC_INFO@@@std@@@3@$0A@@std@@@std@@IAEXPAU_Node@?$_Tree_nod@V?$_Tmap_traits@HUtagPUBLIC_INFO@@U?$less@H@std@@V?$allocator@U?$pair@$$CBHUtagPUBLIC_INFO@@@std@@@3@$0A@@std@@@2@@Z 0056a770 f i globalvar.obj
 0002:0008c920       ?_Myval@?$_Tree_val@V?$_Tmap_traits@HUtagPUBLIC_INFO@@U?$less@H@std@@V?$allocator@U?$pair@$$CBHUtagPUBLIC_INFO@@@std@@@3@$0A@@std@@@std@@SAAAU?$pair@$$CBHUtagPUBLIC_INFO@@@2@PAU_Node@?$_Tree_nod@V?$_Tmap_traits@HUtagPUBLIC_INFO@@U?$less@H@std@@V?$allocator@U?$pair@$$CBHUtagPUBLIC_INFO@@@std@@@3@$0A@@std@@@2@@Z 0056a920 f i globalvar.obj
 0002:0008c960       ?_Max@?$_Tree_val@V?$_Tmap_traits@HUtagPUBLIC_INFO@@U?$less@H@std@@V?$allocator@U?$pair@$$CBHUtagPUBLIC_INFO@@@std@@@3@$0A@@std@@@std@@SAPAU_Node@?$_Tree_nod@V?$_Tmap_traits@HUtagPUBLIC_INFO@@U?$less@H@std@@V?$allocator@U?$pair@$$CBHUtagPUBLIC_INFO@@@std@@@3@$0A@@std@@@2@PAU342@@Z 0056a960 f i globalvar.obj
 0002:0008c9e0       ?_Min@?$_Tree_val@V?$_Tmap_traits@HUtagPUBLIC_INFO@@U?$less@H@std@@V?$allocator@U?$pair@$$CBHUtagPUBLIC_INFO@@@std@@@3@$0A@@std@@@std@@SAPAU_Node@?$_Tree_nod@V?$_Tmap_traits@HUtagPUBLIC_INFO@@U?$less@H@std@@V?$allocator@U?$pair@$$CBHUtagPUBLIC_INFO@@@std@@@3@$0A@@std@@@2@PAU342@@Z 0056a9e0 f i globalvar.obj
 0002:0008ca60       ??0?$_Tree_const_iterator@V?$_Tree_val@V?$_Tmap_traits@HUtagPUBLIC_INFO@@U?$less@H@std@@V?$allocator@U?$pair@$$CBHUtagPUBLIC_INFO@@@std@@@3@$0A@@std@@@std@@@std@@QAE@PAU_Node@?$_Tree_nod@V?$_Tmap_traits@HUtagPUBLIC_INFO@@U?$less@H@std@@V?$allocator@U?$pair@$$CBHUtagPUBLIC_INFO@@@std@@@3@$0A@@std@@@1@PBV?$_Tree_val@V?$_Tmap_traits@HUtagPUBLIC_INFO@@U?$less@H@std@@V?$allocator@U?$pair@$$CBHUtagPUBLIC_INFO@@@std@@@3@$0A@@std@@@1@@Z 0056aa60 f i globalvar.obj
 0002:0008cac0       ??E?$_Tree_const_iterator@V?$_Tree_val@V?$_Tmap_traits@HUtagPUBLIC_INFO@@U?$less@H@std@@V?$allocator@U?$pair@$$CBHUtagPUBLIC_INFO@@@std@@@3@$0A@@std@@@std@@@std@@QAEAAV01@XZ 0056aac0 f i globalvar.obj
 0002:0008cb20       ?_Mynode@?$_Tree_unchecked_const_iterator@V?$_Tree_val@V?$_Tmap_traits@HUtagPUBLIC_INFO@@U?$less@H@std@@V?$allocator@U?$pair@$$CBHUtagPUBLIC_INFO@@@std@@@3@$0A@@std@@@std@@U_Iterator_base0@2@@std@@QBEPAU_Node@?$_Tree_nod@V?$_Tmap_traits@HUtagPUBLIC_INFO@@U?$less@H@std@@V?$allocator@U?$pair@$$CBHUtagPUBLIC_INFO@@@std@@@3@$0A@@std@@@2@XZ 0056ab20 f i globalvar.obj
 0002:0008cb60       ??0?$_Tree_unchecked_const_iterator@V?$_Tree_val@V?$_Tmap_traits@HUtagPUBLIC_INFO@@U?$less@H@std@@V?$allocator@U?$pair@$$CBHUtagPUBLIC_INFO@@@std@@@3@$0A@@std@@@std@@U_Iterator_base0@2@@std@@QAE@PAU_Node@?$_Tree_nod@V?$_Tmap_traits@HUtagPUBLIC_INFO@@U?$less@H@std@@V?$allocator@U?$pair@$$CBHUtagPUBLIC_INFO@@@std@@@3@$0A@@std@@@1@PBV?$_Tree_val@V?$_Tmap_traits@HUtagPUBLIC_INFO@@U?$less@H@std@@V?$allocator@U?$pair@$$CBHUtagPUBLIC_INFO@@@std@@@3@$0A@@std@@@1@@Z 0056ab60 f i globalvar.obj
 0002:0008cbd0       ??E?$_Tree_unchecked_const_iterator@V?$_Tree_val@V?$_Tmap_traits@HUtagPUBLIC_INFO@@U?$less@H@std@@V?$allocator@U?$pair@$$CBHUtagPUBLIC_INFO@@@std@@@3@$0A@@std@@@std@@U_Iterator_base0@2@@std@@QAEAAV01@XZ 0056abd0 f i globalvar.obj
 0002:0008ccf0       ??$addressof@U?$pair@$$CBHUtagPUBLIC_INFO@@@std@@@std@@YAPAU?$pair@$$CBHUtagPUBLIC_INFO@@@0@AAU10@@Z 0056acf0 f i globalvar.obj
 0002:0008cd30       ??$_Dest_val@V?$allocator@U?$pair@$$CBHUtagPUBLIC_INFO@@@std@@@std@@U?$pair@$$CBHUtagPUBLIC_INFO@@@2@@std@@YAXAAV?$allocator@U?$pair@$$CBHUtagPUBLIC_INFO@@@std@@@0@PAU?$pair@$$CBHUtagPUBLIC_INFO@@@0@@Z 0056ad30 f i globalvar.obj
 0002:0008cd80       ?destroy@?$allocator@U?$pair@$$CBHUtagPUBLIC_INFO@@@std@@@std@@QAEXPAU?$pair@$$CBHUtagPUBLIC_INFO@@@2@@Z 0056ad80 f i globalvar.obj
 0002:0008cde0       ??$_Destroy@U?$pair@$$CBHUtagPUBLIC_INFO@@@std@@@std@@YAXPAU?$pair@$$CBHUtagPUBLIC_INFO@@@0@@Z 0056ade0 f i globalvar.obj
 0002:0008ce10       ??1?$map@HUtagTGROOM_INFO@@U?$less@H@std@@V?$allocator@U?$pair@$$CBHUtagTGROOM_INFO@@@std@@@3@@std@@QAE@XZ 0056ae10 f i globalvar.obj
 0002:0008ce60       ??1?$_Tree@V?$_Tmap_traits@HUtagTGROOM_INFO@@U?$less@H@std@@V?$allocator@U?$pair@$$CBHUtagTGROOM_INFO@@@std@@@3@$0A@@std@@@std@@QAE@XZ 0056ae60 f i globalvar.obj
 0002:0008cf00       ?_Tidy@?$_Tree@V?$_Tmap_traits@HUtagTGROOM_INFO@@U?$less@H@std@@V?$allocator@U?$pair@$$CBHUtagTGROOM_INFO@@@std@@@3@$0A@@std@@@std@@IAEXXZ 0056af00 f i globalvar.obj
 0002:0008cfb0       ??1?$_Tree_val@V?$_Tmap_traits@HUtagTGROOM_INFO@@U?$less@H@std@@V?$allocator@U?$pair@$$CBHUtagTGROOM_INFO@@@std@@@3@$0A@@std@@@std@@QAE@XZ 0056afb0 f i globalvar.obj
 0002:0008d010       ?begin@?$_Tree@V?$_Tmap_traits@HUtagTGROOM_INFO@@U?$less@H@std@@V?$allocator@U?$pair@$$CBHUtagTGROOM_INFO@@@std@@@3@$0A@@std@@@std@@QAE?AV?$_Tree_iterator@V?$_Tree_val@V?$_Tmap_traits@HUtagTGROOM_INFO@@U?$less@H@std@@V?$allocator@U?$pair@$$CBHUtagTGROOM_INFO@@@std@@@3@$0A@@std@@@std@@@2@XZ 0056b010 f i globalvar.obj
 0002:0008d080       ?end@?$_Tree@V?$_Tmap_traits@HUtagTGROOM_INFO@@U?$less@H@std@@V?$allocator@U?$pair@$$CBHUtagTGROOM_INFO@@@std@@@3@$0A@@std@@@std@@QAE?AV?$_Tree_iterator@V?$_Tree_val@V?$_Tmap_traits@HUtagTGROOM_INFO@@U?$less@H@std@@V?$allocator@U?$pair@$$CBHUtagTGROOM_INFO@@@std@@@3@$0A@@std@@@std@@@2@XZ 0056b080 f i globalvar.obj
 0002:0008d0f0       ?erase@?$_Tree@V?$_Tmap_traits@HUtagTGROOM_INFO@@U?$less@H@std@@V?$allocator@U?$pair@$$CBHUtagTGROOM_INFO@@@std@@@3@$0A@@std@@@std@@QAE?AV?$_Tree_iterator@V?$_Tree_val@V?$_Tmap_traits@HUtagTGROOM_INFO@@U?$less@H@std@@V?$allocator@U?$pair@$$CBHUtagTGROOM_INFO@@@std@@@3@$0A@@std@@@std@@@2@V?$_Tree_const_iterator@V?$_Tree_val@V?$_Tmap_traits@HUtagTGROOM_INFO@@U?$less@H@std@@V?$allocator@U?$pair@$$CBHUtagTGROOM_INFO@@@std@@@3@$0A@@std@@@std@@@2@0@Z 0056b0f0 f i globalvar.obj
 0002:0008d210       ?deallocate@?$allocator@U_Node@?$_Tree_nod@V?$_Tmap_traits@HUtagTGROOM_INFO@@U?$less@H@std@@V?$allocator@U?$pair@$$CBHUtagTGROOM_INFO@@@std@@@3@$0A@@std@@@std@@@std@@QAEXPAU_Node@?$_Tree_nod@V?$_Tmap_traits@HUtagTGROOM_INFO@@U?$less@H@std@@V?$allocator@U?$pair@$$CBHUtagTGROOM_INFO@@@std@@@3@$0A@@std@@@2@I@Z 0056b210 f i globalvar.obj
 0002:0008d270       ?erase@?$_Tree@V?$_Tmap_traits@HUtagTGROOM_INFO@@U?$less@H@std@@V?$allocator@U?$pair@$$CBHUtagTGROOM_INFO@@@std@@@3@$0A@@std@@@std@@QAE?AV?$_Tree_iterator@V?$_Tree_val@V?$_Tmap_traits@HUtagTGROOM_INFO@@U?$less@H@std@@V?$allocator@U?$pair@$$CBHUtagTGROOM_INFO@@@std@@@3@$0A@@std@@@std@@@2@V?$_Tree_const_iterator@V?$_Tree_val@V?$_Tmap_traits@HUtagTGROOM_INFO@@U?$less@H@std@@V?$allocator@U?$pair@$$CBHUtagTGROOM_INFO@@@std@@@3@$0A@@std@@@std@@@2@@Z 0056b270 f i globalvar.obj
 0002:0008dc30       ?clear@?$_Tree@V?$_Tmap_traits@HUtagTGROOM_INFO@@U?$less@H@std@@V?$allocator@U?$pair@$$CBHUtagTGROOM_INFO@@@std@@@3@$0A@@std@@@std@@QAEXXZ 0056bc30 f i globalvar.obj
 0002:0008dce0       ?_Lmost@?$_Tree@V?$_Tmap_traits@HUtagTGROOM_INFO@@U?$less@H@std@@V?$allocator@U?$pair@$$CBHUtagTGROOM_INFO@@@std@@@3@$0A@@std@@@std@@IBEAAPAU_Node@?$_Tree_nod@V?$_Tmap_traits@HUtagTGROOM_INFO@@U?$less@H@std@@V?$allocator@U?$pair@$$CBHUtagTGROOM_INFO@@@std@@@3@$0A@@std@@@2@XZ 0056bce0 f i globalvar.obj
 0002:0008dd40       ??0?$_Tree_iterator@V?$_Tree_val@V?$_Tmap_traits@HUtagTGROOM_INFO@@U?$less@H@std@@V?$allocator@U?$pair@$$CBHUtagTGROOM_INFO@@@std@@@3@$0A@@std@@@std@@@std@@QAE@PAU_Node@?$_Tree_nod@V?$_Tmap_traits@HUtagTGROOM_INFO@@U?$less@H@std@@V?$allocator@U?$pair@$$CBHUtagTGROOM_INFO@@@std@@@3@$0A@@std@@@1@PBV?$_Tree_val@V?$_Tmap_traits@HUtagTGROOM_INFO@@U?$less@H@std@@V?$allocator@U?$pair@$$CBHUtagTGROOM_INFO@@@std@@@3@$0A@@std@@@1@@Z 0056bd40 f i globalvar.obj
 0002:0008dda0       ??E?$_Tree_const_iterator@V?$_Tree_val@V?$_Tmap_traits@HUtagTGROOM_INFO@@U?$less@H@std@@V?$allocator@U?$pair@$$CBHUtagTGROOM_INFO@@@std@@@3@$0A@@std@@@std@@@std@@QAE?AV01@H@Z 0056bda0 f i globalvar.obj
 0002:0008de50       ??8?$_Tree_const_iterator@V?$_Tree_val@V?$_Tmap_traits@HUtagTGROOM_INFO@@U?$less@H@std@@V?$allocator@U?$pair@$$CBHUtagTGROOM_INFO@@@std@@@3@$0A@@std@@@std@@@std@@QBE_NABV01@@Z 0056be50 f i globalvar.obj
 0002:0008dea0       ??9?$_Tree_const_iterator@V?$_Tree_val@V?$_Tmap_traits@HUtagTGROOM_INFO@@U?$less@H@std@@V?$allocator@U?$pair@$$CBHUtagTGROOM_INFO@@@std@@@3@$0A@@std@@@std@@@std@@QBE_NABV01@@Z 0056bea0 f i globalvar.obj
 0002:0008df10       ?_Erase@?$_Tree@V?$_Tmap_traits@HUtagTGROOM_INFO@@U?$less@H@std@@V?$allocator@U?$pair@$$CBHUtagTGROOM_INFO@@@std@@@3@$0A@@std@@@std@@IAEXPAU_Node@?$_Tree_nod@V?$_Tmap_traits@HUtagTGROOM_INFO@@U?$less@H@std@@V?$allocator@U?$pair@$$CBHUtagTGROOM_INFO@@@std@@@3@$0A@@std@@@2@@Z 0056bf10 f i globalvar.obj
 0002:0008e000       ?_Lrotate@?$_Tree@V?$_Tmap_traits@HUtagTGROOM_INFO@@U?$less@H@std@@V?$allocator@U?$pair@$$CBHUtagTGROOM_INFO@@@std@@@3@$0A@@std@@@std@@IAEXPAU_Node@?$_Tree_nod@V?$_Tmap_traits@HUtagTGROOM_INFO@@U?$less@H@std@@V?$allocator@U?$pair@$$CBHUtagTGROOM_INFO@@@std@@@3@$0A@@std@@@2@@Z 0056c000 f i globalvar.obj
 0002:0008e1b0       ?_Rmost@?$_Tree@V?$_Tmap_traits@HUtagTGROOM_INFO@@U?$less@H@std@@V?$allocator@U?$pair@$$CBHUtagTGROOM_INFO@@@std@@@3@$0A@@std@@@std@@IBEAAPAU_Node@?$_Tree_nod@V?$_Tmap_traits@HUtagTGROOM_INFO@@U?$less@H@std@@V?$allocator@U?$pair@$$CBHUtagTGROOM_INFO@@@std@@@3@$0A@@std@@@2@XZ 0056c1b0 f i globalvar.obj
 0002:0008e210       ?_Root@?$_Tree@V?$_Tmap_traits@HUtagTGROOM_INFO@@U?$less@H@std@@V?$allocator@U?$pair@$$CBHUtagTGROOM_INFO@@@std@@@3@$0A@@std@@@std@@IBEAAPAU_Node@?$_Tree_nod@V?$_Tmap_traits@HUtagTGROOM_INFO@@U?$less@H@std@@V?$allocator@U?$pair@$$CBHUtagTGROOM_INFO@@@std@@@3@$0A@@std@@@2@XZ 0056c210 f i globalvar.obj
 0002:0008e270       ?_Rrotate@?$_Tree@V?$_Tmap_traits@HUtagTGROOM_INFO@@U?$less@H@std@@V?$allocator@U?$pair@$$CBHUtagTGROOM_INFO@@@std@@@3@$0A@@std@@@std@@IAEXPAU_Node@?$_Tree_nod@V?$_Tmap_traits@HUtagTGROOM_INFO@@U?$less@H@std@@V?$allocator@U?$pair@$$CBHUtagTGROOM_INFO@@@std@@@3@$0A@@std@@@2@@Z 0056c270 f i globalvar.obj
 0002:0008e420       ?_Myval@?$_Tree_val@V?$_Tmap_traits@HUtagTGROOM_INFO@@U?$less@H@std@@V?$allocator@U?$pair@$$CBHUtagTGROOM_INFO@@@std@@@3@$0A@@std@@@std@@SAAAU?$pair@$$CBHUtagTGROOM_INFO@@@2@PAU_Node@?$_Tree_nod@V?$_Tmap_traits@HUtagTGROOM_INFO@@U?$less@H@std@@V?$allocator@U?$pair@$$CBHUtagTGROOM_INFO@@@std@@@3@$0A@@std@@@2@@Z 0056c420 f i globalvar.obj
 0002:0008e460       ?_Max@?$_Tree_val@V?$_Tmap_traits@HUtagTGROOM_INFO@@U?$less@H@std@@V?$allocator@U?$pair@$$CBHUtagTGROOM_INFO@@@std@@@3@$0A@@std@@@std@@SAPAU_Node@?$_Tree_nod@V?$_Tmap_traits@HUtagTGROOM_INFO@@U?$less@H@std@@V?$allocator@U?$pair@$$CBHUtagTGROOM_INFO@@@std@@@3@$0A@@std@@@2@PAU342@@Z 0056c460 f i globalvar.obj
 0002:0008e4e0       ?_Min@?$_Tree_val@V?$_Tmap_traits@HUtagTGROOM_INFO@@U?$less@H@std@@V?$allocator@U?$pair@$$CBHUtagTGROOM_INFO@@@std@@@3@$0A@@std@@@std@@SAPAU_Node@?$_Tree_nod@V?$_Tmap_traits@HUtagTGROOM_INFO@@U?$less@H@std@@V?$allocator@U?$pair@$$CBHUtagTGROOM_INFO@@@std@@@3@$0A@@std@@@2@PAU342@@Z 0056c4e0 f i globalvar.obj
 0002:0008e560       ??0?$_Tree_const_iterator@V?$_Tree_val@V?$_Tmap_traits@HUtagTGROOM_INFO@@U?$less@H@std@@V?$allocator@U?$pair@$$CBHUtagTGROOM_INFO@@@std@@@3@$0A@@std@@@std@@@std@@QAE@PAU_Node@?$_Tree_nod@V?$_Tmap_traits@HUtagTGROOM_INFO@@U?$less@H@std@@V?$allocator@U?$pair@$$CBHUtagTGROOM_INFO@@@std@@@3@$0A@@std@@@1@PBV?$_Tree_val@V?$_Tmap_traits@HUtagTGROOM_INFO@@U?$less@H@std@@V?$allocator@U?$pair@$$CBHUtagTGROOM_INFO@@@std@@@3@$0A@@std@@@1@@Z 0056c560 f i globalvar.obj
 0002:0008e5c0       ??E?$_Tree_const_iterator@V?$_Tree_val@V?$_Tmap_traits@HUtagTGROOM_INFO@@U?$less@H@std@@V?$allocator@U?$pair@$$CBHUtagTGROOM_INFO@@@std@@@3@$0A@@std@@@std@@@std@@QAEAAV01@XZ 0056c5c0 f i globalvar.obj
 0002:0008e620       ?_Mynode@?$_Tree_unchecked_const_iterator@V?$_Tree_val@V?$_Tmap_traits@HUtagTGROOM_INFO@@U?$less@H@std@@V?$allocator@U?$pair@$$CBHUtagTGROOM_INFO@@@std@@@3@$0A@@std@@@std@@U_Iterator_base0@2@@std@@QBEPAU_Node@?$_Tree_nod@V?$_Tmap_traits@HUtagTGROOM_INFO@@U?$less@H@std@@V?$allocator@U?$pair@$$CBHUtagTGROOM_INFO@@@std@@@3@$0A@@std@@@2@XZ 0056c620 f i globalvar.obj
 0002:0008e660       ??0?$_Tree_unchecked_const_iterator@V?$_Tree_val@V?$_Tmap_traits@HUtagTGROOM_INFO@@U?$less@H@std@@V?$allocator@U?$pair@$$CBHUtagTGROOM_INFO@@@std@@@3@$0A@@std@@@std@@U_Iterator_base0@2@@std@@QAE@PAU_Node@?$_Tree_nod@V?$_Tmap_traits@HUtagTGROOM_INFO@@U?$less@H@std@@V?$allocator@U?$pair@$$CBHUtagTGROOM_INFO@@@std@@@3@$0A@@std@@@1@PBV?$_Tree_val@V?$_Tmap_traits@HUtagTGROOM_INFO@@U?$less@H@std@@V?$allocator@U?$pair@$$CBHUtagTGROOM_INFO@@@std@@@3@$0A@@std@@@1@@Z 0056c660 f i globalvar.obj
 0002:0008e6d0       ??E?$_Tree_unchecked_const_iterator@V?$_Tree_val@V?$_Tmap_traits@HUtagTGROOM_INFO@@U?$less@H@std@@V?$allocator@U?$pair@$$CBHUtagTGROOM_INFO@@@std@@@3@$0A@@std@@@std@@U_Iterator_base0@2@@std@@QAEAAV01@XZ 0056c6d0 f i globalvar.obj
 0002:0008e7f0       ??$addressof@U?$pair@$$CBHUtagTGROOM_INFO@@@std@@@std@@YAPAU?$pair@$$CBHUtagTGROOM_INFO@@@0@AAU10@@Z 0056c7f0 f i globalvar.obj
 0002:0008e830       ??$_Dest_val@V?$allocator@U?$pair@$$CBHUtagTGROOM_INFO@@@std@@@std@@U?$pair@$$CBHUtagTGROOM_INFO@@@2@@std@@YAXAAV?$allocator@U?$pair@$$CBHUtagTGROOM_INFO@@@std@@@0@PAU?$pair@$$CBHUtagTGROOM_INFO@@@0@@Z 0056c830 f i globalvar.obj
 0002:0008e880       ?destroy@?$allocator@U?$pair@$$CBHUtagTGROOM_INFO@@@std@@@std@@QAEXPAU?$pair@$$CBHUtagTGROOM_INFO@@@2@@Z 0056c880 f i globalvar.obj
 0002:0008e8e0       ??$_Destroy@U?$pair@$$CBHUtagTGROOM_INFO@@@std@@@std@@YAXPAU?$pair@$$CBHUtagTGROOM_INFO@@@0@@Z 0056c8e0 f i globalvar.obj
 0002:0008e910       ??1?$map@HHU?$less@H@std@@V?$allocator@U?$pair@$$CBHH@std@@@2@@std@@QAE@XZ 0056c910 f i globalvar.obj
 0002:0008e960       ??1?$_Tree@V?$_Tmap_traits@HHU?$less@H@std@@V?$allocator@U?$pair@$$CBHH@std@@@2@$0A@@std@@@std@@QAE@XZ 0056c960 f i globalvar.obj
 0002:0008ea00       ?_Tidy@?$_Tree@V?$_Tmap_traits@HHU?$less@H@std@@V?$allocator@U?$pair@$$CBHH@std@@@2@$0A@@std@@@std@@IAEXXZ 0056ca00 f i globalvar.obj
 0002:0008eab0       ??1?$_Tree_val@V?$_Tmap_traits@HHU?$less@H@std@@V?$allocator@U?$pair@$$CBHH@std@@@2@$0A@@std@@@std@@QAE@XZ 0056cab0 f i globalvar.obj
 0002:0008eb10       ?erase@?$_Tree@V?$_Tmap_traits@HHU?$less@H@std@@V?$allocator@U?$pair@$$CBHH@std@@@2@$0A@@std@@@std@@QAE?AV?$_Tree_iterator@V?$_Tree_val@V?$_Tmap_traits@HHU?$less@H@std@@V?$allocator@U?$pair@$$CBHH@std@@@2@$0A@@std@@@std@@@2@V?$_Tree_const_iterator@V?$_Tree_val@V?$_Tmap_traits@HHU?$less@H@std@@V?$allocator@U?$pair@$$CBHH@std@@@2@$0A@@std@@@std@@@2@0@Z 0056cb10 f i globalvar.obj
 0002:0008ec30       ?erase@?$_Tree@V?$_Tmap_traits@HHU?$less@H@std@@V?$allocator@U?$pair@$$CBHH@std@@@2@$0A@@std@@@std@@QAE?AV?$_Tree_iterator@V?$_Tree_val@V?$_Tmap_traits@HHU?$less@H@std@@V?$allocator@U?$pair@$$CBHH@std@@@2@$0A@@std@@@std@@@2@V?$_Tree_const_iterator@V?$_Tree_val@V?$_Tmap_traits@HHU?$less@H@std@@V?$allocator@U?$pair@$$CBHH@std@@@2@$0A@@std@@@std@@@2@@Z 0056cc30 f i globalvar.obj
 0002:0008f5f0       ?clear@?$_Tree@V?$_Tmap_traits@HHU?$less@H@std@@V?$allocator@U?$pair@$$CBHH@std@@@2@$0A@@std@@@std@@QAEXXZ 0056d5f0 f i globalvar.obj
 0002:0008f6a0       ??E?$_Tree_const_iterator@V?$_Tree_val@V?$_Tmap_traits@HHU?$less@H@std@@V?$allocator@U?$pair@$$CBHH@std@@@2@$0A@@std@@@std@@@std@@QAE?AV01@H@Z 0056d6a0 f i globalvar.obj
 0002:0008f750       ??9?$_Tree_const_iterator@V?$_Tree_val@V?$_Tmap_traits@HHU?$less@H@std@@V?$allocator@U?$pair@$$CBHH@std@@@2@$0A@@std@@@std@@@std@@QBE_NABV01@@Z 0056d750 f i globalvar.obj
 0002:0008f7c0       ?_Erase@?$_Tree@V?$_Tmap_traits@HHU?$less@H@std@@V?$allocator@U?$pair@$$CBHH@std@@@2@$0A@@std@@@std@@IAEXPAU_Node@?$_Tree_nod@V?$_Tmap_traits@HHU?$less@H@std@@V?$allocator@U?$pair@$$CBHH@std@@@2@$0A@@std@@@2@@Z 0056d7c0 f i globalvar.obj
 0002:0008f8b0       ??1?$map@HV?$CStringT@DV?$StrTraitMFC_DLL@DV?$ChTraitsCRT@D@ATL@@@@@ATL@@U?$less@H@std@@V?$allocator@U?$pair@$$CBHV?$CStringT@DV?$StrTraitMFC_DLL@DV?$ChTraitsCRT@D@ATL@@@@@ATL@@@std@@@4@@std@@QAE@XZ 0056d8b0 f i globalvar.obj
 0002:0008f900       ??1?$_Tree@V?$_Tmap_traits@HV?$CStringT@DV?$StrTraitMFC_DLL@DV?$ChTraitsCRT@D@ATL@@@@@ATL@@U?$less@H@std@@V?$allocator@U?$pair@$$CBHV?$CStringT@DV?$StrTraitMFC_DLL@DV?$ChTraitsCRT@D@ATL@@@@@ATL@@@std@@@4@$0A@@std@@@std@@QAE@XZ 0056d900 f i globalvar.obj
 0002:0008f9a0       ?_Tidy@?$_Tree@V?$_Tmap_traits@HV?$CStringT@DV?$StrTraitMFC_DLL@DV?$ChTraitsCRT@D@ATL@@@@@ATL@@U?$less@H@std@@V?$allocator@U?$pair@$$CBHV?$CStringT@DV?$StrTraitMFC_DLL@DV?$ChTraitsCRT@D@ATL@@@@@ATL@@@std@@@4@$0A@@std@@@std@@IAEXXZ 0056d9a0 f i globalvar.obj
 0002:0008fa50       ??1?$_Tree_val@V?$_Tmap_traits@HV?$CStringT@DV?$StrTraitMFC_DLL@DV?$ChTraitsCRT@D@ATL@@@@@ATL@@U?$less@H@std@@V?$allocator@U?$pair@$$CBHV?$CStringT@DV?$StrTraitMFC_DLL@DV?$ChTraitsCRT@D@ATL@@@@@ATL@@@std@@@4@$0A@@std@@@std@@QAE@XZ 0056da50 f i globalvar.obj
 0002:0008fab0       ?begin@?$_Tree@V?$_Tmap_traits@HV?$CStringT@DV?$StrTraitMFC_DLL@DV?$ChTraitsCRT@D@ATL@@@@@ATL@@U?$less@H@std@@V?$allocator@U?$pair@$$CBHV?$CStringT@DV?$StrTraitMFC_DLL@DV?$ChTraitsCRT@D@ATL@@@@@ATL@@@std@@@4@$0A@@std@@@std@@QAE?AV?$_Tree_iterator@V?$_Tree_val@V?$_Tmap_traits@HV?$CStringT@DV?$StrTraitMFC_DLL@DV?$ChTraitsCRT@D@ATL@@@@@ATL@@U?$less@H@std@@V?$allocator@U?$pair@$$CBHV?$CStringT@DV?$StrTraitMFC_DLL@DV?$ChTraitsCRT@D@ATL@@@@@ATL@@@std@@@4@$0A@@std@@@std@@@2@XZ 0056dab0 f i globalvar.obj
 0002:0008fb20       ?end@?$_Tree@V?$_Tmap_traits@HV?$CStringT@DV?$StrTraitMFC_DLL@DV?$ChTraitsCRT@D@ATL@@@@@ATL@@U?$less@H@std@@V?$allocator@U?$pair@$$CBHV?$CStringT@DV?$StrTraitMFC_DLL@DV?$ChTraitsCRT@D@ATL@@@@@ATL@@@std@@@4@$0A@@std@@@std@@QAE?AV?$_Tree_iterator@V?$_Tree_val@V?$_Tmap_traits@HV?$CStringT@DV?$StrTraitMFC_DLL@DV?$ChTraitsCRT@D@ATL@@@@@ATL@@U?$less@H@std@@V?$allocator@U?$pair@$$CBHV?$CStringT@DV?$StrTraitMFC_DLL@DV?$ChTraitsCRT@D@ATL@@@@@ATL@@@std@@@4@$0A@@std@@@std@@@2@XZ 0056db20 f i globalvar.obj
 0002:0008fb90       ?erase@?$_Tree@V?$_Tmap_traits@HV?$CStringT@DV?$StrTraitMFC_DLL@DV?$ChTraitsCRT@D@ATL@@@@@ATL@@U?$less@H@std@@V?$allocator@U?$pair@$$CBHV?$CStringT@DV?$StrTraitMFC_DLL@DV?$ChTraitsCRT@D@ATL@@@@@ATL@@@std@@@4@$0A@@std@@@std@@QAE?AV?$_Tree_iterator@V?$_Tree_val@V?$_Tmap_traits@HV?$CStringT@DV?$StrTraitMFC_DLL@DV?$ChTraitsCRT@D@ATL@@@@@ATL@@U?$less@H@std@@V?$allocator@U?$pair@$$CBHV?$CStringT@DV?$StrTraitMFC_DLL@DV?$ChTraitsCRT@D@ATL@@@@@ATL@@@std@@@4@$0A@@std@@@std@@@2@V?$_Tree_const_iterator@V?$_Tree_val@V?$_Tmap_traits@HV?$CStringT@DV?$StrTraitMFC_DLL@DV?$ChTraitsCRT@D@ATL@@@@@ATL@@U?$less@H@std@@V?$allocator@U?$pair@$$CBHV?$CStringT@DV?$StrTraitMFC_DLL@DV?$ChTraitsCRT@D@ATL@@@@@ATL@@@std@@@4@$0A@@std@@@std@@@2@0@Z 0056db90 f i globalvar.obj
 0002:0008fcb0       ?deallocate@?$allocator@U_Node@?$_Tree_nod@V?$_Tmap_traits@HV?$CStringT@DV?$StrTraitMFC_DLL@DV?$ChTraitsCRT@D@ATL@@@@@ATL@@U?$less@H@std@@V?$allocator@U?$pair@$$CBHV?$CStringT@DV?$StrTraitMFC_DLL@DV?$ChTraitsCRT@D@ATL@@@@@ATL@@@std@@@4@$0A@@std@@@std@@@std@@QAEXPAU_Node@?$_Tree_nod@V?$_Tmap_traits@HV?$CStringT@DV?$StrTraitMFC_DLL@DV?$ChTraitsCRT@D@ATL@@@@@ATL@@U?$less@H@std@@V?$allocator@U?$pair@$$CBHV?$CStringT@DV?$StrTraitMFC_DLL@DV?$ChTraitsCRT@D@ATL@@@@@ATL@@@std@@@4@$0A@@std@@@2@I@Z 0056dcb0 f i globalvar.obj
 0002:0008fd10       ?erase@?$_Tree@V?$_Tmap_traits@HV?$CStringT@DV?$StrTraitMFC_DLL@DV?$ChTraitsCRT@D@ATL@@@@@ATL@@U?$less@H@std@@V?$allocator@U?$pair@$$CBHV?$CStringT@DV?$StrTraitMFC_DLL@DV?$ChTraitsCRT@D@ATL@@@@@ATL@@@std@@@4@$0A@@std@@@std@@QAE?AV?$_Tree_iterator@V?$_Tree_val@V?$_Tmap_traits@HV?$CStringT@DV?$StrTraitMFC_DLL@DV?$ChTraitsCRT@D@ATL@@@@@ATL@@U?$less@H@std@@V?$allocator@U?$pair@$$CBHV?$CStringT@DV?$StrTraitMFC_DLL@DV?$ChTraitsCRT@D@ATL@@@@@ATL@@@std@@@4@$0A@@std@@@std@@@2@V?$_Tree_const_iterator@V?$_Tree_val@V?$_Tmap_traits@HV?$CStringT@DV?$StrTraitMFC_DLL@DV?$ChTraitsCRT@D@ATL@@@@@ATL@@U?$less@H@std@@V?$allocator@U?$pair@$$CBHV?$CStringT@DV?$StrTraitMFC_DLL@DV?$ChTraitsCRT@D@ATL@@@@@ATL@@@std@@@4@$0A@@std@@@std@@@2@@Z 0056dd10 f i globalvar.obj
 0002:000906d0       ?clear@?$_Tree@V?$_Tmap_traits@HV?$CStringT@DV?$StrTraitMFC_DLL@DV?$ChTraitsCRT@D@ATL@@@@@ATL@@U?$less@H@std@@V?$allocator@U?$pair@$$CBHV?$CStringT@DV?$StrTraitMFC_DLL@DV?$ChTraitsCRT@D@ATL@@@@@ATL@@@std@@@4@$0A@@std@@@std@@QAEXXZ 0056e6d0 f i globalvar.obj
 0002:00090780       ?_Lmost@?$_Tree@V?$_Tmap_traits@HV?$CStringT@DV?$StrTraitMFC_DLL@DV?$ChTraitsCRT@D@ATL@@@@@ATL@@U?$less@H@std@@V?$allocator@U?$pair@$$CBHV?$CStringT@DV?$StrTraitMFC_DLL@DV?$ChTraitsCRT@D@ATL@@@@@ATL@@@std@@@4@$0A@@std@@@std@@IBEAAPAU_Node@?$_Tree_nod@V?$_Tmap_traits@HV?$CStringT@DV?$StrTraitMFC_DLL@DV?$ChTraitsCRT@D@ATL@@@@@ATL@@U?$less@H@std@@V?$allocator@U?$pair@$$CBHV?$CStringT@DV?$StrTraitMFC_DLL@DV?$ChTraitsCRT@D@ATL@@@@@ATL@@@std@@@4@$0A@@std@@@2@XZ 0056e780 f i globalvar.obj
 0002:000907e0       ??0?$_Tree_iterator@V?$_Tree_val@V?$_Tmap_traits@HV?$CStringT@DV?$StrTraitMFC_DLL@DV?$ChTraitsCRT@D@ATL@@@@@ATL@@U?$less@H@std@@V?$allocator@U?$pair@$$CBHV?$CStringT@DV?$StrTraitMFC_DLL@DV?$ChTraitsCRT@D@ATL@@@@@ATL@@@std@@@4@$0A@@std@@@std@@@std@@QAE@PAU_Node@?$_Tree_nod@V?$_Tmap_traits@HV?$CStringT@DV?$StrTraitMFC_DLL@DV?$ChTraitsCRT@D@ATL@@@@@ATL@@U?$less@H@std@@V?$allocator@U?$pair@$$CBHV?$CStringT@DV?$StrTraitMFC_DLL@DV?$ChTraitsCRT@D@ATL@@@@@ATL@@@std@@@4@$0A@@std@@@1@PBV?$_Tree_val@V?$_Tmap_traits@HV?$CStringT@DV?$StrTraitMFC_DLL@DV?$ChTraitsCRT@D@ATL@@@@@ATL@@U?$less@H@std@@V?$allocator@U?$pair@$$CBHV?$CStringT@DV?$StrTraitMFC_DLL@DV?$ChTraitsCRT@D@ATL@@@@@ATL@@@std@@@4@$0A@@std@@@1@@Z 0056e7e0 f i globalvar.obj
 0002:00090840       ??E?$_Tree_const_iterator@V?$_Tree_val@V?$_Tmap_traits@HV?$CStringT@DV?$StrTraitMFC_DLL@DV?$ChTraitsCRT@D@ATL@@@@@ATL@@U?$less@H@std@@V?$allocator@U?$pair@$$CBHV?$CStringT@DV?$StrTraitMFC_DLL@DV?$ChTraitsCRT@D@ATL@@@@@ATL@@@std@@@4@$0A@@std@@@std@@@std@@QAE?AV01@H@Z 0056e840 f i globalvar.obj
 0002:000908f0       ??8?$_Tree_const_iterator@V?$_Tree_val@V?$_Tmap_traits@HV?$CStringT@DV?$StrTraitMFC_DLL@DV?$ChTraitsCRT@D@ATL@@@@@ATL@@U?$less@H@std@@V?$allocator@U?$pair@$$CBHV?$CStringT@DV?$StrTraitMFC_DLL@DV?$ChTraitsCRT@D@ATL@@@@@ATL@@@std@@@4@$0A@@std@@@std@@@std@@QBE_NABV01@@Z 0056e8f0 f i globalvar.obj
 0002:00090940       ??9?$_Tree_const_iterator@V?$_Tree_val@V?$_Tmap_traits@HV?$CStringT@DV?$StrTraitMFC_DLL@DV?$ChTraitsCRT@D@ATL@@@@@ATL@@U?$less@H@std@@V?$allocator@U?$pair@$$CBHV?$CStringT@DV?$StrTraitMFC_DLL@DV?$ChTraitsCRT@D@ATL@@@@@ATL@@@std@@@4@$0A@@std@@@std@@@std@@QBE_NABV01@@Z 0056e940 f i globalvar.obj
 0002:000909b0       ?_Erase@?$_Tree@V?$_Tmap_traits@HV?$CStringT@DV?$StrTraitMFC_DLL@DV?$ChTraitsCRT@D@ATL@@@@@ATL@@U?$less@H@std@@V?$allocator@U?$pair@$$CBHV?$CStringT@DV?$StrTraitMFC_DLL@DV?$ChTraitsCRT@D@ATL@@@@@ATL@@@std@@@4@$0A@@std@@@std@@IAEXPAU_Node@?$_Tree_nod@V?$_Tmap_traits@HV?$CStringT@DV?$StrTraitMFC_DLL@DV?$ChTraitsCRT@D@ATL@@@@@ATL@@U?$less@H@std@@V?$allocator@U?$pair@$$CBHV?$CStringT@DV?$StrTraitMFC_DLL@DV?$ChTraitsCRT@D@ATL@@@@@ATL@@@std@@@4@$0A@@std@@@2@@Z 0056e9b0 f i globalvar.obj
 0002:00090aa0       ?_Lrotate@?$_Tree@V?$_Tmap_traits@HV?$CStringT@DV?$StrTraitMFC_DLL@DV?$ChTraitsCRT@D@ATL@@@@@ATL@@U?$less@H@std@@V?$allocator@U?$pair@$$CBHV?$CStringT@DV?$StrTraitMFC_DLL@DV?$ChTraitsCRT@D@ATL@@@@@ATL@@@std@@@4@$0A@@std@@@std@@IAEXPAU_Node@?$_Tree_nod@V?$_Tmap_traits@HV?$CStringT@DV?$StrTraitMFC_DLL@DV?$ChTraitsCRT@D@ATL@@@@@ATL@@U?$less@H@std@@V?$allocator@U?$pair@$$CBHV?$CStringT@DV?$StrTraitMFC_DLL@DV?$ChTraitsCRT@D@ATL@@@@@ATL@@@std@@@4@$0A@@std@@@2@@Z 0056eaa0 f i globalvar.obj
 0002:00090c50       ?_Rmost@?$_Tree@V?$_Tmap_traits@HV?$CStringT@DV?$StrTraitMFC_DLL@DV?$ChTraitsCRT@D@ATL@@@@@ATL@@U?$less@H@std@@V?$allocator@U?$pair@$$CBHV?$CStringT@DV?$StrTraitMFC_DLL@DV?$ChTraitsCRT@D@ATL@@@@@ATL@@@std@@@4@$0A@@std@@@std@@IBEAAPAU_Node@?$_Tree_nod@V?$_Tmap_traits@HV?$CStringT@DV?$StrTraitMFC_DLL@DV?$ChTraitsCRT@D@ATL@@@@@ATL@@U?$less@H@std@@V?$allocator@U?$pair@$$CBHV?$CStringT@DV?$StrTraitMFC_DLL@DV?$ChTraitsCRT@D@ATL@@@@@ATL@@@std@@@4@$0A@@std@@@2@XZ 0056ec50 f i globalvar.obj
 0002:00090cb0       ?_Root@?$_Tree@V?$_Tmap_traits@HV?$CStringT@DV?$StrTraitMFC_DLL@DV?$ChTraitsCRT@D@ATL@@@@@ATL@@U?$less@H@std@@V?$allocator@U?$pair@$$CBHV?$CStringT@DV?$StrTraitMFC_DLL@DV?$ChTraitsCRT@D@ATL@@@@@ATL@@@std@@@4@$0A@@std@@@std@@IBEAAPAU_Node@?$_Tree_nod@V?$_Tmap_traits@HV?$CStringT@DV?$StrTraitMFC_DLL@DV?$ChTraitsCRT@D@ATL@@@@@ATL@@U?$less@H@std@@V?$allocator@U?$pair@$$CBHV?$CStringT@DV?$StrTraitMFC_DLL@DV?$ChTraitsCRT@D@ATL@@@@@ATL@@@std@@@4@$0A@@std@@@2@XZ 0056ecb0 f i globalvar.obj
 0002:00090d10       ?_Rrotate@?$_Tree@V?$_Tmap_traits@HV?$CStringT@DV?$StrTraitMFC_DLL@DV?$ChTraitsCRT@D@ATL@@@@@ATL@@U?$less@H@std@@V?$allocator@U?$pair@$$CBHV?$CStringT@DV?$StrTraitMFC_DLL@DV?$ChTraitsCRT@D@ATL@@@@@ATL@@@std@@@4@$0A@@std@@@std@@IAEXPAU_Node@?$_Tree_nod@V?$_Tmap_traits@HV?$CStringT@DV?$StrTraitMFC_DLL@DV?$ChTraitsCRT@D@ATL@@@@@ATL@@U?$less@H@std@@V?$allocator@U?$pair@$$CBHV?$CStringT@DV?$StrTraitMFC_DLL@DV?$ChTraitsCRT@D@ATL@@@@@ATL@@@std@@@4@$0A@@std@@@2@@Z 0056ed10 f i globalvar.obj
 0002:00090ec0       ?_Myval@?$_Tree_val@V?$_Tmap_traits@HV?$CStringT@DV?$StrTraitMFC_DLL@DV?$ChTraitsCRT@D@ATL@@@@@ATL@@U?$less@H@std@@V?$allocator@U?$pair@$$CBHV?$CStringT@DV?$StrTraitMFC_DLL@DV?$ChTraitsCRT@D@ATL@@@@@ATL@@@std@@@4@$0A@@std@@@std@@SAAAU?$pair@$$CBHV?$CStringT@DV?$StrTraitMFC_DLL@DV?$ChTraitsCRT@D@ATL@@@@@ATL@@@2@PAU_Node@?$_Tree_nod@V?$_Tmap_traits@HV?$CStringT@DV?$StrTraitMFC_DLL@DV?$ChTraitsCRT@D@ATL@@@@@ATL@@U?$less@H@std@@V?$allocator@U?$pair@$$CBHV?$CStringT@DV?$StrTraitMFC_DLL@DV?$ChTraitsCRT@D@ATL@@@@@ATL@@@std@@@4@$0A@@std@@@2@@Z 0056eec0 f i globalvar.obj
 0002:00090f00       ?_Max@?$_Tree_val@V?$_Tmap_traits@HV?$CStringT@DV?$StrTraitMFC_DLL@DV?$ChTraitsCRT@D@ATL@@@@@ATL@@U?$less@H@std@@V?$allocator@U?$pair@$$CBHV?$CStringT@DV?$StrTraitMFC_DLL@DV?$ChTraitsCRT@D@ATL@@@@@ATL@@@std@@@4@$0A@@std@@@std@@SAPAU_Node@?$_Tree_nod@V?$_Tmap_traits@HV?$CStringT@DV?$StrTraitMFC_DLL@DV?$ChTraitsCRT@D@ATL@@@@@ATL@@U?$less@H@std@@V?$allocator@U?$pair@$$CBHV?$CStringT@DV?$StrTraitMFC_DLL@DV?$ChTraitsCRT@D@ATL@@@@@ATL@@@std@@@4@$0A@@std@@@2@PAU342@@Z 0056ef00 f i globalvar.obj
 0002:00090f80       ?_Min@?$_Tree_val@V?$_Tmap_traits@HV?$CStringT@DV?$StrTraitMFC_DLL@DV?$ChTraitsCRT@D@ATL@@@@@ATL@@U?$less@H@std@@V?$allocator@U?$pair@$$CBHV?$CStringT@DV?$StrTraitMFC_DLL@DV?$ChTraitsCRT@D@ATL@@@@@ATL@@@std@@@4@$0A@@std@@@std@@SAPAU_Node@?$_Tree_nod@V?$_Tmap_traits@HV?$CStringT@DV?$StrTraitMFC_DLL@DV?$ChTraitsCRT@D@ATL@@@@@ATL@@U?$less@H@std@@V?$allocator@U?$pair@$$CBHV?$CStringT@DV?$StrTraitMFC_DLL@DV?$ChTraitsCRT@D@ATL@@@@@ATL@@@std@@@4@$0A@@std@@@2@PAU342@@Z 0056ef80 f i globalvar.obj
 0002:00091000       ??0?$_Tree_const_iterator@V?$_Tree_val@V?$_Tmap_traits@HV?$CStringT@DV?$StrTraitMFC_DLL@DV?$ChTraitsCRT@D@ATL@@@@@ATL@@U?$less@H@std@@V?$allocator@U?$pair@$$CBHV?$CStringT@DV?$StrTraitMFC_DLL@DV?$ChTraitsCRT@D@ATL@@@@@ATL@@@std@@@4@$0A@@std@@@std@@@std@@QAE@PAU_Node@?$_Tree_nod@V?$_Tmap_traits@HV?$CStringT@DV?$StrTraitMFC_DLL@DV?$ChTraitsCRT@D@ATL@@@@@ATL@@U?$less@H@std@@V?$allocator@U?$pair@$$CBHV?$CStringT@DV?$StrTraitMFC_DLL@DV?$ChTraitsCRT@D@ATL@@@@@ATL@@@std@@@4@$0A@@std@@@1@PBV?$_Tree_val@V?$_Tmap_traits@HV?$CStringT@DV?$StrTraitMFC_DLL@DV?$ChTraitsCRT@D@ATL@@@@@ATL@@U?$less@H@std@@V?$allocator@U?$pair@$$CBHV?$CStringT@DV?$StrTraitMFC_DLL@DV?$ChTraitsCRT@D@ATL@@@@@ATL@@@std@@@4@$0A@@std@@@1@@Z 0056f000 f i globalvar.obj
 0002:00091060       ??E?$_Tree_const_iterator@V?$_Tree_val@V?$_Tmap_traits@HV?$CStringT@DV?$StrTraitMFC_DLL@DV?$ChTraitsCRT@D@ATL@@@@@ATL@@U?$less@H@std@@V?$allocator@U?$pair@$$CBHV?$CStringT@DV?$StrTraitMFC_DLL@DV?$ChTraitsCRT@D@ATL@@@@@ATL@@@std@@@4@$0A@@std@@@std@@@std@@QAEAAV01@XZ 0056f060 f i globalvar.obj
 0002:000910c0       ?_Mynode@?$_Tree_unchecked_const_iterator@V?$_Tree_val@V?$_Tmap_traits@HV?$CStringT@DV?$StrTraitMFC_DLL@DV?$ChTraitsCRT@D@ATL@@@@@ATL@@U?$less@H@std@@V?$allocator@U?$pair@$$CBHV?$CStringT@DV?$StrTraitMFC_DLL@DV?$ChTraitsCRT@D@ATL@@@@@ATL@@@std@@@4@$0A@@std@@@std@@U_Iterator_base0@2@@std@@QBEPAU_Node@?$_Tree_nod@V?$_Tmap_traits@HV?$CStringT@DV?$StrTraitMFC_DLL@DV?$ChTraitsCRT@D@ATL@@@@@ATL@@U?$less@H@std@@V?$allocator@U?$pair@$$CBHV?$CStringT@DV?$StrTraitMFC_DLL@DV?$ChTraitsCRT@D@ATL@@@@@ATL@@@std@@@4@$0A@@std@@@2@XZ 0056f0c0 f i globalvar.obj
 0002:00091100       ??0?$_Tree_unchecked_const_iterator@V?$_Tree_val@V?$_Tmap_traits@HV?$CStringT@DV?$StrTraitMFC_DLL@DV?$ChTraitsCRT@D@ATL@@@@@ATL@@U?$less@H@std@@V?$allocator@U?$pair@$$CBHV?$CStringT@DV?$StrTraitMFC_DLL@DV?$ChTraitsCRT@D@ATL@@@@@ATL@@@std@@@4@$0A@@std@@@std@@U_Iterator_base0@2@@std@@QAE@PAU_Node@?$_Tree_nod@V?$_Tmap_traits@HV?$CStringT@DV?$StrTraitMFC_DLL@DV?$ChTraitsCRT@D@ATL@@@@@ATL@@U?$less@H@std@@V?$allocator@U?$pair@$$CBHV?$CStringT@DV?$StrTraitMFC_DLL@DV?$ChTraitsCRT@D@ATL@@@@@ATL@@@std@@@4@$0A@@std@@@1@PBV?$_Tree_val@V?$_Tmap_traits@HV?$CStringT@DV?$StrTraitMFC_DLL@DV?$ChTraitsCRT@D@ATL@@@@@ATL@@U?$less@H@std@@V?$allocator@U?$pair@$$CBHV?$CStringT@DV?$StrTraitMFC_DLL@DV?$ChTraitsCRT@D@ATL@@@@@ATL@@@std@@@4@$0A@@std@@@1@@Z 0056f100 f i globalvar.obj
 0002:00091170       ??E?$_Tree_unchecked_const_iterator@V?$_Tree_val@V?$_Tmap_traits@HV?$CStringT@DV?$StrTraitMFC_DLL@DV?$ChTraitsCRT@D@ATL@@@@@ATL@@U?$less@H@std@@V?$allocator@U?$pair@$$CBHV?$CStringT@DV?$StrTraitMFC_DLL@DV?$ChTraitsCRT@D@ATL@@@@@ATL@@@std@@@4@$0A@@std@@@std@@U_Iterator_base0@2@@std@@QAEAAV01@XZ 0056f170 f i globalvar.obj
 0002:00091290       ??$addressof@U?$pair@$$CBHV?$CStringT@DV?$StrTraitMFC_DLL@DV?$ChTraitsCRT@D@ATL@@@@@ATL@@@std@@@std@@YAPAU?$pair@$$CBHV?$CStringT@DV?$StrTraitMFC_DLL@DV?$ChTraitsCRT@D@ATL@@@@@ATL@@@0@AAU10@@Z 0056f290 f i globalvar.obj
 0002:000912d0       ??$_Dest_val@V?$allocator@U?$pair@$$CBHV?$CStringT@DV?$StrTraitMFC_DLL@DV?$ChTraitsCRT@D@ATL@@@@@ATL@@@std@@@std@@U?$pair@$$CBHV?$CStringT@DV?$StrTraitMFC_DLL@DV?$ChTraitsCRT@D@ATL@@@@@ATL@@@2@@std@@YAXAAV?$allocator@U?$pair@$$CBHV?$CStringT@DV?$StrTraitMFC_DLL@DV?$ChTraitsCRT@D@ATL@@@@@ATL@@@std@@@0@PAU?$pair@$$CBHV?$CStringT@DV?$StrTraitMFC_DLL@DV?$ChTraitsCRT@D@ATL@@@@@ATL@@@0@@Z 0056f2d0 f i globalvar.obj
 0002:00091320       ?destroy@?$allocator@U?$pair@$$CBHV?$CStringT@DV?$StrTraitMFC_DLL@DV?$ChTraitsCRT@D@ATL@@@@@ATL@@@std@@@std@@QAEXPAU?$pair@$$CBHV?$CStringT@DV?$StrTraitMFC_DLL@DV?$ChTraitsCRT@D@ATL@@@@@ATL@@@2@@Z 0056f320 f i globalvar.obj
 0002:00091380       ??$_Destroy@U?$pair@$$CBHV?$CStringT@DV?$StrTraitMFC_DLL@DV?$ChTraitsCRT@D@ATL@@@@@ATL@@@std@@@std@@YAXPAU?$pair@$$CBHV?$CStringT@DV?$StrTraitMFC_DLL@DV?$ChTraitsCRT@D@ATL@@@@@ATL@@@0@@Z 0056f380 f i globalvar.obj
 0002:000913d0       ??_G?$pair@$$CBHV?$CStringT@DV?$StrTraitMFC_DLL@DV?$ChTraitsCRT@D@ATL@@@@@ATL@@@std@@QAEPAXI@Z 0056f3d0 f i globalvar.obj
 0002:00091440       ??1?$pair@$$CBHV?$CStringT@DV?$StrTraitMFC_DLL@DV?$ChTraitsCRT@D@ATL@@@@@ATL@@@std@@QAE@XZ 0056f440 f i globalvar.obj
 0002:00091490       ??1?$_Pair_base@$$CBHV?$CStringT@DV?$StrTraitMFC_DLL@DV?$ChTraitsCRT@D@ATL@@@@@ATL@@@std@@QAE@XZ 0056f490 f i globalvar.obj
 0002:000914f0       ??1FriendListItemInfo@DuiLib@@QAE@XZ 0056f4f0 f i globalvar.obj
 0002:000916d0       ??0CIniFile@@QAE@XZ        0056f6d0 f   IniFile.obj
 0002:00091760       ??_GCIniFile@@UAEPAXI@Z    0056f760 f i IniFile.obj
 0002:00091760       ??_ECIniFile@@UAEPAXI@Z    0056f760 f i IniFile.obj
 0002:000917d0       ??0CIniFile@@QAE@V?$CStringT@DV?$StrTraitMFC_DLL@DV?$ChTraitsCRT@D@ATL@@@@@ATL@@@Z 0056f7d0 f   IniFile.obj
 0002:000918e0       ??1CIniFile@@UAE@XZ        0056f8e0 f   IniFile.obj
 0002:00091970       ?SetFileName@CIniFile@@QAEXV?$CStringT@DV?$StrTraitMFC_DLL@DV?$ChTraitsCRT@D@ATL@@@@@ATL@@@Z 0056f970 f   IniFile.obj
 0002:00091a40       ?SetAppName@CIniFile@@QAEXV?$CStringT@DV?$StrTraitMFC_DLL@DV?$ChTraitsCRT@D@ATL@@@@@ATL@@@Z 0056fa40 f   IniFile.obj
 0002:00091b10       ?GetInt@CIniFile@@QAEHPBDH0@Z 0056fb10 f   IniFile.obj
 0002:00091cb0       ?PutInt@CIniFile@@QAEXHPBD0@Z 0056fcb0 f   IniFile.obj
 0002:00091ed0       ?GetString@CIniFile@@QAEXAAV?$CStringT@DV?$StrTraitMFC_DLL@DV?$ChTraitsCRT@D@ATL@@@@@ATL@@PBD11@Z 0056fed0 f   IniFile.obj
 0002:00092130       ?GetString@CIniFile@@QAEXPADHPBD11@Z 00570130 f   IniFile.obj
 0002:00092370       ?PutString@CIniFile@@QAEXPBD00@Z 00570370 f   IniFile.obj
 0002:00092500       ?LoadDLLFunc@@YAHXZ        00570500 f   LoadDllFunc.obj
 0002:00092720       ?UnLoadDLLFunc@@YAXXZ      00570720 f   LoadDllFunc.obj
 0002:00092790       ?_GetBaseClass@CLoginDlg@@KGPAUCRuntimeClass@@XZ 00570790 f   LoginDlg.obj
 0002:000927e0       ?GetThisClass@CLoginDlg@@SGPAUCRuntimeClass@@XZ 005707e0 f   LoginDlg.obj
 0002:00092820       ?GetRuntimeClass@CLoginDlg@@UBEPAUCRuntimeClass@@XZ 00570820 f   LoginDlg.obj
 0002:00092860       ??0CLoginDlg@@QAE@PAVCWnd@@@Z 00570860 f   LoginDlg.obj
 0002:000928d0       ??_GCLoginDlg@@UAEPAXI@Z   005708d0 f i LoginDlg.obj
 0002:000928d0       ??_ECLoginDlg@@UAEPAXI@Z   005708d0 f i LoginDlg.obj
 0002:00092940       ??1CLoginDlg@@UAE@XZ       00570940 f   LoginDlg.obj
 0002:000929a0       ??1CDialogEx@@UAE@XZ       005709a0 f i LoginDlg.obj
 0002:00092a60       ?DoDataExchange@CLoginDlg@@MAEXPAVCDataExchange@@@Z 00570a60 f   LoginDlg.obj
 0002:00092ac0       ?GetMessageMap@CLoginDlg@@MBEPBUAFX_MSGMAP@@XZ 00570ac0 f   LoginDlg.obj
 0002:00092b10       ?GetThisMessageMap@CLoginDlg@@KGPBUAFX_MSGMAP@@XZ 00570b10 f   LoginDlg.obj
 0002:00092b50       ?OnInitDialog@CLoginDlg@@UAEHXZ 00570b50 f   LoginDlg.obj
 0002:00092bb0       ?OnBnClickedOk@CLoginDlg@@QAEXXZ 00570bb0 f   LoginDlg.obj
 0002:00092c00       ?InitConnect@@YAXXZ        00570c00 f   MainPort.obj
 0002:00092db0       ?ReConnect@@YAXXZ          00570db0 f   MainPort.obj
 0002:00092fe0       ?InitRichEditCom@@YAXXZ    00570fe0 f   MainPort.obj
 0002:000933a0       ?UnInitRichEditCom@@YAXXZ  005713a0 f   MainPort.obj
 0002:00093440       ?LoginIN@@YAXXZ            00571440 f   MainPort.obj
 0002:000934b0       ?StopConnect@@YAXXZ        005714b0 f   MainPort.obj
 0002:00093510       ?InitMainFrame@@YAXXZ      00571510 f   MainPort.obj
 0002:00093750       ?OpenChatWnd@@YAXV?$CStringT@DV?$StrTraitMFC_DLL@DV?$ChTraitsCRT@D@ATL@@@@@ATL@@H@Z 00571750 f   MainPort.obj
 0002:000938b0       ?GetConnectionID@CTcpClient@@UAEKXZ 005718b0 f i MainPort.obj
 0002:000938f0       ?MD5Init@@YAXPAUMD5_CTX@@@Z 005718f0 f   md5.obj
 0002:00093970       ?MD5Update@@YAXPAUMD5_CTX@@PAEI@Z 00571970 f   md5.obj
 0002:00093af0       ?MD5Final@@YAXQAEPAUMD5_CTX@@@Z 00571af0 f   md5.obj
 0002:00093c40       ?MD5Transform@@YAXQAKQAE@Z 00571c40 f   md5.obj
 0002:00094ea0       ?Encode@@YAXPAEPAKI@Z      00572ea0 f   md5.obj
 0002:00094f90       ?Decode@@YAXPAKPAEI@Z      00572f90 f   md5.obj
 0002:00095050       ?MD5_memcpy@@YAXPAE0I@Z    00573050 f   md5.obj
 0002:000950c0       ?MD5_memset@@YAXPAEHI@Z    005730c0 f   md5.obj
 0002:00095120       ??0CMsgQueueSendMng@@QAE@XZ 00573120 f   MsgQueueSendMng.obj
 0002:00095220       ??_GCMsgQueueSendMng@@UAEPAXI@Z 00573220 f i MsgQueueSendMng.obj
 0002:00095220       ??_ECMsgQueueSendMng@@UAEPAXI@Z 00573220 f i MsgQueueSendMng.obj
 0002:00095290       ??1CMsgQueueSendMng@@UAE@XZ 00573290 f   MsgQueueSendMng.obj
 0002:000953b0       ?_AfxMsgQueueSend@@YGKPAX@Z 005733b0 f   MsgQueueSendMng.obj
 0002:00095b60       ??_GtagMSGQUEUE@@QAEPAXI@Z 00573b60 f i MsgQueueSendMng.obj
 0002:00095bd0       ?Init@CMsgQueueSendMng@@QAEXPAVCMyClient@@@Z 00573bd0 f   MsgQueueSendMng.obj
 0002:00095cf0       ?Exit@CMsgQueueSendMng@@QAEXXZ 00573cf0 f   MsgQueueSendMng.obj
 0002:00095ea0       ?PushMsg@CMsgQueueSendMng@@QAEXPBDHAAV?$vector@UUPIMID@@V?$allocator@UUPIMID@@@std@@@std@@PAUHWND__@@@Z 00573ea0 f   MsgQueueSendMng.obj
 0002:00096150       ?PushMsg@CMsgQueueSendMng@@QAEXPAUCOMPLEX_MSG_DATA@@HAAV?$vector@UUPIMID@@V?$allocator@UUPIMID@@@std@@@std@@PAUHWND__@@@Z 00574150 f   MsgQueueSendMng.obj
 0002:000963f0       ?PushBroadCast@CMsgQueueSendMng@@QAEXPBDAAV?$vector@UUPIMID@@V?$allocator@UUPIMID@@@std@@@std@@PAUHWND__@@@Z 005743f0 f   MsgQueueSendMng.obj
 0002:00096690       ?PopMsg@CMsgQueueSendMng@@QAEHPAPAUtagMSGQUEUE@@@Z 00574690 f   MsgQueueSendMng.obj
 0002:000967b0       ?DeleteAll@CMsgQueueSendMng@@IAEXXZ 005747b0 f   MsgQueueSendMng.obj
 0002:000968e0       ?size@?$vector@UUPIMID@@V?$allocator@UUPIMID@@@std@@@std@@QBEIXZ 005748e0 f i MsgQueueSendMng.obj
 0002:00096930       ??A?$vector@UUPIMID@@V?$allocator@UUPIMID@@@std@@@std@@QAEAAUUPIMID@@I@Z 00574930 f i MsgQueueSendMng.obj
 0002:00096980       ??0?$vector@PAUtagMSGQUEUE@@V?$allocator@PAUtagMSGQUEUE@@@std@@@std@@QAE@XZ 00574980 f i MsgQueueSendMng.obj
 0002:000969f0       ??1?$vector@PAUtagMSGQUEUE@@V?$allocator@PAUtagMSGQUEUE@@@std@@@std@@QAE@XZ 005749f0 f i MsgQueueSendMng.obj
 0002:00096a90       ?begin@?$vector@PAUtagMSGQUEUE@@V?$allocator@PAUtagMSGQUEUE@@@std@@@std@@QAE?AV?$_Vector_iterator@V?$_Vector_val@PAUtagMSGQUEUE@@V?$allocator@PAUtagMSGQUEUE@@@std@@@std@@@2@XZ 00574a90 f i MsgQueueSendMng.obj
 0002:00096b00       ?size@?$vector@PAUtagMSGQUEUE@@V?$allocator@PAUtagMSGQUEUE@@@std@@@std@@QBEIXZ 00574b00 f i MsgQueueSendMng.obj
 0002:00096b50       ??A?$vector@PAUtagMSGQUEUE@@V?$allocator@PAUtagMSGQUEUE@@@std@@@std@@QAEAAPAUtagMSGQUEUE@@I@Z 00574b50 f i MsgQueueSendMng.obj
 0002:00096ba0       ?push_back@?$vector@PAUtagMSGQUEUE@@V?$allocator@PAUtagMSGQUEUE@@@std@@@std@@QAEXABQAUtagMSGQUEUE@@@Z 00574ba0 f i MsgQueueSendMng.obj
 0002:00096d10       ?erase@?$vector@PAUtagMSGQUEUE@@V?$allocator@PAUtagMSGQUEUE@@@std@@@std@@QAE?AV?$_Vector_iterator@V?$_Vector_val@PAUtagMSGQUEUE@@V?$allocator@PAUtagMSGQUEUE@@@std@@@std@@@2@V?$_Vector_const_iterator@V?$_Vector_val@PAUtagMSGQUEUE@@V?$allocator@PAUtagMSGQUEUE@@@std@@@std@@@2@@Z 00574d10 f i MsgQueueSendMng.obj
 0002:00096dd0       ?clear@?$vector@PAUtagMSGQUEUE@@V?$allocator@PAUtagMSGQUEUE@@@std@@@std@@QAEXXZ 00574dd0 f i MsgQueueSendMng.obj
 0002:00096e80       ?end@?$vector@PAUtagMSGQUEUE@@V?$allocator@PAUtagMSGQUEUE@@@std@@@std@@QAE?AV?$_Vector_iterator@V?$_Vector_val@PAUtagMSGQUEUE@@V?$allocator@PAUtagMSGQUEUE@@@std@@@std@@@2@XZ 00574e80 f i MsgQueueSendMng.obj
 0002:00096ef0       ?_Make_iter@?$vector@PAUtagMSGQUEUE@@V?$allocator@PAUtagMSGQUEUE@@@std@@@std@@QBE?AV?$_Vector_iterator@V?$_Vector_val@PAUtagMSGQUEUE@@V?$allocator@PAUtagMSGQUEUE@@@std@@@std@@@2@V?$_Vector_const_iterator@V?$_Vector_val@PAUtagMSGQUEUE@@V?$allocator@PAUtagMSGQUEUE@@@std@@@std@@@2@@Z 00574ef0 f i MsgQueueSendMng.obj
 0002:00096f50       ?erase@?$vector@PAUtagMSGQUEUE@@V?$allocator@PAUtagMSGQUEUE@@@std@@@std@@QAE?AV?$_Vector_iterator@V?$_Vector_val@PAUtagMSGQUEUE@@V?$allocator@PAUtagMSGQUEUE@@@std@@@std@@@2@V?$_Vector_const_iterator@V?$_Vector_val@PAUtagMSGQUEUE@@V?$allocator@PAUtagMSGQUEUE@@@std@@@std@@@2@0@Z 00574f50 f i MsgQueueSendMng.obj
 0002:00097080       ?_Destroy@?$vector@PAUtagMSGQUEUE@@V?$allocator@PAUtagMSGQUEUE@@@std@@@std@@IAEXPAPAUtagMSGQUEUE@@0@Z 00575080 f i MsgQueueSendMng.obj
 0002:000970f0       ?_Inside@?$vector@PAUtagMSGQUEUE@@V?$allocator@PAUtagMSGQUEUE@@@std@@@std@@IBE_NPBQAUtagMSGQUEUE@@@Z 005750f0 f i MsgQueueSendMng.obj
 0002:00097170       ?_Reserve@?$vector@PAUtagMSGQUEUE@@V?$allocator@PAUtagMSGQUEUE@@@std@@@std@@IAEXI@Z 00575170 f i MsgQueueSendMng.obj
 0002:00097220       ?_Tidy@?$vector@PAUtagMSGQUEUE@@V?$allocator@PAUtagMSGQUEUE@@@std@@@std@@IAEXXZ 00575220 f i MsgQueueSendMng.obj
 0002:000972f0       ?_Orphan_range@?$vector@PAUtagMSGQUEUE@@V?$allocator@PAUtagMSGQUEUE@@@std@@@std@@IBEXPAPAUtagMSGQUEUE@@0@Z 005752f0 f i MsgQueueSendMng.obj
 0002:00097330       ??0?$_Vector_val@PAUtagMSGQUEUE@@V?$allocator@PAUtagMSGQUEUE@@@std@@@std@@QAE@V?$allocator@PAUtagMSGQUEUE@@@1@@Z 00575330 f i MsgQueueSendMng.obj
 0002:000973c0       ??1?$_Vector_val@PAUtagMSGQUEUE@@V?$allocator@PAUtagMSGQUEUE@@@std@@@std@@QAE@XZ 005753c0 f i MsgQueueSendMng.obj
 0002:00097400       ??0?$allocator@PAUtagMSGQUEUE@@@std@@QAE@XZ 00575400 f i MsgQueueSendMng.obj
 0002:00097440       ??0?$_Vector_iterator@V?$_Vector_val@PAUtagMSGQUEUE@@V?$allocator@PAUtagMSGQUEUE@@@std@@@std@@@std@@QAE@PAPAUtagMSGQUEUE@@PBU_Container_base0@1@@Z 00575440 f i MsgQueueSendMng.obj
 0002:000974a0       ?reserve@?$vector@PAUtagMSGQUEUE@@V?$allocator@PAUtagMSGQUEUE@@@std@@@std@@QAEXI@Z 005754a0 f i MsgQueueSendMng.obj
 0002:00097680       ?capacity@?$vector@PAUtagMSGQUEUE@@V?$allocator@PAUtagMSGQUEUE@@@std@@@std@@QBEIXZ 00575680 f i MsgQueueSendMng.obj
 0002:000976d0       ?max_size@?$vector@PAUtagMSGQUEUE@@V?$allocator@PAUtagMSGQUEUE@@@std@@@std@@QBEIXZ 005756d0 f i MsgQueueSendMng.obj
 0002:00097730       ?_Grow_to@?$vector@PAUtagMSGQUEUE@@V?$allocator@PAUtagMSGQUEUE@@@std@@@std@@IBEII@Z 00575730 f i MsgQueueSendMng.obj
 0002:000977e0       ?_Xlen@?$vector@PAUtagMSGQUEUE@@V?$allocator@PAUtagMSGQUEUE@@@std@@@std@@IBEXXZ 005757e0 f i MsgQueueSendMng.obj
 0002:00097840       ??0?$allocator@PAUtagMSGQUEUE@@@std@@QAE@ABV01@@Z 00575840 f i MsgQueueSendMng.obj
 0002:00097880       ?deallocate@?$allocator@PAUtagMSGQUEUE@@@std@@QAEXPAPAUtagMSGQUEUE@@I@Z 00575880 f i MsgQueueSendMng.obj
 0002:000978e0       ??0?$_Vector_const_iterator@V?$_Vector_val@PAUtagMSGQUEUE@@V?$allocator@PAUtagMSGQUEUE@@@std@@@std@@@std@@QAE@PAPAUtagMSGQUEUE@@PBU_Container_base0@1@@Z 005758e0 f i MsgQueueSendMng.obj
 0002:00097950       ??9?$_Vector_const_iterator@V?$_Vector_val@PAUtagMSGQUEUE@@V?$allocator@PAUtagMSGQUEUE@@@std@@@std@@@std@@QBE_NABV01@@Z 00575950 f i MsgQueueSendMng.obj
